
libcamera.so:     file format elf32-littlearm


Disassembly of section .plt:

00007744 <.plt>:
    7744:	e52de004 	push	{lr}		; (str lr, [sp, #-4]!)
    7748:	e59fe004 	ldr	lr, [pc, #4]	; 7754 <_ZN7android22QualcommCameraHardware18filterPictureSizesEv-0x598>
    774c:	e08fe00e 	add	lr, pc, lr
    7750:	e5bef008 	ldr	pc, [lr, #8]!
    7754:	0000cfa4 	andeq	ip, r0, r4, lsr #31
    7758:	e28fc600 	add	ip, pc, #0	; 0x0
    775c:	e28cca0c 	add	ip, ip, #49152	; 0xc000
    7760:	e5bcffa4 	ldr	pc, [ip, #4004]!
    7764:	e28fc600 	add	ip, pc, #0	; 0x0
    7768:	e28cca0c 	add	ip, ip, #49152	; 0xc000
    776c:	e5bcff9c 	ldr	pc, [ip, #3996]!
    7770:	e28fc600 	add	ip, pc, #0	; 0x0
    7774:	e28cca0c 	add	ip, ip, #49152	; 0xc000
    7778:	e5bcff94 	ldr	pc, [ip, #3988]!
    777c:	e28fc600 	add	ip, pc, #0	; 0x0
    7780:	e28cca0c 	add	ip, ip, #49152	; 0xc000
    7784:	e5bcff8c 	ldr	pc, [ip, #3980]!
    7788:	e28fc600 	add	ip, pc, #0	; 0x0
    778c:	e28cca0c 	add	ip, ip, #49152	; 0xc000
    7790:	e5bcff84 	ldr	pc, [ip, #3972]!
    7794:	e28fc600 	add	ip, pc, #0	; 0x0
    7798:	e28cca0c 	add	ip, ip, #49152	; 0xc000
    779c:	e5bcff7c 	ldr	pc, [ip, #3964]!
    77a0:	e28fc600 	add	ip, pc, #0	; 0x0
    77a4:	e28cca0c 	add	ip, ip, #49152	; 0xc000
    77a8:	e5bcff74 	ldr	pc, [ip, #3956]!
    77ac:	e28fc600 	add	ip, pc, #0	; 0x0
    77b0:	e28cca0c 	add	ip, ip, #49152	; 0xc000
    77b4:	e5bcff6c 	ldr	pc, [ip, #3948]!
    77b8:	e28fc600 	add	ip, pc, #0	; 0x0
    77bc:	e28cca0c 	add	ip, ip, #49152	; 0xc000
    77c0:	e5bcff64 	ldr	pc, [ip, #3940]!
    77c4:	e28fc600 	add	ip, pc, #0	; 0x0
    77c8:	e28cca0c 	add	ip, ip, #49152	; 0xc000
    77cc:	e5bcff5c 	ldr	pc, [ip, #3932]!
    77d0:	e28fc600 	add	ip, pc, #0	; 0x0
    77d4:	e28cca0c 	add	ip, ip, #49152	; 0xc000
    77d8:	e5bcff54 	ldr	pc, [ip, #3924]!
    77dc:	e28fc600 	add	ip, pc, #0	; 0x0
    77e0:	e28cca0c 	add	ip, ip, #49152	; 0xc000
    77e4:	e5bcff4c 	ldr	pc, [ip, #3916]!
    77e8:	e28fc600 	add	ip, pc, #0	; 0x0
    77ec:	e28cca0c 	add	ip, ip, #49152	; 0xc000
    77f0:	e5bcff44 	ldr	pc, [ip, #3908]!
    77f4:	e28fc600 	add	ip, pc, #0	; 0x0
    77f8:	e28cca0c 	add	ip, ip, #49152	; 0xc000
    77fc:	e5bcff3c 	ldr	pc, [ip, #3900]!
    7800:	e28fc600 	add	ip, pc, #0	; 0x0
    7804:	e28cca0c 	add	ip, ip, #49152	; 0xc000
    7808:	e5bcff34 	ldr	pc, [ip, #3892]!
    780c:	e28fc600 	add	ip, pc, #0	; 0x0
    7810:	e28cca0c 	add	ip, ip, #49152	; 0xc000
    7814:	e5bcff2c 	ldr	pc, [ip, #3884]!
    7818:	e28fc600 	add	ip, pc, #0	; 0x0
    781c:	e28cca0c 	add	ip, ip, #49152	; 0xc000
    7820:	e5bcff24 	ldr	pc, [ip, #3876]!
    7824:	e28fc600 	add	ip, pc, #0	; 0x0
    7828:	e28cca0c 	add	ip, ip, #49152	; 0xc000
    782c:	e5bcff1c 	ldr	pc, [ip, #3868]!
    7830:	e28fc600 	add	ip, pc, #0	; 0x0
    7834:	e28cca0c 	add	ip, ip, #49152	; 0xc000
    7838:	e5bcff14 	ldr	pc, [ip, #3860]!
    783c:	e28fc600 	add	ip, pc, #0	; 0x0
    7840:	e28cca0c 	add	ip, ip, #49152	; 0xc000
    7844:	e5bcff0c 	ldr	pc, [ip, #3852]!
    7848:	e28fc600 	add	ip, pc, #0	; 0x0
    784c:	e28cca0c 	add	ip, ip, #49152	; 0xc000
    7850:	e5bcff04 	ldr	pc, [ip, #3844]!
    7854:	e28fc600 	add	ip, pc, #0	; 0x0
    7858:	e28cca0c 	add	ip, ip, #49152	; 0xc000
    785c:	e5bcfefc 	ldr	pc, [ip, #3836]!
    7860:	e28fc600 	add	ip, pc, #0	; 0x0
    7864:	e28cca0c 	add	ip, ip, #49152	; 0xc000
    7868:	e5bcfef4 	ldr	pc, [ip, #3828]!
    786c:	e28fc600 	add	ip, pc, #0	; 0x0
    7870:	e28cca0c 	add	ip, ip, #49152	; 0xc000
    7874:	e5bcfeec 	ldr	pc, [ip, #3820]!
    7878:	e28fc600 	add	ip, pc, #0	; 0x0
    787c:	e28cca0c 	add	ip, ip, #49152	; 0xc000
    7880:	e5bcfee4 	ldr	pc, [ip, #3812]!
    7884:	e28fc600 	add	ip, pc, #0	; 0x0
    7888:	e28cca0c 	add	ip, ip, #49152	; 0xc000
    788c:	e5bcfedc 	ldr	pc, [ip, #3804]!
    7890:	e28fc600 	add	ip, pc, #0	; 0x0
    7894:	e28cca0c 	add	ip, ip, #49152	; 0xc000
    7898:	e5bcfed4 	ldr	pc, [ip, #3796]!
    789c:	e28fc600 	add	ip, pc, #0	; 0x0
    78a0:	e28cca0c 	add	ip, ip, #49152	; 0xc000
    78a4:	e5bcfecc 	ldr	pc, [ip, #3788]!
    78a8:	e28fc600 	add	ip, pc, #0	; 0x0
    78ac:	e28cca0c 	add	ip, ip, #49152	; 0xc000
    78b0:	e5bcfec4 	ldr	pc, [ip, #3780]!
    78b4:	e28fc600 	add	ip, pc, #0	; 0x0
    78b8:	e28cca0c 	add	ip, ip, #49152	; 0xc000
    78bc:	e5bcfebc 	ldr	pc, [ip, #3772]!
    78c0:	e28fc600 	add	ip, pc, #0	; 0x0
    78c4:	e28cca0c 	add	ip, ip, #49152	; 0xc000
    78c8:	e5bcfeb4 	ldr	pc, [ip, #3764]!
    78cc:	e28fc600 	add	ip, pc, #0	; 0x0
    78d0:	e28cca0c 	add	ip, ip, #49152	; 0xc000
    78d4:	e5bcfeac 	ldr	pc, [ip, #3756]!
    78d8:	e28fc600 	add	ip, pc, #0	; 0x0
    78dc:	e28cca0c 	add	ip, ip, #49152	; 0xc000
    78e0:	e5bcfea4 	ldr	pc, [ip, #3748]!
    78e4:	e28fc600 	add	ip, pc, #0	; 0x0
    78e8:	e28cca0c 	add	ip, ip, #49152	; 0xc000
    78ec:	e5bcfe9c 	ldr	pc, [ip, #3740]!
    78f0:	e28fc600 	add	ip, pc, #0	; 0x0
    78f4:	e28cca0c 	add	ip, ip, #49152	; 0xc000
    78f8:	e5bcfe94 	ldr	pc, [ip, #3732]!
    78fc:	e28fc600 	add	ip, pc, #0	; 0x0
    7900:	e28cca0c 	add	ip, ip, #49152	; 0xc000
    7904:	e5bcfe8c 	ldr	pc, [ip, #3724]!
    7908:	e28fc600 	add	ip, pc, #0	; 0x0
    790c:	e28cca0c 	add	ip, ip, #49152	; 0xc000
    7910:	e5bcfe84 	ldr	pc, [ip, #3716]!
    7914:	e28fc600 	add	ip, pc, #0	; 0x0
    7918:	e28cca0c 	add	ip, ip, #49152	; 0xc000
    791c:	e5bcfe7c 	ldr	pc, [ip, #3708]!
    7920:	e28fc600 	add	ip, pc, #0	; 0x0
    7924:	e28cca0c 	add	ip, ip, #49152	; 0xc000
    7928:	e5bcfe74 	ldr	pc, [ip, #3700]!
    792c:	e28fc600 	add	ip, pc, #0	; 0x0
    7930:	e28cca0c 	add	ip, ip, #49152	; 0xc000
    7934:	e5bcfe6c 	ldr	pc, [ip, #3692]!
    7938:	e28fc600 	add	ip, pc, #0	; 0x0
    793c:	e28cca0c 	add	ip, ip, #49152	; 0xc000
    7940:	e5bcfe64 	ldr	pc, [ip, #3684]!
    7944:	e28fc600 	add	ip, pc, #0	; 0x0
    7948:	e28cca0c 	add	ip, ip, #49152	; 0xc000
    794c:	e5bcfe5c 	ldr	pc, [ip, #3676]!
    7950:	e28fc600 	add	ip, pc, #0	; 0x0
    7954:	e28cca0c 	add	ip, ip, #49152	; 0xc000
    7958:	e5bcfe54 	ldr	pc, [ip, #3668]!
    795c:	e28fc600 	add	ip, pc, #0	; 0x0
    7960:	e28cca0c 	add	ip, ip, #49152	; 0xc000
    7964:	e5bcfe4c 	ldr	pc, [ip, #3660]!
    7968:	e28fc600 	add	ip, pc, #0	; 0x0
    796c:	e28cca0c 	add	ip, ip, #49152	; 0xc000
    7970:	e5bcfe44 	ldr	pc, [ip, #3652]!
    7974:	e28fc600 	add	ip, pc, #0	; 0x0
    7978:	e28cca0c 	add	ip, ip, #49152	; 0xc000
    797c:	e5bcfe3c 	ldr	pc, [ip, #3644]!
    7980:	e28fc600 	add	ip, pc, #0	; 0x0
    7984:	e28cca0c 	add	ip, ip, #49152	; 0xc000
    7988:	e5bcfe34 	ldr	pc, [ip, #3636]!
    798c:	e28fc600 	add	ip, pc, #0	; 0x0
    7990:	e28cca0c 	add	ip, ip, #49152	; 0xc000
    7994:	e5bcfe2c 	ldr	pc, [ip, #3628]!
    7998:	e28fc600 	add	ip, pc, #0	; 0x0
    799c:	e28cca0c 	add	ip, ip, #49152	; 0xc000
    79a0:	e5bcfe24 	ldr	pc, [ip, #3620]!
    79a4:	e28fc600 	add	ip, pc, #0	; 0x0
    79a8:	e28cca0c 	add	ip, ip, #49152	; 0xc000
    79ac:	e5bcfe1c 	ldr	pc, [ip, #3612]!
    79b0:	e28fc600 	add	ip, pc, #0	; 0x0
    79b4:	e28cca0c 	add	ip, ip, #49152	; 0xc000
    79b8:	e5bcfe14 	ldr	pc, [ip, #3604]!
    79bc:	e28fc600 	add	ip, pc, #0	; 0x0
    79c0:	e28cca0c 	add	ip, ip, #49152	; 0xc000
    79c4:	e5bcfe0c 	ldr	pc, [ip, #3596]!
    79c8:	e28fc600 	add	ip, pc, #0	; 0x0
    79cc:	e28cca0c 	add	ip, ip, #49152	; 0xc000
    79d0:	e5bcfe04 	ldr	pc, [ip, #3588]!
    79d4:	e28fc600 	add	ip, pc, #0	; 0x0
    79d8:	e28cca0c 	add	ip, ip, #49152	; 0xc000
    79dc:	e5bcfdfc 	ldr	pc, [ip, #3580]!
    79e0:	e28fc600 	add	ip, pc, #0	; 0x0
    79e4:	e28cca0c 	add	ip, ip, #49152	; 0xc000
    79e8:	e5bcfdf4 	ldr	pc, [ip, #3572]!
    79ec:	e28fc600 	add	ip, pc, #0	; 0x0
    79f0:	e28cca0c 	add	ip, ip, #49152	; 0xc000
    79f4:	e5bcfdec 	ldr	pc, [ip, #3564]!
    79f8:	e28fc600 	add	ip, pc, #0	; 0x0
    79fc:	e28cca0c 	add	ip, ip, #49152	; 0xc000
    7a00:	e5bcfde4 	ldr	pc, [ip, #3556]!
    7a04:	e28fc600 	add	ip, pc, #0	; 0x0
    7a08:	e28cca0c 	add	ip, ip, #49152	; 0xc000
    7a0c:	e5bcfddc 	ldr	pc, [ip, #3548]!
    7a10:	e28fc600 	add	ip, pc, #0	; 0x0
    7a14:	e28cca0c 	add	ip, ip, #49152	; 0xc000
    7a18:	e5bcfdd4 	ldr	pc, [ip, #3540]!
    7a1c:	e28fc600 	add	ip, pc, #0	; 0x0
    7a20:	e28cca0c 	add	ip, ip, #49152	; 0xc000
    7a24:	e5bcfdcc 	ldr	pc, [ip, #3532]!
    7a28:	e28fc600 	add	ip, pc, #0	; 0x0
    7a2c:	e28cca0c 	add	ip, ip, #49152	; 0xc000
    7a30:	e5bcfdc4 	ldr	pc, [ip, #3524]!
    7a34:	e28fc600 	add	ip, pc, #0	; 0x0
    7a38:	e28cca0c 	add	ip, ip, #49152	; 0xc000
    7a3c:	e5bcfdbc 	ldr	pc, [ip, #3516]!
    7a40:	e28fc600 	add	ip, pc, #0	; 0x0
    7a44:	e28cca0c 	add	ip, ip, #49152	; 0xc000
    7a48:	e5bcfdb4 	ldr	pc, [ip, #3508]!
    7a4c:	e28fc600 	add	ip, pc, #0	; 0x0
    7a50:	e28cca0c 	add	ip, ip, #49152	; 0xc000
    7a54:	e5bcfdac 	ldr	pc, [ip, #3500]!
    7a58:	e28fc600 	add	ip, pc, #0	; 0x0
    7a5c:	e28cca0c 	add	ip, ip, #49152	; 0xc000
    7a60:	e5bcfda4 	ldr	pc, [ip, #3492]!
    7a64:	e28fc600 	add	ip, pc, #0	; 0x0
    7a68:	e28cca0c 	add	ip, ip, #49152	; 0xc000
    7a6c:	e5bcfd9c 	ldr	pc, [ip, #3484]!
    7a70:	e28fc600 	add	ip, pc, #0	; 0x0
    7a74:	e28cca0c 	add	ip, ip, #49152	; 0xc000
    7a78:	e5bcfd94 	ldr	pc, [ip, #3476]!
    7a7c:	e28fc600 	add	ip, pc, #0	; 0x0
    7a80:	e28cca0c 	add	ip, ip, #49152	; 0xc000
    7a84:	e5bcfd8c 	ldr	pc, [ip, #3468]!
    7a88:	e28fc600 	add	ip, pc, #0	; 0x0
    7a8c:	e28cca0c 	add	ip, ip, #49152	; 0xc000
    7a90:	e5bcfd84 	ldr	pc, [ip, #3460]!
    7a94:	e28fc600 	add	ip, pc, #0	; 0x0
    7a98:	e28cca0c 	add	ip, ip, #49152	; 0xc000
    7a9c:	e5bcfd7c 	ldr	pc, [ip, #3452]!
    7aa0:	e28fc600 	add	ip, pc, #0	; 0x0
    7aa4:	e28cca0c 	add	ip, ip, #49152	; 0xc000
    7aa8:	e5bcfd74 	ldr	pc, [ip, #3444]!
    7aac:	e28fc600 	add	ip, pc, #0	; 0x0
    7ab0:	e28cca0c 	add	ip, ip, #49152	; 0xc000
    7ab4:	e5bcfd6c 	ldr	pc, [ip, #3436]!
    7ab8:	e28fc600 	add	ip, pc, #0	; 0x0
    7abc:	e28cca0c 	add	ip, ip, #49152	; 0xc000
    7ac0:	e5bcfd64 	ldr	pc, [ip, #3428]!
    7ac4:	e28fc600 	add	ip, pc, #0	; 0x0
    7ac8:	e28cca0c 	add	ip, ip, #49152	; 0xc000
    7acc:	e5bcfd5c 	ldr	pc, [ip, #3420]!
    7ad0:	e28fc600 	add	ip, pc, #0	; 0x0
    7ad4:	e28cca0c 	add	ip, ip, #49152	; 0xc000
    7ad8:	e5bcfd54 	ldr	pc, [ip, #3412]!
    7adc:	e28fc600 	add	ip, pc, #0	; 0x0
    7ae0:	e28cca0c 	add	ip, ip, #49152	; 0xc000
    7ae4:	e5bcfd4c 	ldr	pc, [ip, #3404]!
    7ae8:	e28fc600 	add	ip, pc, #0	; 0x0
    7aec:	e28cca0c 	add	ip, ip, #49152	; 0xc000
    7af0:	e5bcfd44 	ldr	pc, [ip, #3396]!
    7af4:	e28fc600 	add	ip, pc, #0	; 0x0
    7af8:	e28cca0c 	add	ip, ip, #49152	; 0xc000
    7afc:	e5bcfd3c 	ldr	pc, [ip, #3388]!
    7b00:	e28fc600 	add	ip, pc, #0	; 0x0
    7b04:	e28cca0c 	add	ip, ip, #49152	; 0xc000
    7b08:	e5bcfd34 	ldr	pc, [ip, #3380]!
    7b0c:	e28fc600 	add	ip, pc, #0	; 0x0
    7b10:	e28cca0c 	add	ip, ip, #49152	; 0xc000
    7b14:	e5bcfd2c 	ldr	pc, [ip, #3372]!
    7b18:	e28fc600 	add	ip, pc, #0	; 0x0
    7b1c:	e28cca0c 	add	ip, ip, #49152	; 0xc000
    7b20:	e5bcfd24 	ldr	pc, [ip, #3364]!
    7b24:	e28fc600 	add	ip, pc, #0	; 0x0
    7b28:	e28cca0c 	add	ip, ip, #49152	; 0xc000
    7b2c:	e5bcfd1c 	ldr	pc, [ip, #3356]!
    7b30:	e28fc600 	add	ip, pc, #0	; 0x0
    7b34:	e28cca0c 	add	ip, ip, #49152	; 0xc000
    7b38:	e5bcfd14 	ldr	pc, [ip, #3348]!
    7b3c:	e28fc600 	add	ip, pc, #0	; 0x0
    7b40:	e28cca0c 	add	ip, ip, #49152	; 0xc000
    7b44:	e5bcfd0c 	ldr	pc, [ip, #3340]!
    7b48:	e28fc600 	add	ip, pc, #0	; 0x0
    7b4c:	e28cca0c 	add	ip, ip, #49152	; 0xc000
    7b50:	e5bcfd04 	ldr	pc, [ip, #3332]!
    7b54:	e28fc600 	add	ip, pc, #0	; 0x0
    7b58:	e28cca0c 	add	ip, ip, #49152	; 0xc000
    7b5c:	e5bcfcfc 	ldr	pc, [ip, #3324]!
    7b60:	e28fc600 	add	ip, pc, #0	; 0x0
    7b64:	e28cca0c 	add	ip, ip, #49152	; 0xc000
    7b68:	e5bcfcf4 	ldr	pc, [ip, #3316]!
    7b6c:	e28fc600 	add	ip, pc, #0	; 0x0
    7b70:	e28cca0c 	add	ip, ip, #49152	; 0xc000
    7b74:	e5bcfcec 	ldr	pc, [ip, #3308]!
    7b78:	e28fc600 	add	ip, pc, #0	; 0x0
    7b7c:	e28cca0c 	add	ip, ip, #49152	; 0xc000
    7b80:	e5bcfce4 	ldr	pc, [ip, #3300]!
    7b84:	e28fc600 	add	ip, pc, #0	; 0x0
    7b88:	e28cca0c 	add	ip, ip, #49152	; 0xc000
    7b8c:	e5bcfcdc 	ldr	pc, [ip, #3292]!
    7b90:	e28fc600 	add	ip, pc, #0	; 0x0
    7b94:	e28cca0c 	add	ip, ip, #49152	; 0xc000
    7b98:	e5bcfcd4 	ldr	pc, [ip, #3284]!
    7b9c:	e28fc600 	add	ip, pc, #0	; 0x0
    7ba0:	e28cca0c 	add	ip, ip, #49152	; 0xc000
    7ba4:	e5bcfccc 	ldr	pc, [ip, #3276]!
    7ba8:	e28fc600 	add	ip, pc, #0	; 0x0
    7bac:	e28cca0c 	add	ip, ip, #49152	; 0xc000
    7bb0:	e5bcfcc4 	ldr	pc, [ip, #3268]!
    7bb4:	e28fc600 	add	ip, pc, #0	; 0x0
    7bb8:	e28cca0c 	add	ip, ip, #49152	; 0xc000
    7bbc:	e5bcfcbc 	ldr	pc, [ip, #3260]!
    7bc0:	e28fc600 	add	ip, pc, #0	; 0x0
    7bc4:	e28cca0c 	add	ip, ip, #49152	; 0xc000
    7bc8:	e5bcfcb4 	ldr	pc, [ip, #3252]!
    7bcc:	e28fc600 	add	ip, pc, #0	; 0x0
    7bd0:	e28cca0c 	add	ip, ip, #49152	; 0xc000
    7bd4:	e5bcfcac 	ldr	pc, [ip, #3244]!
    7bd8:	e28fc600 	add	ip, pc, #0	; 0x0
    7bdc:	e28cca0c 	add	ip, ip, #49152	; 0xc000
    7be0:	e5bcfca4 	ldr	pc, [ip, #3236]!
    7be4:	e28fc600 	add	ip, pc, #0	; 0x0
    7be8:	e28cca0c 	add	ip, ip, #49152	; 0xc000
    7bec:	e5bcfc9c 	ldr	pc, [ip, #3228]!
    7bf0:	e28fc600 	add	ip, pc, #0	; 0x0
    7bf4:	e28cca0c 	add	ip, ip, #49152	; 0xc000
    7bf8:	e5bcfc94 	ldr	pc, [ip, #3220]!
    7bfc:	e28fc600 	add	ip, pc, #0	; 0x0
    7c00:	e28cca0c 	add	ip, ip, #49152	; 0xc000
    7c04:	e5bcfc8c 	ldr	pc, [ip, #3212]!
    7c08:	e28fc600 	add	ip, pc, #0	; 0x0
    7c0c:	e28cca0c 	add	ip, ip, #49152	; 0xc000
    7c10:	e5bcfc84 	ldr	pc, [ip, #3204]!
    7c14:	e28fc600 	add	ip, pc, #0	; 0x0
    7c18:	e28cca0c 	add	ip, ip, #49152	; 0xc000
    7c1c:	e5bcfc7c 	ldr	pc, [ip, #3196]!
    7c20:	e28fc600 	add	ip, pc, #0	; 0x0
    7c24:	e28cca0c 	add	ip, ip, #49152	; 0xc000
    7c28:	e5bcfc74 	ldr	pc, [ip, #3188]!
    7c2c:	e28fc600 	add	ip, pc, #0	; 0x0
    7c30:	e28cca0c 	add	ip, ip, #49152	; 0xc000
    7c34:	e5bcfc6c 	ldr	pc, [ip, #3180]!
    7c38:	e28fc600 	add	ip, pc, #0	; 0x0
    7c3c:	e28cca0c 	add	ip, ip, #49152	; 0xc000
    7c40:	e5bcfc64 	ldr	pc, [ip, #3172]!
    7c44:	e28fc600 	add	ip, pc, #0	; 0x0
    7c48:	e28cca0c 	add	ip, ip, #49152	; 0xc000
    7c4c:	e5bcfc5c 	ldr	pc, [ip, #3164]!
    7c50:	e28fc600 	add	ip, pc, #0	; 0x0
    7c54:	e28cca0c 	add	ip, ip, #49152	; 0xc000
    7c58:	e5bcfc54 	ldr	pc, [ip, #3156]!
    7c5c:	e28fc600 	add	ip, pc, #0	; 0x0
    7c60:	e28cca0c 	add	ip, ip, #49152	; 0xc000
    7c64:	e5bcfc4c 	ldr	pc, [ip, #3148]!
    7c68:	e28fc600 	add	ip, pc, #0	; 0x0
    7c6c:	e28cca0c 	add	ip, ip, #49152	; 0xc000
    7c70:	e5bcfc44 	ldr	pc, [ip, #3140]!
    7c74:	e28fc600 	add	ip, pc, #0	; 0x0
    7c78:	e28cca0c 	add	ip, ip, #49152	; 0xc000
    7c7c:	e5bcfc3c 	ldr	pc, [ip, #3132]!
    7c80:	e28fc600 	add	ip, pc, #0	; 0x0
    7c84:	e28cca0c 	add	ip, ip, #49152	; 0xc000
    7c88:	e5bcfc34 	ldr	pc, [ip, #3124]!
    7c8c:	e28fc600 	add	ip, pc, #0	; 0x0
    7c90:	e28cca0c 	add	ip, ip, #49152	; 0xc000
    7c94:	e5bcfc2c 	ldr	pc, [ip, #3116]!
    7c98:	e28fc600 	add	ip, pc, #0	; 0x0
    7c9c:	e28cca0c 	add	ip, ip, #49152	; 0xc000
    7ca0:	e5bcfc24 	ldr	pc, [ip, #3108]!

Disassembly of section .text:

00007ca8 <_ZN7android22QualcommCameraHardware18filterPictureSizesEv-0x44>:
    7ca8:	e28f0004 	add	r0, pc, #4	; 0x4
    7cac:	e5900000 	ldr	r0, [r0]
    7cb0:	eafffff8 	b	7c98 <_ZN7android22QualcommCameraHardware18filterPictureSizesEv-0x54>
    7cb4:	a7914c90 	undefined
    7cb8:	6801b510 	stmdavs	r1, {r4, r8, sl, ip, sp, pc}
    7cbc:	4798694b 	ldrmi	r6, [r8, fp, asr #18]
    7cc0:	bf00bd10 	svclt	0x0000bd10
    7cc4:	47702000 	ldrbmi	r2, [r0, -r0]!
    7cc8:	0015f06f 	andseq	pc, r5, pc, rrx
    7ccc:	bf004770 	svclt	0x00004770
    7cd0:	6980b510 	stmibvs	r0, {r4, r8, sl, ip, sp, pc}
    7cd4:	6801b148 	stmdavs	r1, {r3, r6, r8, ip, sp, pc}
    7cd8:	3c0cf851 	stccc	8, cr15, [ip], {81}
    7cdc:	f7ff18c0 	undefined instruction 0xf7ff18c0
    7ce0:	f1b0ffeb 	undefined instruction 0xf1b0ffeb
    7ce4:	bf1830ff 	svclt	0x001830ff
    7ce8:	bd102001 	ldclt	0, cr2, [r0, #-4]

00007cec <_ZN7android22QualcommCameraHardware18filterPictureSizesEv>:
    7cec:	480f      	ldr	r0, [pc, #60]	(7d2c <_ZN7android22QualcommCameraHardware18filterPictureSizesEv+0x40>)
    7cee:	2300      	movs	r3, #0
    7cf0:	b570      	push	{r4, r5, r6, lr}
    7cf2:	4478      	add	r0, pc
    7cf4:	6800      	ldr	r0, [r0, #0]
    7cf6:	4a0e      	ldr	r2, [pc, #56]	(7d30 <_ZN7android22QualcommCameraHardware18filterPictureSizesEv+0x44>)
    7cf8:	4619      	mov	r1, r3
    7cfa:	6904      	ldr	r4, [r0, #16]
    7cfc:	447a      	add	r2, pc
    7cfe:	58d5      	ldr	r5, [r2, r3]
    7d00:	42a5      	cmp	r5, r4
    7d02:	dc0d      	bgt.n	7d20 <_ZN7android22QualcommCameraHardware18filterPictureSizesEv+0x34>
    7d04:	18d5      	adds	r5, r2, r3
    7d06:	686e      	ldr	r6, [r5, #4]
    7d08:	6945      	ldr	r5, [r0, #20]
    7d0a:	42ae      	cmp	r6, r5
    7d0c:	dc08      	bgt.n	7d20 <_ZN7android22QualcommCameraHardware18filterPictureSizesEv+0x34>
    7d0e:	4b09      	ldr	r3, [pc, #36]	(7d34 <_ZN7android22QualcommCameraHardware18filterPictureSizesEv+0x48>)
    7d10:	eb02 02c1 	add.w	r2, r2, r1, lsl #3
    7d14:	f1c1 010d 	rsb	r1, r1, #13	; 0xd
    7d18:	447b      	add	r3, pc
    7d1a:	605a      	str	r2, [r3, #4]
    7d1c:	6099      	str	r1, [r3, #8]
    7d1e:	e003      	b.n	7d28 <_ZN7android22QualcommCameraHardware18filterPictureSizesEv+0x3c>
    7d20:	3308      	adds	r3, #8
    7d22:	3101      	adds	r1, #1
    7d24:	2b68      	cmp	r3, #104
    7d26:	d1ea      	bne.n	7cfe <_ZN7android22QualcommCameraHardware18filterPictureSizesEv+0x12>
    7d28:	bd70      	pop	{r4, r5, r6, pc}
    7d2a:	bf00      	nop
    7d2c:	cc6a      	ldmia	r4!, {r1, r3, r5, r6}
    7d2e:	0000      	lsls	r0, r0, #0
    7d30:	8530      	strh	r0, [r6, #40]
    7d32:	0000      	lsls	r0, r0, #0
    7d34:	cc44      	ldmia	r4!, {r2, r6}
	...

00007d38 <HAL_getNumberOfCameras>:
    7d38:	2001      	movs	r0, #1
    7d3a:	4770      	bx	lr

00007d3c <HAL_getCameraInfo>:
    7d3c:	f8df c018 	ldr.w	ip, [pc, #24]	; 7d58 <HAL_getCameraInfo+0x1c>
    7d40:	460b      	mov	r3, r1
    7d42:	44fc      	add	ip, pc
    7d44:	eb0c 01c0 	add.w	r1, ip, r0, lsl #3
    7d48:	f111 0268 	adds.w	r2, r1, #104	; 0x68
    7d4c:	e892 0003 	ldmia.w	r2, {r0, r1}
    7d50:	e883 0003 	stmia.w	r3, {r0, r1}
    7d54:	4770      	bx	lr
    7d56:	bf00      	nop
    7d58:	84ea      	strh	r2, [r5, #38]
	...

00007d5c <_ZN7android22QualcommCameraHardware16recordingEnabledEv>:
    7d5c:	f890 3024 	ldrb.w	r3, [r0, #36]
    7d60:	b13b      	cbz	r3, 7d72 <_ZN7android22QualcommCameraHardware16recordingEnabledEv+0x16>
    7d62:	f8d0 11f4 	ldr.w	r1, [r0, #500]
    7d66:	b121      	cbz	r1, 7d72 <_ZN7android22QualcommCameraHardware16recordingEnabledEv+0x16>
    7d68:	f8d0 01e8 	ldr.w	r0, [r0, #488]
    7d6c:	f3c0 1040 	ubfx	r0, r0, #5, #1
    7d70:	e000      	b.n	7d74 <_ZN7android22QualcommCameraHardware16recordingEnabledEv+0x18>
    7d72:	2000      	movs	r0, #0
    7d74:	4770      	bx	lr
    7d76:	bf00      	nop

00007d78 <_ZN7android22QualcommCameraHardware14previewEnabledEv>:
    7d78:	f890 3024 	ldrb.w	r3, [r0, #36]
    7d7c:	b13b      	cbz	r3, 7d8e <_ZN7android22QualcommCameraHardware14previewEnabledEv+0x16>
    7d7e:	f8d0 11f0 	ldr.w	r1, [r0, #496]
    7d82:	b121      	cbz	r1, 7d8e <_ZN7android22QualcommCameraHardware14previewEnabledEv+0x16>
    7d84:	f8d0 01e8 	ldr.w	r0, [r0, #488]
    7d88:	f3c0 1000 	ubfx	r0, r0, #4, #1
    7d8c:	e000      	b.n	7d90 <_ZN7android22QualcommCameraHardware14previewEnabledEv+0x18>
    7d8e:	2000      	movs	r0, #0
    7d90:	4770      	bx	lr
    7d92:	bf00      	nop

00007d94 <_ZN7android22QualcommCameraHardware14msgTypeEnabledEi>:
    7d94:	f8d0 31e8 	ldr.w	r3, [r0, #488]
    7d98:	4219      	tst	r1, r3
    7d9a:	bf0c      	ite	eq
    7d9c:	2000      	moveq	r0, #0
    7d9e:	2001      	movne	r0, #1
    7da0:	4770      	bx	lr
    7da2:	bf00      	nop

00007da4 <_ZN7android22QualcommCameraHardware16isValidDimensionEii>:
    7da4:	f021 030f 	bic.w	r3, r1, #15	; 0xf
    7da8:	4299      	cmp	r1, r3
    7daa:	b510      	push	{r4, lr}
    7dac:	d128      	bne.n	7e00 <_ZN7android22QualcommCameraHardware16isValidDimensionEii+0x5c>
    7dae:	f022 000f 	bic.w	r0, r2, #15	; 0xf
    7db2:	4282      	cmp	r2, r0
    7db4:	d124      	bne.n	7e00 <_ZN7android22QualcommCameraHardware16isValidDimensionEii+0x5c>
    7db6:	4b14      	ldr	r3, [pc, #80]	(7e08 <_ZN7android22QualcommCameraHardware16isValidDimensionEii+0x64>)
    7db8:	447b      	add	r3, pc
    7dba:	681b      	ldr	r3, [r3, #0]
    7dbc:	6918      	ldr	r0, [r3, #16]
    7dbe:	4281      	cmp	r1, r0
    7dc0:	dc1e      	bgt.n	7e00 <_ZN7android22QualcommCameraHardware16isValidDimensionEii+0x5c>
    7dc2:	695b      	ldr	r3, [r3, #20]
    7dc4:	429a      	cmp	r2, r3
    7dc6:	dc1b      	bgt.n	7e00 <_ZN7android22QualcommCameraHardware16isValidDimensionEii+0x5c>
    7dc8:	0308      	lsls	r0, r1, #12
    7dca:	4611      	mov	r1, r2
    7dcc:	f7ff ecc4 	blx	7758 <_ZN7android22QualcommCameraHardware18filterPictureSizesEv-0x594>
    7dd0:	f641 4371 	movw	r3, #7281	; 0x1c71
    7dd4:	4298      	cmp	r0, r3
    7dd6:	d015      	beq.n	7e04 <_ZN7android22QualcommCameraHardware16isValidDimensionEii+0x60>
    7dd8:	f5a3 72e2 	sub.w	r2, r3, #452	; 0x1c4
    7ddc:	1ed1      	subs	r1, r2, #3
    7dde:	4288      	cmp	r0, r1
    7de0:	d010      	beq.n	7e04 <_ZN7android22QualcommCameraHardware16isValidDimensionEii+0x60>
    7de2:	f5b0 5fc0 	cmp.w	r0, #6144	; 0x1800
    7de6:	d00d      	beq.n	7e04 <_ZN7android22QualcommCameraHardware16isValidDimensionEii+0x60>
    7de8:	f241 5355 	movw	r3, #5461	; 0x1555
    7dec:	4298      	cmp	r0, r3
    7dee:	d009      	beq.n	7e04 <_ZN7android22QualcommCameraHardware16isValidDimensionEii+0x60>
    7df0:	f5a3 71e2 	sub.w	r1, r3, #452	; 0x1c4
    7df4:	1ecb      	subs	r3, r1, #3
    7df6:	4298      	cmp	r0, r3
    7df8:	bf14      	ite	ne
    7dfa:	2000      	movne	r0, #0
    7dfc:	2001      	moveq	r0, #1
    7dfe:	e002      	b.n	7e06 <_ZN7android22QualcommCameraHardware16isValidDimensionEii+0x62>
    7e00:	2000      	movs	r0, #0
    7e02:	e000      	b.n	7e06 <_ZN7android22QualcommCameraHardware16isValidDimensionEii+0x62>
    7e04:	2001      	movs	r0, #1
    7e06:	bd10      	pop	{r4, pc}
    7e08:	cba4      	ldmia	r3!, {r2, r5, r7}
    7e0a:	0000      	lsls	r0, r0, #0
    7e0c:	4b08      	ldr	r3, [pc, #32]	(7e30 <_ZN7android22QualcommCameraHardware16isValidDimensionEii+0x8c>)
    7e0e:	b510      	push	{r4, lr}
    7e10:	4604      	mov	r4, r0
    7e12:	4808      	ldr	r0, [pc, #32]	(7e34 <_ZN7android22QualcommCameraHardware16isValidDimensionEii+0x90>)
    7e14:	447b      	add	r3, pc
    7e16:	5819      	ldr	r1, [r3, r0]
    7e18:	4620      	mov	r0, r4
    7e1a:	f101 030c 	add.w	r3, r1, #12	; 0xc
    7e1e:	f111 0290 	adds.w	r2, r1, #144	; 0x90
    7e22:	f840 3b04 	str.w	r3, [r0], #4
    7e26:	6062      	str	r2, [r4, #4]
    7e28:	f7ff ec9c 	blx	7764 <_ZN7android22QualcommCameraHardware18filterPictureSizesEv-0x588>
    7e2c:	4620      	mov	r0, r4
    7e2e:	bd10      	pop	{r4, pc}
    7e30:	c8e0      	ldmia	r0!, {r5, r6, r7}
    7e32:	0000      	lsls	r0, r0, #0
    7e34:	fe78 ffff 	mrc2	15, 3, pc, cr8, cr15, {7}

00007e38 <_ZTv0_n12_N7android23CameraHardwareInterfaceD1Ev>:
    7e38:	b510      	push	{r4, lr}
    7e3a:	6801      	ldr	r1, [r0, #0]
    7e3c:	f851 3c0c 	ldr.w	r3, [r1, #-12]
    7e40:	18c0      	adds	r0, r0, r3
    7e42:	f7ff ffe3 	bl	7e0c <_ZN7android22QualcommCameraHardware16isValidDimensionEii+0x68>
    7e46:	bd10      	pop	{r4, pc}
    7e48:	b510      	push	{r4, lr}
    7e4a:	4604      	mov	r4, r0
    7e4c:	f7ff ffde 	bl	7e0c <_ZN7android22QualcommCameraHardware16isValidDimensionEii+0x68>
    7e50:	4620      	mov	r0, r4
    7e52:	f7ff ec8e 	blx	7770 <_ZN7android22QualcommCameraHardware18filterPictureSizesEv-0x57c>
    7e56:	4620      	mov	r0, r4
    7e58:	bd10      	pop	{r4, pc}
    7e5a:	bf00      	nop

00007e5c <_ZTv0_n12_N7android23CameraHardwareInterfaceD0Ev>:
    7e5c:	b510      	push	{r4, lr}
    7e5e:	6801      	ldr	r1, [r0, #0]
    7e60:	f851 3c0c 	ldr.w	r3, [r1, #-12]
    7e64:	18c0      	adds	r0, r0, r3
    7e66:	f7ff ffef 	bl	7e48 <_ZTv0_n12_N7android23CameraHardwareInterfaceD1Ev+0x10>
    7e6a:	bd10      	pop	{r4, pc}

00007e6c <_ZNK7android12SortedVectorINS_16key_value_pair_tINS_7String8ES2_EEE12do_constructEPvj>:
    7e6c:	b570      	push	{r4, r5, r6, lr}
    7e6e:	4615      	mov	r5, r2
    7e70:	460c      	mov	r4, r1
    7e72:	e009      	b.n	7e88 <_ZNK7android12SortedVectorINS_16key_value_pair_tINS_7String8ES2_EEE12do_constructEPvj+0x1c>
    7e74:	4620      	mov	r0, r4
    7e76:	f104 0608 	add.w	r6, r4, #8	; 0x8
    7e7a:	f7ff ec80 	blx	777c <_ZN7android22QualcommCameraHardware18filterPictureSizesEv-0x570>
    7e7e:	1d20      	adds	r0, r4, #4
    7e80:	f7ff ec7c 	blx	777c <_ZN7android22QualcommCameraHardware18filterPictureSizesEv-0x570>
    7e84:	3d01      	subs	r5, #1
    7e86:	4634      	mov	r4, r6
    7e88:	2d00      	cmp	r5, #0
    7e8a:	d1f3      	bne.n	7e74 <_ZNK7android12SortedVectorINS_16key_value_pair_tINS_7String8ES2_EEE12do_constructEPvj+0x8>
    7e8c:	bd70      	pop	{r4, r5, r6, pc}
    7e8e:	bf00      	nop
    7e90:	b510      	push	{r4, lr}
    7e92:	4604      	mov	r4, r0
    7e94:	3004      	adds	r0, #4
    7e96:	f7ff ec78 	blx	7788 <_ZN7android22QualcommCameraHardware18filterPictureSizesEv-0x564>
    7e9a:	4620      	mov	r0, r4
    7e9c:	f7ff ec74 	blx	7788 <_ZN7android22QualcommCameraHardware18filterPictureSizesEv-0x564>
    7ea0:	4620      	mov	r0, r4
    7ea2:	bd10      	pop	{r4, pc}

00007ea4 <_ZNK7android12SortedVectorINS_16key_value_pair_tINS_7String8ES2_EEE10do_destroyEPvj>:
    7ea4:	b570      	push	{r4, r5, r6, lr}
    7ea6:	4615      	mov	r5, r2
    7ea8:	460c      	mov	r4, r1
    7eaa:	e004      	b.n	7eb6 <_ZNK7android12SortedVectorINS_16key_value_pair_tINS_7String8ES2_EEE10do_destroyEPvj+0x12>
    7eac:	4620      	mov	r0, r4
    7eae:	3d01      	subs	r5, #1
    7eb0:	f7ff ffee 	bl	7e90 <_ZNK7android12SortedVectorINS_16key_value_pair_tINS_7String8ES2_EEE12do_constructEPvj+0x24>
    7eb4:	3408      	adds	r4, #8
    7eb6:	2d00      	cmp	r5, #0
    7eb8:	d1f8      	bne.n	7eac <_ZNK7android12SortedVectorINS_16key_value_pair_tINS_7String8ES2_EEE10do_destroyEPvj+0x8>
    7eba:	bd70      	pop	{r4, r5, r6, pc}
    7ebc:	b510      	push	{r4, lr}
    7ebe:	2100      	movs	r1, #0
    7ec0:	4604      	mov	r4, r0
    7ec2:	f7ff ec68 	blx	7794 <_ZN7android22QualcommCameraHardware18filterPictureSizesEv-0x558>
    7ec6:	4620      	mov	r0, r4
    7ec8:	bd10      	pop	{r4, pc}
    7eca:	bf00      	nop
    7ecc:	b510      	push	{r4, lr}
    7ece:	2100      	movs	r1, #0
    7ed0:	4604      	mov	r4, r0
    7ed2:	f7ff ec66 	blx	77a0 <_ZN7android22QualcommCameraHardware18filterPictureSizesEv-0x54c>
    7ed6:	4620      	mov	r0, r4
    7ed8:	bd10      	pop	{r4, pc}
    7eda:	bf00      	nop

00007edc <_ZN7android2wpINS_22QualcommCameraHardwareEED1Ev>:
    7edc:	b510      	push	{r4, lr}
    7ede:	6803      	ldr	r3, [r0, #0]
    7ee0:	4604      	mov	r4, r0
    7ee2:	b11b      	cbz	r3, 7eec <_ZN7android2wpINS_22QualcommCameraHardwareEED1Ev+0x10>
    7ee4:	6840      	ldr	r0, [r0, #4]
    7ee6:	4621      	mov	r1, r4
    7ee8:	f7ff ec60 	blx	77ac <_ZN7android22QualcommCameraHardware18filterPictureSizesEv-0x540>
    7eec:	4620      	mov	r0, r4
    7eee:	bd10      	pop	{r4, pc}
    7ef0:	b510      	push	{r4, lr}
    7ef2:	4604      	mov	r4, r0
    7ef4:	f7ff ec60 	blx	77b8 <_ZN7android22QualcommCameraHardware18filterPictureSizesEv-0x534>
    7ef8:	4620      	mov	r0, r4
    7efa:	bd10      	pop	{r4, pc}
    7efc:	b510      	push	{r4, lr}
    7efe:	4604      	mov	r4, r0
    7f00:	f7ff ec60 	blx	77c4 <_ZN7android22QualcommCameraHardware18filterPictureSizesEv-0x528>
    7f04:	4620      	mov	r0, r4
    7f06:	bd10      	pop	{r4, pc}

00007f08 <_ZN7android22QualcommCameraHardware10useOverlayEv>:
    7f08:	4b0e      	ldr	r3, [pc, #56]	(7f44 <_ZN7android22QualcommCameraHardware10useOverlayEv+0x3c>)
    7f0a:	b510      	push	{r4, lr}
    7f0c:	447b      	add	r3, pc
    7f0e:	681b      	ldr	r3, [r3, #0]
    7f10:	2b03      	cmp	r3, #3
    7f12:	4604      	mov	r4, r0
    7f14:	d101      	bne.n	7f1a <_ZN7android22QualcommCameraHardware10useOverlayEv+0x12>
    7f16:	2301      	movs	r3, #1
    7f18:	e000      	b.n	7f1c <_ZN7android22QualcommCameraHardware10useOverlayEv+0x14>
    7f1a:	2300      	movs	r3, #0
    7f1c:	f884 31e1 	strb.w	r3, [r4, #481]
    7f20:	f894 01e1 	ldrb.w	r0, [r4, #481]
    7f24:	b910      	cbnz	r0, 7f2c <_ZN7android22QualcommCameraHardware10useOverlayEv+0x24>
    7f26:	4b08      	ldr	r3, [pc, #32]	(7f48 <_ZN7android22QualcommCameraHardware10useOverlayEv+0x40>)
    7f28:	447b      	add	r3, pc
    7f2a:	e001      	b.n	7f30 <_ZN7android22QualcommCameraHardware10useOverlayEv+0x28>
    7f2c:	4b07      	ldr	r3, [pc, #28]	(7f4c <_ZN7android22QualcommCameraHardware10useOverlayEv+0x44>)
    7f2e:	447b      	add	r3, pc
    7f30:	4907      	ldr	r1, [pc, #28]	(7f50 <_ZN7android22QualcommCameraHardware10useOverlayEv+0x48>)
    7f32:	2002      	movs	r0, #2
    7f34:	4a07      	ldr	r2, [pc, #28]	(7f54 <_ZN7android22QualcommCameraHardware10useOverlayEv+0x4c>)
    7f36:	4479      	add	r1, pc
    7f38:	447a      	add	r2, pc
    7f3a:	f7ff ec4a 	blx	77d0 <_ZN7android22QualcommCameraHardware18filterPictureSizesEv-0x51c>
    7f3e:	f894 01e1 	ldrb.w	r0, [r4, #481]
    7f42:	bd10      	pop	{r4, pc}
    7f44:	c9b8      	ldmia	r1!, {r3, r4, r5, r7}
    7f46:	0000      	lsls	r0, r0, #0
    7f48:	8460      	strh	r0, [r4, #34]
    7f4a:	0000      	lsls	r0, r0, #0
    7f4c:	845d      	strh	r5, [r3, #34]
    7f4e:	0000      	lsls	r0, r0, #0
    7f50:	8459      	strh	r1, [r3, #34]
    7f52:	0000      	lsls	r0, r0, #0
    7f54:	846e      	strh	r6, [r5, #34]
	...

00007f58 <_ZN7android22QualcommCameraHardware11sendCommandEiii>:
    7f58:	4905      	ldr	r1, [pc, #20]	(7f70 <_ZN7android22QualcommCameraHardware11sendCommandEiii+0x18>)
    7f5a:	2002      	movs	r0, #2
    7f5c:	4a05      	ldr	r2, [pc, #20]	(7f74 <_ZN7android22QualcommCameraHardware11sendCommandEiii+0x1c>)
    7f5e:	b510      	push	{r4, lr}
    7f60:	4479      	add	r1, pc
    7f62:	447a      	add	r2, pc
    7f64:	f7ff ec34 	blx	77d0 <_ZN7android22QualcommCameraHardware18filterPictureSizesEv-0x51c>
    7f68:	f06f 0015 	mvn.w	r0, #21	; 0x15
    7f6c:	bd10      	pop	{r4, pc}
    7f6e:	bf00      	nop
    7f70:	842f      	strh	r7, [r5, #32]
    7f72:	0000      	lsls	r0, r0, #0
    7f74:	8459      	strh	r1, [r3, #34]
	...

00007f78 <_ZN7android22QualcommCameraHardware13deinitPreviewEv>:
    7f78:	b570      	push	{r4, r5, r6, lr}
    7f7a:	4c0a      	ldr	r4, [pc, #40]	(7fa4 <_ZN7android22QualcommCameraHardware13deinitPreviewEv+0x2c>)
    7f7c:	4a0a      	ldr	r2, [pc, #40]	(7fa8 <_ZN7android22QualcommCameraHardware13deinitPreviewEv+0x30>)
    7f7e:	2004      	movs	r0, #4
    7f80:	447c      	add	r4, pc
    7f82:	4d0a      	ldr	r5, [pc, #40]	(7fac <_ZN7android22QualcommCameraHardware13deinitPreviewEv+0x34>)
    7f84:	447a      	add	r2, pc
    7f86:	4621      	mov	r1, r4
    7f88:	f7ff ec22 	blx	77d0 <_ZN7android22QualcommCameraHardware18filterPictureSizesEv-0x51c>
    7f8c:	4908      	ldr	r1, [pc, #32]	(7fb0 <_ZN7android22QualcommCameraHardware13deinitPreviewEv+0x38>)
    7f8e:	447d      	add	r5, pc
    7f90:	5868      	ldr	r0, [r5, r1]
    7f92:	6803      	ldr	r3, [r0, #0]
    7f94:	4798      	blx	r3
    7f96:	4a07      	ldr	r2, [pc, #28]	(7fb4 <_ZN7android22QualcommCameraHardware13deinitPreviewEv+0x3c>)
    7f98:	2004      	movs	r0, #4
    7f9a:	4621      	mov	r1, r4
    7f9c:	447a      	add	r2, pc
    7f9e:	f7ff ec18 	blx	77d0 <_ZN7android22QualcommCameraHardware18filterPictureSizesEv-0x51c>
    7fa2:	bd70      	pop	{r4, r5, r6, pc}
    7fa4:	840f      	strh	r7, [r1, #32]
    7fa6:	0000      	lsls	r0, r0, #0
    7fa8:	8447      	strh	r7, [r0, #34]
    7faa:	0000      	lsls	r0, r0, #0
    7fac:	c766      	stmia	r7!, {r1, r2, r5, r6}
    7fae:	0000      	lsls	r0, r0, #0
    7fb0:	fe7c ffff 	mrc2	15, 3, pc, cr12, cr15, {7}
    7fb4:	843f      	strh	r7, [r7, #32]
    7fb6:	0000      	lsls	r0, r0, #0
    7fb8:	b510      	push	{r4, lr}
    7fba:	4c07      	ldr	r4, [pc, #28]	(7fd8 <_ZN7android22QualcommCameraHardware13deinitPreviewEv+0x60>)
    7fbc:	4a07      	ldr	r2, [pc, #28]	(7fdc <_ZN7android22QualcommCameraHardware13deinitPreviewEv+0x64>)
    7fbe:	2002      	movs	r0, #2
    7fc0:	447c      	add	r4, pc
    7fc2:	4621      	mov	r1, r4
    7fc4:	447a      	add	r2, pc
    7fc6:	f7ff ec04 	blx	77d0 <_ZN7android22QualcommCameraHardware18filterPictureSizesEv-0x51c>
    7fca:	4a05      	ldr	r2, [pc, #20]	(7fe0 <_ZN7android22QualcommCameraHardware13deinitPreviewEv+0x68>)
    7fcc:	2002      	movs	r0, #2
    7fce:	4621      	mov	r1, r4
    7fd0:	447a      	add	r2, pc
    7fd2:	f7ff ebfe 	blx	77d0 <_ZN7android22QualcommCameraHardware18filterPictureSizesEv-0x51c>
    7fd6:	bd10      	pop	{r4, pc}
    7fd8:	83cf      	strh	r7, [r1, #30]
    7fda:	0000      	lsls	r0, r0, #0
    7fdc:	8427      	strh	r7, [r4, #32]
    7fde:	0000      	lsls	r0, r0, #0
    7fe0:	8437      	strh	r7, [r6, #32]
	...

00007fe4 <_Z7dequeueP10fifo_queue>:
    7fe4:	b537      	push	{r0, r1, r2, r4, r5, lr}
    7fe6:	6803      	ldr	r3, [r0, #0]
    7fe8:	4604      	mov	r4, r0
    7fea:	461d      	mov	r5, r3
    7fec:	b19b      	cbz	r3, 8016 <_Z7dequeueP10fifo_queue+0x32>
    7fee:	6885      	ldr	r5, [r0, #8]
    7ff0:	2006      	movs	r0, #6
    7ff2:	490a      	ldr	r1, [pc, #40]	(801c <_Z7dequeueP10fifo_queue+0x38>)
    7ff4:	4a0a      	ldr	r2, [pc, #40]	(8020 <_Z7dequeueP10fifo_queue+0x3c>)
    7ff6:	4479      	add	r1, pc
    7ff8:	9300      	str	r3, [sp, #0]
    7ffa:	447a      	add	r2, pc
    7ffc:	462b      	mov	r3, r5
    7ffe:	f7ff ebe8 	blx	77d0 <_ZN7android22QualcommCameraHardware18filterPictureSizesEv-0x51c>
    8002:	6823      	ldr	r3, [r4, #0]
    8004:	68a0      	ldr	r0, [r4, #8]
    8006:	1e5a      	subs	r2, r3, #1
    8008:	6022      	str	r2, [r4, #0]
    800a:	1e11      	subs	r1, r2, #0
    800c:	bf18      	it	ne
    800e:	2101      	movne	r1, #1
    8010:	6061      	str	r1, [r4, #4]
    8012:	6843      	ldr	r3, [r0, #4]
    8014:	60a3      	str	r3, [r4, #8]
    8016:	4628      	mov	r0, r5
    8018:	bd3e      	pop	{r1, r2, r3, r4, r5, pc}
    801a:	bf00      	nop
    801c:	8399      	strh	r1, [r3, #28]
    801e:	0000      	lsls	r0, r0, #0
    8020:	8429      	strh	r1, [r5, #32]
	...

00008024 <_Z7enqueueP10fifo_queueP9fifo_node>:
    8024:	b573      	push	{r0, r1, r4, r5, r6, lr}
    8026:	6803      	ldr	r3, [r0, #0]
    8028:	460d      	mov	r5, r1
    802a:	4a11      	ldr	r2, [pc, #68]	(8070 <_Z7enqueueP10fifo_queueP9fifo_node+0x4c>)
    802c:	4911      	ldr	r1, [pc, #68]	(8074 <_Z7enqueueP10fifo_queueP9fifo_node+0x50>)
    802e:	4604      	mov	r4, r0
    8030:	6886      	ldr	r6, [r0, #8]
    8032:	447a      	add	r2, pc
    8034:	9300      	str	r3, [sp, #0]
    8036:	4479      	add	r1, pc
    8038:	462b      	mov	r3, r5
    803a:	2006      	movs	r0, #6
    803c:	f7ff ebc8 	blx	77d0 <_ZN7android22QualcommCameraHardware18filterPictureSizesEv-0x51c>
    8040:	2200      	movs	r2, #0
    8042:	606a      	str	r2, [r5, #4]
    8044:	6823      	ldr	r3, [r4, #0]
    8046:	b923      	cbnz	r3, 8052 <_Z7enqueueP10fifo_queueP9fifo_node+0x2e>
    8048:	1c58      	adds	r0, r3, #1
    804a:	60a5      	str	r5, [r4, #8]
    804c:	6020      	str	r0, [r4, #0]
    804e:	6060      	str	r0, [r4, #4]
    8050:	e00c      	b.n	806c <_Z7enqueueP10fifo_queueP9fifo_node+0x48>
    8052:	1c58      	adds	r0, r3, #1
    8054:	3b01      	subs	r3, #1
    8056:	1e01      	subs	r1, r0, #0
    8058:	bf18      	it	ne
    805a:	2101      	movne	r1, #1
    805c:	6020      	str	r0, [r4, #0]
    805e:	6061      	str	r1, [r4, #4]
    8060:	e001      	b.n	8066 <_Z7enqueueP10fifo_queueP9fifo_node+0x42>
    8062:	6876      	ldr	r6, [r6, #4]
    8064:	3201      	adds	r2, #1
    8066:	429a      	cmp	r2, r3
    8068:	dbfb      	blt.n	8062 <_Z7enqueueP10fifo_queueP9fifo_node+0x3e>
    806a:	6075      	str	r5, [r6, #4]
    806c:	bd7c      	pop	{r2, r3, r4, r5, r6, pc}
    806e:	bf00      	nop
    8070:	8401      	strh	r1, [r0, #32]
    8072:	0000      	lsls	r0, r0, #0
    8074:	8359      	strh	r1, [r3, #26]
	...

00008078 <_ZN7android2spINS_14MemoryHeapBaseEEC1EPS1_>:
    8078:	b510      	push	{r4, lr}
    807a:	4604      	mov	r4, r0
    807c:	6001      	str	r1, [r0, #0]
    807e:	b131      	cbz	r1, 808e <_ZN7android2spINS_14MemoryHeapBaseEEC1EPS1_+0x16>
    8080:	680b      	ldr	r3, [r1, #0]
    8082:	f853 0c10 	ldr.w	r0, [r3, #-16]
    8086:	1808      	adds	r0, r1, r0
    8088:	4621      	mov	r1, r4
    808a:	f7ff eba8 	blx	77dc <_ZN7android22QualcommCameraHardware18filterPictureSizesEv-0x510>
    808e:	4620      	mov	r0, r4
    8090:	bd10      	pop	{r4, pc}
    8092:	bf00      	nop

00008094 <_ZN7android2spINS_11IMemoryHeapEEC1INS_14MemoryHeapBaseEEERKNS0_IT_EE>:
    8094:	b510      	push	{r4, lr}
    8096:	680b      	ldr	r3, [r1, #0]
    8098:	4604      	mov	r4, r0
    809a:	b11b      	cbz	r3, 80a4 <_ZN7android2spINS_11IMemoryHeapEEC1INS_14MemoryHeapBaseEEERKNS0_IT_EE+0x10>
    809c:	6818      	ldr	r0, [r3, #0]
    809e:	f850 2c0c 	ldr.w	r2, [r0, #-12]
    80a2:	189b      	adds	r3, r3, r2
    80a4:	6023      	str	r3, [r4, #0]
    80a6:	b133      	cbz	r3, 80b6 <_ZN7android2spINS_11IMemoryHeapEEC1INS_14MemoryHeapBaseEEERKNS0_IT_EE+0x22>
    80a8:	681a      	ldr	r2, [r3, #0]
    80aa:	f852 1c0c 	ldr.w	r1, [r2, #-12]
    80ae:	1858      	adds	r0, r3, r1
    80b0:	4621      	mov	r1, r4
    80b2:	f7ff eb94 	blx	77dc <_ZN7android22QualcommCameraHardware18filterPictureSizesEv-0x510>
    80b6:	4620      	mov	r0, r4
    80b8:	bd10      	pop	{r4, pc}
    80ba:	bf00      	nop

000080bc <_ZN7android2spINS_7IMemoryEEC1INS_10MemoryBaseEEERKNS0_IT_EE>:
    80bc:	b510      	push	{r4, lr}
    80be:	680b      	ldr	r3, [r1, #0]
    80c0:	4604      	mov	r4, r0
    80c2:	6003      	str	r3, [r0, #0]
    80c4:	b133      	cbz	r3, 80d4 <_ZN7android2spINS_7IMemoryEEC1INS_10MemoryBaseEEERKNS0_IT_EE+0x18>
    80c6:	681a      	ldr	r2, [r3, #0]
    80c8:	4621      	mov	r1, r4
    80ca:	f852 0c0c 	ldr.w	r0, [r2, #-12]
    80ce:	1818      	adds	r0, r3, r0
    80d0:	f7ff eb84 	blx	77dc <_ZN7android22QualcommCameraHardware18filterPictureSizesEv-0x510>
    80d4:	4620      	mov	r0, r4
    80d6:	bd10      	pop	{r4, pc}

000080d8 <_ZN7android2spINS_7IMemoryEEaSINS_10MemoryBaseEEERS2_RKNS0_IT_EE>:
    80d8:	b570      	push	{r4, r5, r6, lr}
    80da:	680d      	ldr	r5, [r1, #0]
    80dc:	4604      	mov	r4, r0
    80de:	b135      	cbz	r5, 80ee <_ZN7android2spINS_7IMemoryEEaSINS_10MemoryBaseEEERS2_RKNS0_IT_EE+0x16>
    80e0:	682b      	ldr	r3, [r5, #0]
    80e2:	4621      	mov	r1, r4
    80e4:	f853 0c0c 	ldr.w	r0, [r3, #-12]
    80e8:	1828      	adds	r0, r5, r0
    80ea:	f7ff eb78 	blx	77dc <_ZN7android22QualcommCameraHardware18filterPictureSizesEv-0x510>
    80ee:	6823      	ldr	r3, [r4, #0]
    80f0:	b133      	cbz	r3, 8100 <_ZN7android2spINS_7IMemoryEEaSINS_10MemoryBaseEEERS2_RKNS0_IT_EE+0x28>
    80f2:	681a      	ldr	r2, [r3, #0]
    80f4:	f852 1c0c 	ldr.w	r1, [r2, #-12]
    80f8:	1858      	adds	r0, r3, r1
    80fa:	4621      	mov	r1, r4
    80fc:	f7ff eb74 	blx	77e8 <_ZN7android22QualcommCameraHardware18filterPictureSizesEv-0x504>
    8100:	6025      	str	r5, [r4, #0]
    8102:	4620      	mov	r0, r4
    8104:	bd70      	pop	{r4, r5, r6, pc}
    8106:	bf00      	nop

00008108 <_ZN7android2spINS_7OverlayEEaSERKS2_>:
    8108:	b570      	push	{r4, r5, r6, lr}
    810a:	680d      	ldr	r5, [r1, #0]
    810c:	4604      	mov	r4, r0
    810e:	b135      	cbz	r5, 811e <_ZN7android2spINS_7OverlayEEaSERKS2_+0x16>
    8110:	682b      	ldr	r3, [r5, #0]
    8112:	4621      	mov	r1, r4
    8114:	f853 0c0c 	ldr.w	r0, [r3, #-12]
    8118:	1828      	adds	r0, r5, r0
    811a:	f7ff eb60 	blx	77dc <_ZN7android22QualcommCameraHardware18filterPictureSizesEv-0x510>
    811e:	6823      	ldr	r3, [r4, #0]
    8120:	b133      	cbz	r3, 8130 <_ZN7android2spINS_7OverlayEEaSERKS2_+0x28>
    8122:	681a      	ldr	r2, [r3, #0]
    8124:	f852 1c0c 	ldr.w	r1, [r2, #-12]
    8128:	1858      	adds	r0, r3, r1
    812a:	4621      	mov	r1, r4
    812c:	f7ff eb5c 	blx	77e8 <_ZN7android22QualcommCameraHardware18filterPictureSizesEv-0x504>
    8130:	6025      	str	r5, [r4, #0]
    8132:	4620      	mov	r0, r4
    8134:	bd70      	pop	{r4, r5, r6, pc}
    8136:	bf00      	nop

00008138 <_ZN7android2spINS_14MemoryHeapBaseEE5clearEv>:
    8138:	b510      	push	{r4, lr}
    813a:	6803      	ldr	r3, [r0, #0]
    813c:	4604      	mov	r4, r0
    813e:	b143      	cbz	r3, 8152 <_ZN7android2spINS_14MemoryHeapBaseEE5clearEv+0x1a>
    8140:	681a      	ldr	r2, [r3, #0]
    8142:	4621      	mov	r1, r4
    8144:	f852 0c10 	ldr.w	r0, [r2, #-16]
    8148:	1818      	adds	r0, r3, r0
    814a:	f7ff eb4e 	blx	77e8 <_ZN7android22QualcommCameraHardware18filterPictureSizesEv-0x504>
    814e:	2300      	movs	r3, #0
    8150:	6023      	str	r3, [r4, #0]
    8152:	bd10      	pop	{r4, pc}

00008154 <_ZN7android2spINS_14MemoryHeapBaseEED1Ev>:
    8154:	b510      	push	{r4, lr}
    8156:	6803      	ldr	r3, [r0, #0]
    8158:	4604      	mov	r4, r0
    815a:	b133      	cbz	r3, 816a <_ZN7android2spINS_14MemoryHeapBaseEED1Ev+0x16>
    815c:	681a      	ldr	r2, [r3, #0]
    815e:	4621      	mov	r1, r4
    8160:	f852 0c10 	ldr.w	r0, [r2, #-16]
    8164:	1818      	adds	r0, r3, r0
    8166:	f7ff eb40 	blx	77e8 <_ZN7android22QualcommCameraHardware18filterPictureSizesEv-0x504>
    816a:	4620      	mov	r0, r4
    816c:	bd10      	pop	{r4, pc}
    816e:	bf00      	nop

00008170 <_ZNK7android22QualcommCameraHardware14getPreviewHeapEv>:
    8170:	b537      	push	{r0, r1, r2, r4, r5, lr}
    8172:	460d      	mov	r5, r1
    8174:	4a10      	ldr	r2, [pc, #64]	(81b8 <_ZNK7android22QualcommCameraHardware14getPreviewHeapEv+0x48>)
    8176:	4604      	mov	r4, r0
    8178:	4910      	ldr	r1, [pc, #64]	(81bc <_ZNK7android22QualcommCameraHardware14getPreviewHeapEv+0x4c>)
    817a:	2002      	movs	r0, #2
    817c:	447a      	add	r2, pc
    817e:	4479      	add	r1, pc
    8180:	f7ff eb26 	blx	77d0 <_ZN7android22QualcommCameraHardware18filterPictureSizesEv-0x51c>
    8184:	6b29      	ldr	r1, [r5, #48]
    8186:	b151      	cbz	r1, 819e <_ZNK7android22QualcommCameraHardware14getPreviewHeapEv+0x2e>
    8188:	698b      	ldr	r3, [r1, #24]
    818a:	9301      	str	r3, [sp, #4]
    818c:	b153      	cbz	r3, 81a4 <_ZNK7android22QualcommCameraHardware14getPreviewHeapEv+0x34>
    818e:	681a      	ldr	r2, [r3, #0]
    8190:	a901      	add	r1, sp, #4
    8192:	f852 0c10 	ldr.w	r0, [r2, #-16]
    8196:	1818      	adds	r0, r3, r0
    8198:	f7ff eb20 	blx	77dc <_ZN7android22QualcommCameraHardware18filterPictureSizesEv-0x510>
    819c:	e002      	b.n	81a4 <_ZNK7android22QualcommCameraHardware14getPreviewHeapEv+0x34>
    819e:	a801      	add	r0, sp, #4
    81a0:	f7ff ff6a 	bl	8078 <_ZN7android2spINS_14MemoryHeapBaseEEC1EPS1_>
    81a4:	ad01      	add	r5, sp, #4
    81a6:	4620      	mov	r0, r4
    81a8:	4629      	mov	r1, r5
    81aa:	f7ff ff73 	bl	8094 <_ZN7android2spINS_11IMemoryHeapEEC1INS_14MemoryHeapBaseEEERKNS0_IT_EE>
    81ae:	4628      	mov	r0, r5
    81b0:	f7ff ffd0 	bl	8154 <_ZN7android2spINS_14MemoryHeapBaseEED1Ev>
    81b4:	4620      	mov	r0, r4
    81b6:	bd3e      	pop	{r1, r2, r3, r4, r5, pc}
    81b8:	82c7      	strh	r7, [r0, #22]
    81ba:	0000      	lsls	r0, r0, #0
    81bc:	8211      	strh	r1, [r2, #16]
	...

000081c0 <_ZNK7android22QualcommCameraHardware10getRawHeapEv>:
    81c0:	b537      	push	{r0, r1, r2, r4, r5, lr}
    81c2:	460d      	mov	r5, r1
    81c4:	4a10      	ldr	r2, [pc, #64]	(8208 <_ZNK7android22QualcommCameraHardware10getRawHeapEv+0x48>)
    81c6:	4604      	mov	r4, r0
    81c8:	4910      	ldr	r1, [pc, #64]	(820c <_ZNK7android22QualcommCameraHardware10getRawHeapEv+0x4c>)
    81ca:	2002      	movs	r0, #2
    81cc:	447a      	add	r2, pc
    81ce:	4479      	add	r1, pc
    81d0:	f7ff eafe 	blx	77d0 <_ZN7android22QualcommCameraHardware18filterPictureSizesEv-0x51c>
    81d4:	6c29      	ldr	r1, [r5, #64]
    81d6:	b151      	cbz	r1, 81ee <_ZNK7android22QualcommCameraHardware10getRawHeapEv+0x2e>
    81d8:	698b      	ldr	r3, [r1, #24]
    81da:	9301      	str	r3, [sp, #4]
    81dc:	b153      	cbz	r3, 81f4 <_ZNK7android22QualcommCameraHardware10getRawHeapEv+0x34>
    81de:	681a      	ldr	r2, [r3, #0]
    81e0:	a901      	add	r1, sp, #4
    81e2:	f852 0c10 	ldr.w	r0, [r2, #-16]
    81e6:	1818      	adds	r0, r3, r0
    81e8:	f7ff eaf8 	blx	77dc <_ZN7android22QualcommCameraHardware18filterPictureSizesEv-0x510>
    81ec:	e002      	b.n	81f4 <_ZNK7android22QualcommCameraHardware10getRawHeapEv+0x34>
    81ee:	a801      	add	r0, sp, #4
    81f0:	f7ff ff42 	bl	8078 <_ZN7android2spINS_14MemoryHeapBaseEEC1EPS1_>
    81f4:	ad01      	add	r5, sp, #4
    81f6:	4620      	mov	r0, r4
    81f8:	4629      	mov	r1, r5
    81fa:	f7ff ff4b 	bl	8094 <_ZN7android2spINS_11IMemoryHeapEEC1INS_14MemoryHeapBaseEEERKNS0_IT_EE>
    81fe:	4628      	mov	r0, r5
    8200:	f7ff ffa8 	bl	8154 <_ZN7android2spINS_14MemoryHeapBaseEED1Ev>
    8204:	4620      	mov	r0, r4
    8206:	bd3e      	pop	{r1, r2, r3, r4, r5, pc}
    8208:	8286      	strh	r6, [r0, #20]
    820a:	0000      	lsls	r0, r0, #0
    820c:	81c1      	strh	r1, [r0, #14]
	...

00008210 <_ZN7android2spINS_14MemoryHeapBaseEEaSINS_14MemoryHeapPmemEEERS2_RKNS0_IT_EE>:
    8210:	b570      	push	{r4, r5, r6, lr}
    8212:	680d      	ldr	r5, [r1, #0]
    8214:	4604      	mov	r4, r0
    8216:	b135      	cbz	r5, 8226 <_ZN7android2spINS_14MemoryHeapBaseEEaSINS_14MemoryHeapPmemEEERS2_RKNS0_IT_EE+0x16>
    8218:	682b      	ldr	r3, [r5, #0]
    821a:	4621      	mov	r1, r4
    821c:	f853 0c10 	ldr.w	r0, [r3, #-16]
    8220:	1828      	adds	r0, r5, r0
    8222:	f7ff eadc 	blx	77dc <_ZN7android22QualcommCameraHardware18filterPictureSizesEv-0x510>
    8226:	6823      	ldr	r3, [r4, #0]
    8228:	b133      	cbz	r3, 8238 <_ZN7android2spINS_14MemoryHeapBaseEEaSINS_14MemoryHeapPmemEEERS2_RKNS0_IT_EE+0x28>
    822a:	681a      	ldr	r2, [r3, #0]
    822c:	f852 1c10 	ldr.w	r1, [r2, #-16]
    8230:	1858      	adds	r0, r3, r1
    8232:	4621      	mov	r1, r4
    8234:	f7ff ead8 	blx	77e8 <_ZN7android22QualcommCameraHardware18filterPictureSizesEv-0x504>
    8238:	6025      	str	r5, [r4, #0]
    823a:	4620      	mov	r0, r4
    823c:	bd70      	pop	{r4, r5, r6, pc}
    823e:	bf00      	nop

00008240 <_ZN7android2spINS_14MemoryHeapPmemEED1Ev>:
    8240:	b510      	push	{r4, lr}
    8242:	6803      	ldr	r3, [r0, #0]
    8244:	4604      	mov	r4, r0
    8246:	b133      	cbz	r3, 8256 <_ZN7android2spINS_14MemoryHeapPmemEED1Ev+0x16>
    8248:	681a      	ldr	r2, [r3, #0]
    824a:	4621      	mov	r1, r4
    824c:	f852 0c10 	ldr.w	r0, [r2, #-16]
    8250:	1818      	adds	r0, r3, r0
    8252:	f7ff eaca 	blx	77e8 <_ZN7android22QualcommCameraHardware18filterPictureSizesEv-0x504>
    8256:	4620      	mov	r0, r4
    8258:	bd10      	pop	{r4, pc}
    825a:	bf00      	nop

0000825c <_ZN7android2spINS_14MemoryHeapBaseEEaSEPS1_>:
    825c:	b570      	push	{r4, r5, r6, lr}
    825e:	4604      	mov	r4, r0
    8260:	460d      	mov	r5, r1
    8262:	b131      	cbz	r1, 8272 <_ZN7android2spINS_14MemoryHeapBaseEEaSEPS1_+0x16>
    8264:	680b      	ldr	r3, [r1, #0]
    8266:	f853 0c10 	ldr.w	r0, [r3, #-16]
    826a:	1808      	adds	r0, r1, r0
    826c:	4621      	mov	r1, r4
    826e:	f7ff eab6 	blx	77dc <_ZN7android22QualcommCameraHardware18filterPictureSizesEv-0x510>
    8272:	6823      	ldr	r3, [r4, #0]
    8274:	b133      	cbz	r3, 8284 <_ZN7android2spINS_14MemoryHeapBaseEEaSEPS1_+0x28>
    8276:	681a      	ldr	r2, [r3, #0]
    8278:	f852 1c10 	ldr.w	r1, [r2, #-16]
    827c:	1858      	adds	r0, r3, r1
    827e:	4621      	mov	r1, r4
    8280:	f7ff eab2 	blx	77e8 <_ZN7android22QualcommCameraHardware18filterPictureSizesEv-0x504>
    8284:	6025      	str	r5, [r4, #0]
    8286:	4620      	mov	r0, r4
    8288:	bd70      	pop	{r4, r5, r6, pc}
    828a:	bf00      	nop

0000828c <_ZN7android2spINS_10MemoryBaseEEaSEPS1_>:
    828c:	b570      	push	{r4, r5, r6, lr}
    828e:	4604      	mov	r4, r0
    8290:	460d      	mov	r5, r1
    8292:	b131      	cbz	r1, 82a2 <_ZN7android2spINS_10MemoryBaseEEaSEPS1_+0x16>
    8294:	680b      	ldr	r3, [r1, #0]
    8296:	f853 0c0c 	ldr.w	r0, [r3, #-12]
    829a:	1808      	adds	r0, r1, r0
    829c:	4621      	mov	r1, r4
    829e:	f7ff ea9e 	blx	77dc <_ZN7android22QualcommCameraHardware18filterPictureSizesEv-0x510>
    82a2:	6823      	ldr	r3, [r4, #0]
    82a4:	b133      	cbz	r3, 82b4 <_ZN7android2spINS_10MemoryBaseEEaSEPS1_+0x28>
    82a6:	681a      	ldr	r2, [r3, #0]
    82a8:	f852 1c0c 	ldr.w	r1, [r2, #-12]
    82ac:	1858      	adds	r0, r3, r1
    82ae:	4621      	mov	r1, r4
    82b0:	f7ff ea9a 	blx	77e8 <_ZN7android22QualcommCameraHardware18filterPictureSizesEv-0x504>
    82b4:	6025      	str	r5, [r4, #0]
    82b6:	4620      	mov	r0, r4
    82b8:	bd70      	pop	{r4, r5, r6, pc}
    82ba:	bf00      	nop

000082bc <_ZN7android2spINS_7IMemoryEED1Ev>:
    82bc:	b510      	push	{r4, lr}
    82be:	6803      	ldr	r3, [r0, #0]
    82c0:	4604      	mov	r4, r0
    82c2:	b133      	cbz	r3, 82d2 <_ZN7android2spINS_7IMemoryEED1Ev+0x16>
    82c4:	681a      	ldr	r2, [r3, #0]
    82c6:	4621      	mov	r1, r4
    82c8:	f852 0c0c 	ldr.w	r0, [r2, #-12]
    82cc:	1818      	adds	r0, r3, r0
    82ce:	f7ff ea8c 	blx	77e8 <_ZN7android22QualcommCameraHardware18filterPictureSizesEv-0x504>
    82d2:	4620      	mov	r0, r4
    82d4:	bd10      	pop	{r4, pc}
    82d6:	bf00      	nop

000082d8 <_ZN7android2spINS_22QualcommCameraHardware10AshmemPoolEE5clearEv>:
    82d8:	b510      	push	{r4, lr}
    82da:	4604      	mov	r4, r0
    82dc:	6800      	ldr	r0, [r0, #0]
    82de:	b120      	cbz	r0, 82ea <_ZN7android2spINS_22QualcommCameraHardware10AshmemPoolEE5clearEv+0x12>
    82e0:	4621      	mov	r1, r4
    82e2:	f7ff ea82 	blx	77e8 <_ZN7android22QualcommCameraHardware18filterPictureSizesEv-0x504>
    82e6:	2300      	movs	r3, #0
    82e8:	6023      	str	r3, [r4, #0]
    82ea:	bd10      	pop	{r4, pc}

000082ec <_ZN7android2spINS_22QualcommCameraHardware10AshmemPoolEEaSEPS2_>:
    82ec:	b570      	push	{r4, r5, r6, lr}
    82ee:	4604      	mov	r4, r0
    82f0:	460d      	mov	r5, r1
    82f2:	b119      	cbz	r1, 82fc <_ZN7android2spINS_22QualcommCameraHardware10AshmemPoolEEaSEPS2_+0x10>
    82f4:	4608      	mov	r0, r1
    82f6:	4621      	mov	r1, r4
    82f8:	f7ff ea70 	blx	77dc <_ZN7android22QualcommCameraHardware18filterPictureSizesEv-0x510>
    82fc:	6820      	ldr	r0, [r4, #0]
    82fe:	b110      	cbz	r0, 8306 <_ZN7android2spINS_22QualcommCameraHardware10AshmemPoolEEaSEPS2_+0x1a>
    8300:	4621      	mov	r1, r4
    8302:	f7ff ea72 	blx	77e8 <_ZN7android22QualcommCameraHardware18filterPictureSizesEv-0x504>
    8306:	6025      	str	r5, [r4, #0]
    8308:	4620      	mov	r0, r4
    830a:	bd70      	pop	{r4, r5, r6, pc}

0000830c <_ZN7android2spINS_22QualcommCameraHardware8PmemPoolEEaSERKS3_>:
    830c:	b570      	push	{r4, r5, r6, lr}
    830e:	680d      	ldr	r5, [r1, #0]
    8310:	4604      	mov	r4, r0
    8312:	b11d      	cbz	r5, 831c <_ZN7android2spINS_22QualcommCameraHardware8PmemPoolEEaSERKS3_+0x10>
    8314:	4628      	mov	r0, r5
    8316:	4621      	mov	r1, r4
    8318:	f7ff ea60 	blx	77dc <_ZN7android22QualcommCameraHardware18filterPictureSizesEv-0x510>
    831c:	6820      	ldr	r0, [r4, #0]
    831e:	b110      	cbz	r0, 8326 <_ZN7android2spINS_22QualcommCameraHardware8PmemPoolEEaSERKS3_+0x1a>
    8320:	4621      	mov	r1, r4
    8322:	f7ff ea62 	blx	77e8 <_ZN7android22QualcommCameraHardware18filterPictureSizesEv-0x504>
    8326:	6025      	str	r5, [r4, #0]
    8328:	4620      	mov	r0, r4
    832a:	bd70      	pop	{r4, r5, r6, pc}

0000832c <_ZN7android2spINS_22QualcommCameraHardware8PmemPoolEEaSEPS2_>:
    832c:	b570      	push	{r4, r5, r6, lr}
    832e:	4604      	mov	r4, r0
    8330:	460d      	mov	r5, r1
    8332:	b119      	cbz	r1, 833c <_ZN7android2spINS_22QualcommCameraHardware8PmemPoolEEaSEPS2_+0x10>
    8334:	4608      	mov	r0, r1
    8336:	4621      	mov	r1, r4
    8338:	f7ff ea50 	blx	77dc <_ZN7android22QualcommCameraHardware18filterPictureSizesEv-0x510>
    833c:	6820      	ldr	r0, [r4, #0]
    833e:	b110      	cbz	r0, 8346 <_ZN7android2spINS_22QualcommCameraHardware8PmemPoolEEaSEPS2_+0x1a>
    8340:	4621      	mov	r1, r4
    8342:	f7ff ea52 	blx	77e8 <_ZN7android22QualcommCameraHardware18filterPictureSizesEv-0x504>
    8346:	6025      	str	r5, [r4, #0]
    8348:	4620      	mov	r0, r4
    834a:	bd70      	pop	{r4, r5, r6, pc}

0000834c <_ZN7android2spINS_22QualcommCameraHardware8PmemPoolEE5clearEv>:
    834c:	b510      	push	{r4, lr}
    834e:	4604      	mov	r4, r0
    8350:	6800      	ldr	r0, [r0, #0]
    8352:	b120      	cbz	r0, 835e <_ZN7android2spINS_22QualcommCameraHardware8PmemPoolEE5clearEv+0x12>
    8354:	4621      	mov	r1, r4
    8356:	f7ff ea48 	blx	77e8 <_ZN7android22QualcommCameraHardware18filterPictureSizesEv-0x504>
    835a:	2300      	movs	r3, #0
    835c:	6023      	str	r3, [r4, #0]
    835e:	bd10      	pop	{r4, pc}

00008360 <_ZN7android22QualcommCameraHardware9deinitRawEv>:
    8360:	b570      	push	{r4, r5, r6, lr}
    8362:	4c10      	ldr	r4, [pc, #64]	(83a4 <_ZN7android22QualcommCameraHardware9deinitRawEv+0x44>)
    8364:	4a10      	ldr	r2, [pc, #64]	(83a8 <_ZN7android22QualcommCameraHardware9deinitRawEv+0x48>)
    8366:	4605      	mov	r5, r0
    8368:	447c      	add	r4, pc
    836a:	2002      	movs	r0, #2
    836c:	4621      	mov	r1, r4
    836e:	447a      	add	r2, pc
    8370:	f7ff ea2e 	blx	77d0 <_ZN7android22QualcommCameraHardware18filterPictureSizesEv-0x51c>
    8374:	f105 0038 	add.w	r0, r5, #56	; 0x38
    8378:	f7ff ffe8 	bl	834c <_ZN7android2spINS_22QualcommCameraHardware8PmemPoolEE5clearEv>
    837c:	f105 0044 	add.w	r0, r5, #68	; 0x44
    8380:	f7ff ffaa 	bl	82d8 <_ZN7android2spINS_22QualcommCameraHardware10AshmemPoolEE5clearEv>
    8384:	f105 003c 	add.w	r0, r5, #60	; 0x3c
    8388:	f7ff ffe0 	bl	834c <_ZN7android2spINS_22QualcommCameraHardware8PmemPoolEE5clearEv>
    838c:	f105 0040 	add.w	r0, r5, #64	; 0x40
    8390:	f7ff ffdc 	bl	834c <_ZN7android2spINS_22QualcommCameraHardware8PmemPoolEE5clearEv>
    8394:	4a05      	ldr	r2, [pc, #20]	(83ac <_ZN7android22QualcommCameraHardware9deinitRawEv+0x4c>)
    8396:	2002      	movs	r0, #2
    8398:	4621      	mov	r1, r4
    839a:	447a      	add	r2, pc
    839c:	f7ff ea18 	blx	77d0 <_ZN7android22QualcommCameraHardware18filterPictureSizesEv-0x51c>
    83a0:	bd70      	pop	{r4, r5, r6, pc}
    83a2:	bf00      	nop
    83a4:	8027      	strh	r7, [r4, #0]
    83a6:	0000      	lsls	r0, r0, #0
    83a8:	80ef      	strh	r7, [r5, #6]
    83aa:	0000      	lsls	r0, r0, #0
    83ac:	80cf      	strh	r7, [r1, #6]
	...

000083b0 <_ZN7android22QualcommCameraHardware17deinitRawSnapshotEv>:
    83b0:	b570      	push	{r4, r5, r6, lr}
    83b2:	4c0c      	ldr	r4, [pc, #48]	(83e4 <_ZN7android22QualcommCameraHardware17deinitRawSnapshotEv+0x34>)
    83b4:	4a0c      	ldr	r2, [pc, #48]	(83e8 <_ZN7android22QualcommCameraHardware17deinitRawSnapshotEv+0x38>)
    83b6:	4605      	mov	r5, r0
    83b8:	447c      	add	r4, pc
    83ba:	2002      	movs	r0, #2
    83bc:	4621      	mov	r1, r4
    83be:	447a      	add	r2, pc
    83c0:	f7ff ea06 	blx	77d0 <_ZN7android22QualcommCameraHardware18filterPictureSizesEv-0x51c>
    83c4:	f105 0048 	add.w	r0, r5, #72	; 0x48
    83c8:	f7ff ffc0 	bl	834c <_ZN7android2spINS_22QualcommCameraHardware8PmemPoolEE5clearEv>
    83cc:	f105 004c 	add.w	r0, r5, #76	; 0x4c
    83d0:	f7ff ff82 	bl	82d8 <_ZN7android2spINS_22QualcommCameraHardware10AshmemPoolEE5clearEv>
    83d4:	4a05      	ldr	r2, [pc, #20]	(83ec <_ZN7android22QualcommCameraHardware17deinitRawSnapshotEv+0x3c>)
    83d6:	2002      	movs	r0, #2
    83d8:	4621      	mov	r1, r4
    83da:	447a      	add	r2, pc
    83dc:	f7ff e9f8 	blx	77d0 <_ZN7android22QualcommCameraHardware18filterPictureSizesEv-0x51c>
    83e0:	bd70      	pop	{r4, r5, r6, pc}
    83e2:	bf00      	nop
    83e4:	7fd7      	ldrb	r7, [r2, #31]
    83e6:	0000      	lsls	r0, r0, #0
    83e8:	80b7      	strh	r7, [r6, #4]
    83ea:	0000      	lsls	r0, r0, #0
    83ec:	80af      	strh	r7, [r5, #4]
	...

000083f0 <_ZN7android2spINS_22QualcommCameraHardwareEED1Ev>:
    83f0:	b510      	push	{r4, lr}
    83f2:	6803      	ldr	r3, [r0, #0]
    83f4:	4604      	mov	r4, r0
    83f6:	b133      	cbz	r3, 8406 <_ZN7android2spINS_22QualcommCameraHardwareEED1Ev+0x16>
    83f8:	681a      	ldr	r2, [r3, #0]
    83fa:	4621      	mov	r1, r4
    83fc:	f852 0c0c 	ldr.w	r0, [r2, #-12]
    8400:	1818      	adds	r0, r3, r0
    8402:	f7ff e9f2 	blx	77e8 <_ZN7android22QualcommCameraHardware18filterPictureSizesEv-0x504>
    8406:	4620      	mov	r0, r4
    8408:	bd10      	pop	{r4, pc}
    840a:	bf00      	nop

0000840c <_ZN7android2spINS_22QualcommCameraHardware8PmemPoolEED1Ev>:
    840c:	b510      	push	{r4, lr}
    840e:	4604      	mov	r4, r0
    8410:	6800      	ldr	r0, [r0, #0]
    8412:	b110      	cbz	r0, 841a <_ZN7android2spINS_22QualcommCameraHardware8PmemPoolEED1Ev+0xe>
    8414:	4621      	mov	r1, r4
    8416:	f7ff e9e8 	blx	77e8 <_ZN7android22QualcommCameraHardware18filterPictureSizesEv-0x504>
    841a:	4620      	mov	r0, r4
    841c:	bd10      	pop	{r4, pc}
    841e:	bf00      	nop

00008420 <_ZN7android22QualcommCameraHardware28storePreviewFrameForPostviewEv>:
    8420:	b570      	push	{r4, r5, r6, lr}
    8422:	4d19      	ldr	r5, [pc, #100]	(8488 <_ZN7android22QualcommCameraHardware28storePreviewFrameForPostviewEv+0x68>)
    8424:	4a19      	ldr	r2, [pc, #100]	(848c <_ZN7android22QualcommCameraHardware28storePreviewFrameForPostviewEv+0x6c>)
    8426:	4604      	mov	r4, r0
    8428:	447d      	add	r5, pc
    842a:	2002      	movs	r0, #2
    842c:	447a      	add	r2, pc
    842e:	4629      	mov	r1, r5
    8430:	f7ff e9ce 	blx	77d0 <_ZN7android22QualcommCameraHardware18filterPictureSizesEv-0x51c>
    8434:	4a16      	ldr	r2, [pc, #88]	(8490 <_ZN7android22QualcommCameraHardware28storePreviewFrameForPostviewEv+0x70>)
    8436:	f8d4 30c8 	ldr.w	r3, [r4, #200]
    843a:	2002      	movs	r0, #2
    843c:	447a      	add	r2, pc
    843e:	4629      	mov	r1, r5
    8440:	f7ff e9c6 	blx	77d0 <_ZN7android22QualcommCameraHardware18filterPictureSizesEv-0x51c>
    8444:	6d23      	ldr	r3, [r4, #80]
    8446:	b1bb      	cbz	r3, 8478 <_ZN7android22QualcommCameraHardware28storePreviewFrameForPostviewEv+0x58>
    8448:	4d12      	ldr	r5, [pc, #72]	(8494 <_ZN7android22QualcommCameraHardware28storePreviewFrameForPostviewEv+0x74>)
    844a:	447d      	add	r5, pc
    844c:	68ea      	ldr	r2, [r5, #12]
    844e:	b19a      	cbz	r2, 8478 <_ZN7android22QualcommCameraHardware28storePreviewFrameForPostviewEv+0x58>
    8450:	699b      	ldr	r3, [r3, #24]
    8452:	6819      	ldr	r1, [r3, #0]
    8454:	f851 0c0c 	ldr.w	r0, [r1, #-12]
    8458:	1818      	adds	r0, r3, r0
    845a:	f7ff fc2d 	bl	7cb8 <_ZN7android22QualcommCameraHardware18filterPictureSizesEv-0x34>
    845e:	68e9      	ldr	r1, [r5, #12]
    8460:	f8d4 20c8 	ldr.w	r2, [r4, #200]
    8464:	f7ff e9c6 	blx	77f4 <_ZN7android22QualcommCameraHardware18filterPictureSizesEv-0x4f8>
    8468:	490b      	ldr	r1, [pc, #44]	(8498 <_ZN7android22QualcommCameraHardware28storePreviewFrameForPostviewEv+0x78>)
    846a:	2002      	movs	r0, #2
    846c:	4a0b      	ldr	r2, [pc, #44]	(849c <_ZN7android22QualcommCameraHardware28storePreviewFrameForPostviewEv+0x7c>)
    846e:	4479      	add	r1, pc
    8470:	447a      	add	r2, pc
    8472:	f7ff e9ae 	blx	77d0 <_ZN7android22QualcommCameraHardware18filterPictureSizesEv-0x51c>
    8476:	bd70      	pop	{r4, r5, r6, pc}
    8478:	4909      	ldr	r1, [pc, #36]	(84a0 <_ZN7android22QualcommCameraHardware28storePreviewFrameForPostviewEv+0x80>)
    847a:	2006      	movs	r0, #6
    847c:	4a09      	ldr	r2, [pc, #36]	(84a4 <_ZN7android22QualcommCameraHardware28storePreviewFrameForPostviewEv+0x84>)
    847e:	4479      	add	r1, pc
    8480:	447a      	add	r2, pc
    8482:	f7ff e9a6 	blx	77d0 <_ZN7android22QualcommCameraHardware18filterPictureSizesEv-0x51c>
    8486:	e7ef      	b.n	8468 <_ZN7android22QualcommCameraHardware28storePreviewFrameForPostviewEv+0x48>
    8488:	7f67      	ldrb	r7, [r4, #29]
    848a:	0000      	lsls	r0, r0, #0
    848c:	8071      	strh	r1, [r6, #2]
    848e:	0000      	lsls	r0, r0, #0
    8490:	8084      	strh	r4, [r0, #4]
    8492:	0000      	lsls	r0, r0, #0
    8494:	c512      	stmia	r5!, {r1, r4}
    8496:	0000      	lsls	r0, r0, #0
    8498:	7f21      	ldrb	r1, [r4, #28]
    849a:	0000      	lsls	r0, r0, #0
    849c:	8084      	strh	r4, [r0, #4]
    849e:	0000      	lsls	r0, r0, #0
    84a0:	7f11      	ldrb	r1, [r2, #28]
    84a2:	0000      	lsls	r0, r0, #0
    84a4:	8097      	strh	r7, [r2, #4]
	...

000084a8 <_ZN7android22QualcommCameraHardware26receiveJpegPictureFragmentEPhj>:
    84a8:	e92d 43f7 	stmdb	sp!, {r0, r1, r2, r4, r5, r6, r7, r8, r9, lr}
    84ac:	6c46      	ldr	r6, [r0, #68]
    84ae:	4689      	mov	r9, r1
    84b0:	4604      	mov	r4, r0
    84b2:	4615      	mov	r5, r2
    84b4:	69b1      	ldr	r1, [r6, #24]
    84b6:	6808      	ldr	r0, [r1, #0]
    84b8:	f850 2c0c 	ldr.w	r2, [r0, #-12]
    84bc:	1888      	adds	r0, r1, r2
    84be:	588b      	ldr	r3, [r1, r2]
    84c0:	699f      	ldr	r7, [r3, #24]
    84c2:	47b8      	blx	r7
    84c4:	6c61      	ldr	r1, [r4, #68]
    84c6:	f8d4 60c4 	ldr.w	r6, [r4, #196]
    84ca:	698b      	ldr	r3, [r1, #24]
    84cc:	681a      	ldr	r2, [r3, #0]
    84ce:	1b87      	subs	r7, r0, r6
    84d0:	f852 0c0c 	ldr.w	r0, [r2, #-12]
    84d4:	4e13      	ldr	r6, [pc, #76]	(8524 <_ZN7android22QualcommCameraHardware26receiveJpegPictureFragmentEPhj+0x7c>)
    84d6:	1818      	adds	r0, r3, r0
    84d8:	f7ff fbee 	bl	7cb8 <_ZN7android22QualcommCameraHardware18filterPictureSizesEv-0x34>
    84dc:	4a12      	ldr	r2, [pc, #72]	(8528 <_ZN7android22QualcommCameraHardware26receiveJpegPictureFragmentEPhj+0x80>)
    84de:	447e      	add	r6, pc
    84e0:	462b      	mov	r3, r5
    84e2:	447a      	add	r2, pc
    84e4:	4631      	mov	r1, r6
    84e6:	4680      	mov	r8, r0
    84e8:	2002      	movs	r0, #2
    84ea:	f7ff e972 	blx	77d0 <_ZN7android22QualcommCameraHardware18filterPictureSizesEv-0x51c>
    84ee:	42bd      	cmp	r5, r7
    84f0:	d908      	bls.n	8504 <_ZN7android22QualcommCameraHardware26receiveJpegPictureFragmentEPhj+0x5c>
    84f2:	4a0e      	ldr	r2, [pc, #56]	(852c <_ZN7android22QualcommCameraHardware26receiveJpegPictureFragmentEPhj+0x84>)
    84f4:	462b      	mov	r3, r5
    84f6:	2006      	movs	r0, #6
    84f8:	4631      	mov	r1, r6
    84fa:	447a      	add	r2, pc
    84fc:	9700      	str	r7, [sp, #0]
    84fe:	f7ff e968 	blx	77d0 <_ZN7android22QualcommCameraHardware18filterPictureSizesEv-0x51c>
    8502:	463d      	mov	r5, r7
    8504:	f8d4 10c4 	ldr.w	r1, [r4, #196]
    8508:	462a      	mov	r2, r5
    850a:	eb08 0001 	add.w	r0, r8, r1
    850e:	4649      	mov	r1, r9
    8510:	f7ff e970 	blx	77f4 <_ZN7android22QualcommCameraHardware18filterPictureSizesEv-0x4f8>
    8514:	f8d4 30c4 	ldr.w	r3, [r4, #196]
    8518:	195d      	adds	r5, r3, r5
    851a:	f8c4 50c4 	str.w	r5, [r4, #196]
    851e:	e8bd 83fe 	ldmia.w	sp!, {r1, r2, r3, r4, r5, r6, r7, r8, r9, pc}
    8522:	bf00      	nop
    8524:	7eb1      	ldrb	r1, [r6, #26]
    8526:	0000      	lsls	r0, r0, #0
    8528:	8062      	strh	r2, [r4, #2]
    852a:	0000      	lsls	r0, r0, #0
    852c:	806d      	strh	r5, [r5, #2]
    852e:	0000      	lsls	r0, r0, #0
    8530:	e92d 4ff7 	stmdb	sp!, {r0, r1, r2, r4, r5, r6, r7, r8, r9, sl, fp, lr}
    8534:	468c      	mov	ip, r1
    8536:	461e      	mov	r6, r3
    8538:	4604      	mov	r4, r0
    853a:	1a81      	subs	r1, r0, r2
    853c:	ebc6 000c 	rsb	r0, r6, ip
    8540:	f8dd a030 	ldr.w	sl, [sp, #48]
    8544:	4615      	mov	r5, r2
    8546:	084b      	lsrs	r3, r1, #1
    8548:	ea4f 0b50 	mov.w	fp, r0, lsr #1
    854c:	f023 0301 	bic.w	r3, r3, #1	; 0x1
    8550:	f02b 0b01 	bic.w	fp, fp, #1	; 0x1
    8554:	46d1      	mov	r9, sl
    8556:	2700      	movs	r7, #0
    8558:	fb04 380b 	mla	r8, r4, fp, r3
    855c:	44d0      	add	r8, sl
    855e:	e00d      	b.n	857c <_ZN7android22QualcommCameraHardware26receiveJpegPictureFragmentEPhj+0xd4>
    8560:	ebc5 0009 	rsb	r0, r5, r9
    8564:	ebc4 0108 	rsb	r1, r4, r8
    8568:	462a      	mov	r2, r5
    856a:	9301      	str	r3, [sp, #4]
    856c:	f8cd c000 	str.w	ip, [sp]
    8570:	f7ff e940 	blx	77f4 <_ZN7android22QualcommCameraHardware18filterPictureSizesEv-0x4f8>
    8574:	f8dd c000 	ldr.w	ip, [sp]
    8578:	3701      	adds	r7, #1
    857a:	9b01      	ldr	r3, [sp, #4]
    857c:	42b7      	cmp	r7, r6
    857e:	44a9      	add	r9, r5
    8580:	44a0      	add	r8, r4
    8582:	d3ed      	bcc.n	8560 <_ZN7android22QualcommCameraHardware26receiveJpegPictureFragmentEPhj+0xb8>
    8584:	ea4f 0b5b 	mov.w	fp, fp, lsr #1
    8588:	0877      	lsrs	r7, r6, #1
    858a:	fb05 a606 	mla	r6, r5, r6, sl
    858e:	f04f 0800 	mov.w	r8, #0	; 0x0
    8592:	fb04 aa0c 	mla	sl, r4, ip, sl
    8596:	fb04 320b 	mla	r2, r4, fp, r3
    859a:	4492      	add	sl, r2
    859c:	e007      	b.n	85ae <_ZN7android22QualcommCameraHardware26receiveJpegPictureFragmentEPhj+0x106>
    859e:	1b70      	subs	r0, r6, r5
    85a0:	ebc4 010a 	rsb	r1, r4, sl
    85a4:	462a      	mov	r2, r5
    85a6:	f108 0801 	add.w	r8, r8, #1	; 0x1
    85aa:	f7ff e924 	blx	77f4 <_ZN7android22QualcommCameraHardware18filterPictureSizesEv-0x4f8>
    85ae:	1976      	adds	r6, r6, r5
    85b0:	45b8      	cmp	r8, r7
    85b2:	44a2      	add	sl, r4
    85b4:	d3f3      	bcc.n	859e <_ZN7android22QualcommCameraHardware26receiveJpegPictureFragmentEPhj+0xf6>
    85b6:	e8bd 8ffe 	ldmia.w	sp!, {r1, r2, r3, r4, r5, r6, r7, r8, r9, sl, fp, pc}
    85ba:	bf00      	nop
    85bc:	b510      	push	{r4, lr}
    85be:	f7ff e920 	blx	7800 <_ZN7android22QualcommCameraHardware18filterPictureSizesEv-0x4ec>
    85c2:	4240      	negs	r0, r0
    85c4:	bd10      	pop	{r4, pc}
    85c6:	bf00      	nop

000085c8 <_ZN7android22QualcommCameraHardware23receive_camframetimeoutEv>:
    85c8:	e92d 41f0 	stmdb	sp!, {r4, r5, r6, r7, r8, lr}
    85cc:	4c14      	ldr	r4, [pc, #80]	(8620 <_ZN7android22QualcommCameraHardware23receive_camframetimeoutEv+0x58>)
    85ce:	4a15      	ldr	r2, [pc, #84]	(8624 <_ZN7android22QualcommCameraHardware23receive_camframetimeoutEv+0x5c>)
    85d0:	4607      	mov	r7, r0
    85d2:	447c      	add	r4, pc
    85d4:	f107 05a4 	add.w	r5, r7, #164	; 0xa4
    85d8:	4621      	mov	r1, r4
    85da:	447a      	add	r2, pc
    85dc:	2002      	movs	r0, #2
    85de:	f7ff e8f8 	blx	77d0 <_ZN7android22QualcommCameraHardware18filterPictureSizesEv-0x51c>
    85e2:	4628      	mov	r0, r5
    85e4:	f7ff ffea 	bl	85bc <_ZN7android22QualcommCameraHardware26receiveJpegPictureFragmentEPhj+0x114>
    85e8:	4a0f      	ldr	r2, [pc, #60]	(8628 <_ZN7android22QualcommCameraHardware23receive_camframetimeoutEv+0x60>)
    85ea:	4621      	mov	r1, r4
    85ec:	2003      	movs	r0, #3
    85ee:	447a      	add	r2, pc
    85f0:	f7ff e8ee 	blx	77d0 <_ZN7android22QualcommCameraHardware18filterPictureSizesEv-0x51c>
    85f4:	2001      	movs	r0, #1
    85f6:	4601      	mov	r1, r0
    85f8:	f887 00a8 	strb.w	r0, [r7, #168]
    85fc:	2200      	movs	r2, #0
    85fe:	f8d7 31f8 	ldr.w	r3, [r7, #504]
    8602:	f8d7 61ec 	ldr.w	r6, [r7, #492]
    8606:	47b0      	blx	r6
    8608:	4a08      	ldr	r2, [pc, #32]	(862c <_ZN7android22QualcommCameraHardware23receive_camframetimeoutEv+0x64>)
    860a:	2002      	movs	r0, #2
    860c:	4621      	mov	r1, r4
    860e:	447a      	add	r2, pc
    8610:	f7ff e8de 	blx	77d0 <_ZN7android22QualcommCameraHardware18filterPictureSizesEv-0x51c>
    8614:	4628      	mov	r0, r5
    8616:	f7ff e8fa 	blx	780c <_ZN7android22QualcommCameraHardware18filterPictureSizesEv-0x4e0>
    861a:	e8bd 81f0 	ldmia.w	sp!, {r4, r5, r6, r7, r8, pc}
    861e:	bf00      	nop
    8620:	7dbd      	ldrb	r5, [r7, #22]
    8622:	0000      	lsls	r0, r0, #0
    8624:	7fe4      	ldrb	r4, [r4, #31]
    8626:	0000      	lsls	r0, r0, #0
    8628:	7feb      	ldrb	r3, [r5, #31]
    862a:	0000      	lsls	r0, r0, #0
    862c:	800d      	strh	r5, [r1, #0]
	...

00008630 <_ZN7android22QualcommCameraHardware14disableMsgTypeEi>:
    8630:	b570      	push	{r4, r5, r6, lr}
    8632:	4604      	mov	r4, r0
    8634:	f100 05a0 	add.w	r5, r0, #160	; 0xa0
    8638:	460e      	mov	r6, r1
    863a:	4628      	mov	r0, r5
    863c:	f7ff ffbe 	bl	85bc <_ZN7android22QualcommCameraHardware26receiveJpegPictureFragmentEPhj+0x114>
    8640:	f8d4 31e8 	ldr.w	r3, [r4, #488]
    8644:	4628      	mov	r0, r5
    8646:	ea23 0606 	bic.w	r6, r3, r6
    864a:	f8c4 61e8 	str.w	r6, [r4, #488]
    864e:	f7ff e8de 	blx	780c <_ZN7android22QualcommCameraHardware18filterPictureSizesEv-0x4e0>
    8652:	bd70      	pop	{r4, r5, r6, pc}

00008654 <_ZN7android22QualcommCameraHardware13enableMsgTypeEi>:
    8654:	b570      	push	{r4, r5, r6, lr}
    8656:	4604      	mov	r4, r0
    8658:	f100 05a0 	add.w	r5, r0, #160	; 0xa0
    865c:	460e      	mov	r6, r1
    865e:	4628      	mov	r0, r5
    8660:	f7ff ffac 	bl	85bc <_ZN7android22QualcommCameraHardware26receiveJpegPictureFragmentEPhj+0x114>
    8664:	f8d4 31e8 	ldr.w	r3, [r4, #488]
    8668:	4628      	mov	r0, r5
    866a:	ea43 0606 	orr.w	r6, r3, r6
    866e:	f8c4 61e8 	str.w	r6, [r4, #488]
    8672:	f7ff e8cc 	blx	780c <_ZN7android22QualcommCameraHardware18filterPictureSizesEv-0x4e0>
    8676:	bd70      	pop	{r4, r5, r6, pc}

00008678 <_ZN7android22QualcommCameraHardware12setCallbacksEPFviiiPvEPFviRKNS_2spINS_7IMemoryEEES1_EPFvxiS8_S1_ES1_>:
    8678:	e92d 41f0 	stmdb	sp!, {r4, r5, r6, r7, r8, lr}
    867c:	f100 07a0 	add.w	r7, r0, #160	; 0xa0
    8680:	4604      	mov	r4, r0
    8682:	4638      	mov	r0, r7
    8684:	4698      	mov	r8, r3
    8686:	460d      	mov	r5, r1
    8688:	4616      	mov	r6, r2
    868a:	f7ff ff97 	bl	85bc <_ZN7android22QualcommCameraHardware26receiveJpegPictureFragmentEPhj+0x114>
    868e:	9b06      	ldr	r3, [sp, #24]
    8690:	4638      	mov	r0, r7
    8692:	f8c4 51ec 	str.w	r5, [r4, #492]
    8696:	f8c4 61f0 	str.w	r6, [r4, #496]
    869a:	f8c4 81f4 	str.w	r8, [r4, #500]
    869e:	f8c4 31f8 	str.w	r3, [r4, #504]
    86a2:	f7ff e8b4 	blx	780c <_ZN7android22QualcommCameraHardware18filterPictureSizesEv-0x4e0>
    86a6:	e8bd 81f0 	ldmia.w	sp!, {r4, r5, r6, r7, r8, pc}
    86aa:	bf00      	nop

000086ac <_ZN7android22QualcommCameraHardware13notifyShutterEP13common_crop_t>:
    86ac:	b570      	push	{r4, r5, r6, lr}
    86ae:	4604      	mov	r4, r0
    86b0:	b086      	sub	sp, #24
    86b2:	f100 0070 	add.w	r0, r0, #112	; 0x70
    86b6:	460d      	mov	r5, r1
    86b8:	f7ff ff80 	bl	85bc <_ZN7android22QualcommCameraHardware26receiveJpegPictureFragmentEPhj+0x114>
    86bc:	f894 306c 	ldrb.w	r3, [r4, #108]
    86c0:	2b00      	cmp	r3, #0
    86c2:	d06c      	beq.n	879e <_ZN7android22QualcommCameraHardware13notifyShutterEP13common_crop_t+0xf2>
    86c4:	f8d4 01ec 	ldr.w	r0, [r4, #492]
    86c8:	2800      	cmp	r0, #0
    86ca:	d068      	beq.n	879e <_ZN7android22QualcommCameraHardware13notifyShutterEP13common_crop_t+0xf2>
    86cc:	f8d4 11e8 	ldr.w	r1, [r4, #488]
    86d0:	078b      	lsls	r3, r1, #30
    86d2:	d564      	bpl.n	879e <_ZN7android22QualcommCameraHardware13notifyShutterEP13common_crop_t+0xf2>
    86d4:	69e9      	ldr	r1, [r5, #28]
    86d6:	4e35      	ldr	r6, [pc, #212]	(87ac <_ZN7android22QualcommCameraHardware13notifyShutterEP13common_crop_t+0x100>)
    86d8:	4a35      	ldr	r2, [pc, #212]	(87b0 <_ZN7android22QualcommCameraHardware13notifyShutterEP13common_crop_t+0x104>)
    86da:	9100      	str	r1, [sp, #0]
    86dc:	447e      	add	r6, pc
    86de:	6928      	ldr	r0, [r5, #16]
    86e0:	4631      	mov	r1, r6
    86e2:	447a      	add	r2, pc
    86e4:	9001      	str	r0, [sp, #4]
    86e6:	2002      	movs	r0, #2
    86e8:	696b      	ldr	r3, [r5, #20]
    86ea:	9302      	str	r3, [sp, #8]
    86ec:	69ab      	ldr	r3, [r5, #24]
    86ee:	f7ff e870 	blx	77d0 <_ZN7android22QualcommCameraHardware18filterPictureSizesEv-0x51c>
    86f2:	68e9      	ldr	r1, [r5, #12]
    86f4:	4a2f      	ldr	r2, [pc, #188]	(87b4 <_ZN7android22QualcommCameraHardware13notifyShutterEP13common_crop_t+0x108>)
    86f6:	9100      	str	r1, [sp, #0]
    86f8:	447a      	add	r2, pc
    86fa:	6828      	ldr	r0, [r5, #0]
    86fc:	4631      	mov	r1, r6
    86fe:	f104 0640 	add.w	r6, r4, #64	; 0x40
    8702:	9001      	str	r0, [sp, #4]
    8704:	2002      	movs	r0, #2
    8706:	686b      	ldr	r3, [r5, #4]
    8708:	9302      	str	r3, [sp, #8]
    870a:	68ab      	ldr	r3, [r5, #8]
    870c:	f7ff e860 	blx	77d0 <_ZN7android22QualcommCameraHardware18filterPictureSizesEv-0x51c>
    8710:	f104 013c 	add.w	r1, r4, #60	; 0x3c
    8714:	4630      	mov	r0, r6
    8716:	f7ff fdf9 	bl	830c <_ZN7android2spINS_22QualcommCameraHardware8PmemPoolEEaSERKS3_>
    871a:	682a      	ldr	r2, [r5, #0]
    871c:	b10a      	cbz	r2, 8722 <_ZN7android22QualcommCameraHardware13notifyShutterEP13common_crop_t+0x76>
    871e:	686a      	ldr	r2, [r5, #4]
    8720:	b98a      	cbnz	r2, 8746 <_ZN7android22QualcommCameraHardware13notifyShutterEP13common_crop_t+0x9a>
    8722:	f8b4 5106 	ldrh.w	r5, [r4, #262]
    8726:	f8b4 3108 	ldrh.w	r3, [r4, #264]
    872a:	f5b5 6f00 	cmp.w	r5, #2048	; 0x800
    872e:	9504      	str	r5, [sp, #16]
    8730:	9305      	str	r3, [sp, #20]
    8732:	d802      	bhi.n	873a <_ZN7android22QualcommCameraHardware13notifyShutterEP13common_crop_t+0x8e>
    8734:	f5b3 6f00 	cmp.w	r3, #2048	; 0x800
    8738:	d926      	bls.n	8788 <_ZN7android22QualcommCameraHardware13notifyShutterEP13common_crop_t+0xdc>
    873a:	f8b4 3114 	ldrh.w	r3, [r4, #276]
    873e:	9304      	str	r3, [sp, #16]
    8740:	f8b4 3112 	ldrh.w	r3, [r4, #274]
    8744:	e01a      	b.n	877c <_ZN7android22QualcommCameraHardware13notifyShutterEP13common_crop_t+0xd0>
    8746:	6928      	ldr	r0, [r5, #16]
    8748:	6863      	ldr	r3, [r4, #4]
    874a:	181a      	adds	r2, r3, r0
    874c:	f022 0001 	bic.w	r0, r2, #1	; 0x1
    8750:	9004      	str	r0, [sp, #16]
    8752:	6969      	ldr	r1, [r5, #20]
    8754:	185b      	adds	r3, r3, r1
    8756:	f5b0 6f00 	cmp.w	r0, #2048	; 0x800
    875a:	f023 0301 	bic.w	r3, r3, #1	; 0x1
    875e:	9305      	str	r3, [sp, #20]
    8760:	d802      	bhi.n	8768 <_ZN7android22QualcommCameraHardware13notifyShutterEP13common_crop_t+0xbc>
    8762:	f5b3 6f00 	cmp.w	r3, #2048	; 0x800
    8766:	d90f      	bls.n	8788 <_ZN7android22QualcommCameraHardware13notifyShutterEP13common_crop_t+0xdc>
    8768:	6829      	ldr	r1, [r5, #0]
    876a:	6863      	ldr	r3, [r4, #4]
    876c:	1858      	adds	r0, r3, r1
    876e:	f020 0201 	bic.w	r2, r0, #1	; 0x1
    8772:	9204      	str	r2, [sp, #16]
    8774:	6869      	ldr	r1, [r5, #4]
    8776:	185d      	adds	r5, r3, r1
    8778:	f025 0301 	bic.w	r3, r5, #1	; 0x1
    877c:	f104 0138 	add.w	r1, r4, #56	; 0x38
    8780:	4630      	mov	r0, r6
    8782:	9305      	str	r3, [sp, #20]
    8784:	f7ff fdc2 	bl	830c <_ZN7android2spINS_22QualcommCameraHardware8PmemPoolEEaSERKS3_>
    8788:	f8d4 31f8 	ldr.w	r3, [r4, #504]
    878c:	2002      	movs	r0, #2
    878e:	f8d4 51ec 	ldr.w	r5, [r4, #492]
    8792:	a904      	add	r1, sp, #16
    8794:	2200      	movs	r2, #0
    8796:	47a8      	blx	r5
    8798:	2300      	movs	r3, #0
    879a:	f884 306c 	strb.w	r3, [r4, #108]
    879e:	f104 0070 	add.w	r0, r4, #112	; 0x70
    87a2:	f7ff e834 	blx	780c <_ZN7android22QualcommCameraHardware18filterPictureSizesEv-0x4e0>
    87a6:	b006      	add	sp, #24
    87a8:	bd70      	pop	{r4, r5, r6, pc}
    87aa:	bf00      	nop
    87ac:	7cb3      	ldrb	r3, [r6, #18]
    87ae:	0000      	lsls	r0, r0, #0
    87b0:	7f54      	ldrb	r4, [r2, #29]
    87b2:	0000      	lsls	r0, r0, #0
    87b4:	7f67      	ldrb	r7, [r4, #29]
    87b6:	0000      	lsls	r0, r0, #0
    87b8:	e92d 41f0 	stmdb	sp!, {r4, r5, r6, r7, r8, lr}
    87bc:	4690      	mov	r8, r2
    87be:	4604      	mov	r4, r0
    87c0:	460d      	mov	r5, r1
    87c2:	f7fe efdc 	blx	777c <_ZN7android22QualcommCameraHardware18filterPictureSizesEv-0x570>
    87c6:	f1b8 0f00 	cmp.w	r8, #0	; 0x0
    87ca:	dd03      	ble.n	87d4 <_ZN7android22QualcommCameraHardware13notifyShutterEP13common_crop_t+0x128>
    87cc:	4620      	mov	r0, r4
    87ce:	6829      	ldr	r1, [r5, #0]
    87d0:	f7ff e822 	blx	7818 <_ZN7android22QualcommCameraHardware18filterPictureSizesEv-0x4d4>
    87d4:	4f09      	ldr	r7, [pc, #36]	(87fc <_ZN7android22QualcommCameraHardware13notifyShutterEP13common_crop_t+0x150>)
    87d6:	2601      	movs	r6, #1
    87d8:	447f      	add	r7, pc
    87da:	e009      	b.n	87f0 <_ZN7android22QualcommCameraHardware13notifyShutterEP13common_crop_t+0x144>
    87dc:	4639      	mov	r1, r7
    87de:	4620      	mov	r0, r4
    87e0:	f7ff e81a 	blx	7818 <_ZN7android22QualcommCameraHardware18filterPictureSizesEv-0x4d4>
    87e4:	f855 1036 	ldr.w	r1, [r5, r6, lsl #3]
    87e8:	4620      	mov	r0, r4
    87ea:	3601      	adds	r6, #1
    87ec:	f7ff e814 	blx	7818 <_ZN7android22QualcommCameraHardware18filterPictureSizesEv-0x4d4>
    87f0:	4546      	cmp	r6, r8
    87f2:	dbf3      	blt.n	87dc <_ZN7android22QualcommCameraHardware13notifyShutterEP13common_crop_t+0x130>
    87f4:	4620      	mov	r0, r4
    87f6:	e8bd 81f0 	ldmia.w	sp!, {r4, r5, r6, r7, r8, pc}
    87fa:	bf00      	nop
    87fc:	7eb0      	ldrb	r0, [r6, #26]
	...

00008800 <_ZNK7android22QualcommCameraHardware7MemPool4dumpEiRKNS_6VectorINS_8String16EEE>:
    8800:	e92d 47f0 	stmdb	sp!, {r4, r5, r6, r7, r8, r9, sl, lr}
    8804:	4d38      	ldr	r5, [pc, #224]	(88e8 <_ZNK7android22QualcommCameraHardware7MemPool4dumpEiRKNS_6VectorINS_8String16EEE+0xe8>)
    8806:	4688      	mov	r8, r1
    8808:	4938      	ldr	r1, [pc, #224]	(88ec <_ZNK7android22QualcommCameraHardware7MemPool4dumpEiRKNS_6VectorINS_8String16EEE+0xec>)
    880a:	447d      	add	r5, pc
    880c:	4604      	mov	r4, r0
    880e:	b0c6      	sub	sp, #280
    8810:	5868      	ldr	r0, [r5, r1]
    8812:	af04      	add	r7, sp, #16
    8814:	ae05      	add	r6, sp, #20
    8816:	6803      	ldr	r3, [r0, #0]
    8818:	4638      	mov	r0, r7
    881a:	9345      	str	r3, [sp, #276]
    881c:	f7fe efae 	blx	777c <_ZN7android22QualcommCameraHardware18filterPictureSizesEv-0x570>
    8820:	4a33      	ldr	r2, [pc, #204]	(88f0 <_ZNK7android22QualcommCameraHardware7MemPool4dumpEiRKNS_6VectorINS_8String16EEE+0xf0>)
    8822:	21ff      	movs	r1, #255
    8824:	4630      	mov	r0, r6
    8826:	447a      	add	r2, pc
    8828:	f7fe effc 	blx	7824 <_ZN7android22QualcommCameraHardware18filterPictureSizesEv-0x4c8>
    882c:	4638      	mov	r0, r7
    882e:	4631      	mov	r1, r6
    8830:	f7fe eff2 	blx	7818 <_ZN7android22QualcommCameraHardware18filterPictureSizesEv-0x4d4>
    8834:	6a23      	ldr	r3, [r4, #32]
    8836:	b14b      	cbz	r3, 884c <_ZNK7android22QualcommCameraHardware7MemPool4dumpEiRKNS_6VectorINS_8String16EEE+0x4c>
    8838:	4a2e      	ldr	r2, [pc, #184]	(88f4 <_ZNK7android22QualcommCameraHardware7MemPool4dumpEiRKNS_6VectorINS_8String16EEE+0xf4>)
    883a:	21ff      	movs	r1, #255
    883c:	4630      	mov	r0, r6
    883e:	447a      	add	r2, pc
    8840:	f7fe eff0 	blx	7824 <_ZN7android22QualcommCameraHardware18filterPictureSizesEv-0x4c8>
    8844:	4638      	mov	r0, r7
    8846:	4631      	mov	r1, r6
    8848:	f7fe efe6 	blx	7818 <_ZN7android22QualcommCameraHardware18filterPictureSizesEv-0x4d4>
    884c:	69a0      	ldr	r0, [r4, #24]
    884e:	b308      	cbz	r0, 8894 <_ZNK7android22QualcommCameraHardware7MemPool4dumpEiRKNS_6VectorINS_8String16EEE+0x94>
    8850:	6802      	ldr	r2, [r0, #0]
    8852:	68d7      	ldr	r7, [r2, #12]
    8854:	47b8      	blx	r7
    8856:	4607      	mov	r7, r0
    8858:	69a0      	ldr	r0, [r4, #24]
    885a:	6806      	ldr	r6, [r0, #0]
    885c:	6931      	ldr	r1, [r6, #16]
    885e:	ae05      	add	r6, sp, #20
    8860:	4788      	blx	r1
    8862:	4682      	mov	sl, r0
    8864:	69a0      	ldr	r0, [r4, #24]
    8866:	6803      	ldr	r3, [r0, #0]
    8868:	695a      	ldr	r2, [r3, #20]
    886a:	4790      	blx	r2
    886c:	4681      	mov	r9, r0
    886e:	69a0      	ldr	r0, [r4, #24]
    8870:	f7fe efde 	blx	7830 <_ZN7android22QualcommCameraHardware18filterPictureSizesEv-0x4bc>
    8874:	4a20      	ldr	r2, [pc, #128]	(88f8 <_ZNK7android22QualcommCameraHardware7MemPool4dumpEiRKNS_6VectorINS_8String16EEE+0xf8>)
    8876:	21ff      	movs	r1, #255
    8878:	463b      	mov	r3, r7
    887a:	447a      	add	r2, pc
    887c:	f8cd a000 	str.w	sl, [sp]
    8880:	f8cd 9004 	str.w	r9, [sp, #4]
    8884:	9002      	str	r0, [sp, #8]
    8886:	4630      	mov	r0, r6
    8888:	f7fe efcc 	blx	7824 <_ZN7android22QualcommCameraHardware18filterPictureSizesEv-0x4c8>
    888c:	a804      	add	r0, sp, #16
    888e:	4631      	mov	r1, r6
    8890:	f7fe efc2 	blx	7818 <_ZN7android22QualcommCameraHardware18filterPictureSizesEv-0x4d4>
    8894:	6923      	ldr	r3, [r4, #16]
    8896:	ae05      	add	r6, sp, #20
    8898:	4a18      	ldr	r2, [pc, #96]	(88fc <_ZNK7android22QualcommCameraHardware7MemPool4dumpEiRKNS_6VectorINS_8String16EEE+0xfc>)
    889a:	4630      	mov	r0, r6
    889c:	9300      	str	r3, [sp, #0]
    889e:	447a      	add	r2, pc
    88a0:	6961      	ldr	r1, [r4, #20]
    88a2:	9101      	str	r1, [sp, #4]
    88a4:	21ff      	movs	r1, #255
    88a6:	68a3      	ldr	r3, [r4, #8]
    88a8:	ac04      	add	r4, sp, #16
    88aa:	f7fe efbc 	blx	7824 <_ZN7android22QualcommCameraHardware18filterPictureSizesEv-0x4c8>
    88ae:	4631      	mov	r1, r6
    88b0:	4620      	mov	r0, r4
    88b2:	f7fe efb2 	blx	7818 <_ZN7android22QualcommCameraHardware18filterPictureSizesEv-0x4d4>
    88b6:	6821      	ldr	r1, [r4, #0]
    88b8:	f851 0c0c 	ldr.w	r0, [r1, #-12]
    88bc:	1e42      	subs	r2, r0, #1
    88be:	4640      	mov	r0, r8
    88c0:	f7fe efbc 	blx	783c <_ZN7android22QualcommCameraHardware18filterPictureSizesEv-0x4b0>
    88c4:	4620      	mov	r0, r4
    88c6:	f7fe ef60 	blx	7788 <_ZN7android22QualcommCameraHardware18filterPictureSizesEv-0x564>
    88ca:	f8df c020 	ldr.w	ip, [pc, #32]	; 88ec <_ZNK7android22QualcommCameraHardware7MemPool4dumpEiRKNS_6VectorINS_8String16EEE+0xec>
    88ce:	9945      	ldr	r1, [sp, #276]
    88d0:	2000      	movs	r0, #0
    88d2:	f855 200c 	ldr.w	r2, [r5, ip]
    88d6:	6813      	ldr	r3, [r2, #0]
    88d8:	4299      	cmp	r1, r3
    88da:	d001      	beq.n	88e0 <_ZNK7android22QualcommCameraHardware7MemPool4dumpEiRKNS_6VectorINS_8String16EEE+0xe0>
    88dc:	f7fe efb4 	blx	7848 <_ZN7android22QualcommCameraHardware18filterPictureSizesEv-0x4a4>
    88e0:	b046      	add	sp, #280
    88e2:	e8bd 87f0 	ldmia.w	sp!, {r4, r5, r6, r7, r8, r9, sl, pc}
    88e6:	bf00      	nop
    88e8:	beea      	bkpt	0x00ea
    88ea:	0000      	lsls	r0, r0, #0
    88ec:	fe80 ffff 	mcr2	15, 4, pc, cr0, cr15, {7}
    88f0:	7e64      	ldrb	r4, [r4, #25]
    88f2:	0000      	lsls	r0, r0, #0
    88f4:	7e76      	ldrb	r6, [r6, #25]
    88f6:	0000      	lsls	r0, r0, #0
    88f8:	7e4e      	ldrb	r6, [r1, #25]
    88fa:	0000      	lsls	r0, r0, #0
    88fc:	7e5a      	ldrb	r2, [r3, #25]
	...

00008900 <_ZN7android22QualcommCameraHardware7MemPoolD1Ev>:
    8900:	4b20      	ldr	r3, [pc, #128]	(8984 <_ZN7android22QualcommCameraHardware7MemPoolD1Ev+0x84>)
    8902:	4921      	ldr	r1, [pc, #132]	(8988 <_ZN7android22QualcommCameraHardware7MemPoolD1Ev+0x88>)
    8904:	447b      	add	r3, pc
    8906:	b570      	push	{r4, r5, r6, lr}
    8908:	4604      	mov	r4, r0
    890a:	5858      	ldr	r0, [r3, r1]
    890c:	491f      	ldr	r1, [pc, #124]	(898c <_ZN7android22QualcommCameraHardware7MemPoolD1Ev+0x8c>)
    890e:	f110 0208 	adds.w	r2, r0, #8	; 0x8
    8912:	6022      	str	r2, [r4, #0]
    8914:	4a1e      	ldr	r2, [pc, #120]	(8990 <_ZN7android22QualcommCameraHardware7MemPoolD1Ev+0x90>)
    8916:	2002      	movs	r0, #2
    8918:	6a23      	ldr	r3, [r4, #32]
    891a:	4479      	add	r1, pc
    891c:	447a      	add	r2, pc
    891e:	f7fe ef58 	blx	77d0 <_ZN7android22QualcommCameraHardware18filterPictureSizesEv-0x51c>
    8922:	6963      	ldr	r3, [r4, #20]
    8924:	2b00      	cmp	r3, #0
    8926:	dd18      	ble.n	895a <_ZN7android22QualcommCameraHardware7MemPoolD1Ev+0x5a>
    8928:	69e3      	ldr	r3, [r4, #28]
    892a:	b1b3      	cbz	r3, 895a <_ZN7android22QualcommCameraHardware7MemPoolD1Ev+0x5a>
    892c:	f853 5c04 	ldr.w	r5, [r3, #-4]
    8930:	eb03 0585 	add.w	r5, r3, r5, lsl #2
    8934:	69e3      	ldr	r3, [r4, #28]
    8936:	429d      	cmp	r5, r3
    8938:	d00b      	beq.n	8952 <_ZN7android22QualcommCameraHardware7MemPoolD1Ev+0x52>
    893a:	f855 3d04 	ldr.w	r3, [r5, #-4]!
    893e:	2b00      	cmp	r3, #0
    8940:	d0f8      	beq.n	8934 <_ZN7android22QualcommCameraHardware7MemPoolD1Ev+0x34>
    8942:	681a      	ldr	r2, [r3, #0]
    8944:	4629      	mov	r1, r5
    8946:	f852 0c0c 	ldr.w	r0, [r2, #-12]
    894a:	1818      	adds	r0, r3, r0
    894c:	f7fe ef4c 	blx	77e8 <_ZN7android22QualcommCameraHardware18filterPictureSizesEv-0x504>
    8950:	e7f0      	b.n	8934 <_ZN7android22QualcommCameraHardware7MemPoolD1Ev+0x34>
    8952:	f1a5 0008 	sub.w	r0, r5, #8	; 0x8
    8956:	f7fe ef7e 	blx	7854 <_ZN7android22QualcommCameraHardware18filterPictureSizesEv-0x498>
    895a:	f104 0518 	add.w	r5, r4, #24	; 0x18
    895e:	4628      	mov	r0, r5
    8960:	f7ff fbea 	bl	8138 <_ZN7android2spINS_14MemoryHeapBaseEE5clearEv>
    8964:	490b      	ldr	r1, [pc, #44]	(8994 <_ZN7android22QualcommCameraHardware7MemPoolD1Ev+0x94>)
    8966:	4a0c      	ldr	r2, [pc, #48]	(8998 <_ZN7android22QualcommCameraHardware7MemPoolD1Ev+0x98>)
    8968:	2002      	movs	r0, #2
    896a:	4479      	add	r1, pc
    896c:	6a23      	ldr	r3, [r4, #32]
    896e:	447a      	add	r2, pc
    8970:	f7fe ef2e 	blx	77d0 <_ZN7android22QualcommCameraHardware18filterPictureSizesEv-0x51c>
    8974:	4628      	mov	r0, r5
    8976:	f7ff fbed 	bl	8154 <_ZN7android2spINS_14MemoryHeapBaseEED1Ev>
    897a:	4620      	mov	r0, r4
    897c:	f7fe eef2 	blx	7764 <_ZN7android22QualcommCameraHardware18filterPictureSizesEv-0x588>
    8980:	4620      	mov	r0, r4
    8982:	bd70      	pop	{r4, r5, r6, pc}
    8984:	bdf0      	pop	{r4, r5, r6, r7, pc}
    8986:	0000      	lsls	r0, r0, #0
    8988:	fe84 ffff 	mcr2	15, 4, pc, cr4, cr15, {7}
    898c:	7a75      	ldrb	r5, [r6, #9]
    898e:	0000      	lsls	r0, r0, #0
    8990:	7e15      	ldrb	r5, [r2, #24]
    8992:	0000      	lsls	r0, r0, #0
    8994:	7a25      	ldrb	r5, [r4, #8]
    8996:	0000      	lsls	r0, r0, #0
    8998:	7dd9      	ldrb	r1, [r3, #23]
	...

0000899c <_ZN7android22QualcommCameraHardware7MemPoolD0Ev>:
    899c:	b510      	push	{r4, lr}
    899e:	4604      	mov	r4, r0
    89a0:	f7ff ffae 	bl	8900 <_ZN7android22QualcommCameraHardware7MemPoolD1Ev>
    89a4:	4620      	mov	r0, r4
    89a6:	f7fe eee4 	blx	7770 <_ZN7android22QualcommCameraHardware18filterPictureSizesEv-0x57c>
    89aa:	4620      	mov	r0, r4
    89ac:	bd10      	pop	{r4, pc}
    89ae:	bf00      	nop

000089b0 <_ZN7android22QualcommCameraHardware7MemPoolD2Ev>:
    89b0:	4b20      	ldr	r3, [pc, #128]	(8a34 <_ZN7android22QualcommCameraHardware7MemPoolD2Ev+0x84>)
    89b2:	4921      	ldr	r1, [pc, #132]	(8a38 <_ZN7android22QualcommCameraHardware7MemPoolD2Ev+0x88>)
    89b4:	447b      	add	r3, pc
    89b6:	b570      	push	{r4, r5, r6, lr}
    89b8:	4604      	mov	r4, r0
    89ba:	5858      	ldr	r0, [r3, r1]
    89bc:	491f      	ldr	r1, [pc, #124]	(8a3c <_ZN7android22QualcommCameraHardware7MemPoolD2Ev+0x8c>)
    89be:	f110 0208 	adds.w	r2, r0, #8	; 0x8
    89c2:	6022      	str	r2, [r4, #0]
    89c4:	4a1e      	ldr	r2, [pc, #120]	(8a40 <_ZN7android22QualcommCameraHardware7MemPoolD2Ev+0x90>)
    89c6:	2002      	movs	r0, #2
    89c8:	6a23      	ldr	r3, [r4, #32]
    89ca:	4479      	add	r1, pc
    89cc:	447a      	add	r2, pc
    89ce:	f7fe ef00 	blx	77d0 <_ZN7android22QualcommCameraHardware18filterPictureSizesEv-0x51c>
    89d2:	6963      	ldr	r3, [r4, #20]
    89d4:	2b00      	cmp	r3, #0
    89d6:	dd18      	ble.n	8a0a <_ZN7android22QualcommCameraHardware7MemPoolD2Ev+0x5a>
    89d8:	69e3      	ldr	r3, [r4, #28]
    89da:	b1b3      	cbz	r3, 8a0a <_ZN7android22QualcommCameraHardware7MemPoolD2Ev+0x5a>
    89dc:	f853 5c04 	ldr.w	r5, [r3, #-4]
    89e0:	eb03 0585 	add.w	r5, r3, r5, lsl #2
    89e4:	69e3      	ldr	r3, [r4, #28]
    89e6:	429d      	cmp	r5, r3
    89e8:	d00b      	beq.n	8a02 <_ZN7android22QualcommCameraHardware7MemPoolD2Ev+0x52>
    89ea:	f855 3d04 	ldr.w	r3, [r5, #-4]!
    89ee:	2b00      	cmp	r3, #0
    89f0:	d0f8      	beq.n	89e4 <_ZN7android22QualcommCameraHardware7MemPoolD2Ev+0x34>
    89f2:	681a      	ldr	r2, [r3, #0]
    89f4:	4629      	mov	r1, r5
    89f6:	f852 0c0c 	ldr.w	r0, [r2, #-12]
    89fa:	1818      	adds	r0, r3, r0
    89fc:	f7fe eef4 	blx	77e8 <_ZN7android22QualcommCameraHardware18filterPictureSizesEv-0x504>
    8a00:	e7f0      	b.n	89e4 <_ZN7android22QualcommCameraHardware7MemPoolD2Ev+0x34>
    8a02:	f1a5 0008 	sub.w	r0, r5, #8	; 0x8
    8a06:	f7fe ef26 	blx	7854 <_ZN7android22QualcommCameraHardware18filterPictureSizesEv-0x498>
    8a0a:	f104 0518 	add.w	r5, r4, #24	; 0x18
    8a0e:	4628      	mov	r0, r5
    8a10:	f7ff fb92 	bl	8138 <_ZN7android2spINS_14MemoryHeapBaseEE5clearEv>
    8a14:	490b      	ldr	r1, [pc, #44]	(8a44 <_ZN7android22QualcommCameraHardware7MemPoolD2Ev+0x94>)
    8a16:	4a0c      	ldr	r2, [pc, #48]	(8a48 <_ZN7android22QualcommCameraHardware7MemPoolD2Ev+0x98>)
    8a18:	2002      	movs	r0, #2
    8a1a:	4479      	add	r1, pc
    8a1c:	6a23      	ldr	r3, [r4, #32]
    8a1e:	447a      	add	r2, pc
    8a20:	f7fe eed6 	blx	77d0 <_ZN7android22QualcommCameraHardware18filterPictureSizesEv-0x51c>
    8a24:	4628      	mov	r0, r5
    8a26:	f7ff fb95 	bl	8154 <_ZN7android2spINS_14MemoryHeapBaseEED1Ev>
    8a2a:	4620      	mov	r0, r4
    8a2c:	f7fe ee9a 	blx	7764 <_ZN7android22QualcommCameraHardware18filterPictureSizesEv-0x588>
    8a30:	4620      	mov	r0, r4
    8a32:	bd70      	pop	{r4, r5, r6, pc}
    8a34:	bd40      	pop	{r6, pc}
    8a36:	0000      	lsls	r0, r0, #0
    8a38:	fe84 ffff 	mcr2	15, 4, pc, cr4, cr15, {7}
    8a3c:	79c5      	ldrb	r5, [r0, #7]
    8a3e:	0000      	lsls	r0, r0, #0
    8a40:	7d65      	ldrb	r5, [r4, #21]
    8a42:	0000      	lsls	r0, r0, #0
    8a44:	7975      	ldrb	r5, [r6, #5]
    8a46:	0000      	lsls	r0, r0, #0
    8a48:	7d29      	ldrb	r1, [r5, #20]
    8a4a:	0000      	lsls	r0, r0, #0
    8a4c:	4b06      	ldr	r3, [pc, #24]	(8a68 <_ZN7android22QualcommCameraHardware7MemPoolD2Ev+0xb8>)
    8a4e:	4907      	ldr	r1, [pc, #28]	(8a6c <_ZN7android22QualcommCameraHardware7MemPoolD2Ev+0xbc>)
    8a50:	447b      	add	r3, pc
    8a52:	b510      	push	{r4, lr}
    8a54:	4604      	mov	r4, r0
    8a56:	5858      	ldr	r0, [r3, r1]
    8a58:	f110 0208 	adds.w	r2, r0, #8	; 0x8
    8a5c:	4620      	mov	r0, r4
    8a5e:	6022      	str	r2, [r4, #0]
    8a60:	f7ff ffa6 	bl	89b0 <_ZN7android22QualcommCameraHardware7MemPoolD2Ev>
    8a64:	4620      	mov	r0, r4
    8a66:	bd10      	pop	{r4, pc}
    8a68:	bca4      	pop	{r2, r5, r7}
    8a6a:	0000      	lsls	r0, r0, #0
    8a6c:	fe88 ffff 	mcr2	15, 4, pc, cr8, cr15, {7}
    8a70:	b510      	push	{r4, lr}
    8a72:	4604      	mov	r4, r0
    8a74:	f7ff ffea 	bl	8a4c <_ZN7android22QualcommCameraHardware7MemPoolD2Ev+0x9c>
    8a78:	4620      	mov	r0, r4
    8a7a:	f7fe ee7a 	blx	7770 <_ZN7android22QualcommCameraHardware18filterPictureSizesEv-0x57c>
    8a7e:	4620      	mov	r0, r4
    8a80:	bd10      	pop	{r4, pc}
    8a82:	bf00      	nop
    8a84:	e92d 41f0 	stmdb	sp!, {r4, r5, r6, r7, r8, lr}
    8a88:	460c      	mov	r4, r1
    8a8a:	4617      	mov	r7, r2
    8a8c:	b172      	cbz	r2, 8aac <_ZN7android22QualcommCameraHardware7MemPoolD2Ev+0xfc>
    8a8e:	4605      	mov	r5, r0
    8a90:	2600      	movs	r6, #0
    8a92:	e009      	b.n	8aa8 <_ZN7android22QualcommCameraHardware7MemPoolD2Ev+0xf8>
    8a94:	f855 0b08 	ldr.w	r0, [r5], #8
    8a98:	4639      	mov	r1, r7
    8a9a:	f7fe eee2 	blx	7860 <_ZN7android22QualcommCameraHardware18filterPictureSizesEv-0x48c>
    8a9e:	b910      	cbnz	r0, 8aa6 <_ZN7android22QualcommCameraHardware7MemPoolD2Ev+0xf6>
    8aa0:	f855 0c04 	ldr.w	r0, [r5, #-4]
    8aa4:	e004      	b.n	8ab0 <_ZN7android22QualcommCameraHardware7MemPoolD2Ev+0x100>
    8aa6:	3601      	adds	r6, #1
    8aa8:	42a6      	cmp	r6, r4
    8aaa:	dbf3      	blt.n	8a94 <_ZN7android22QualcommCameraHardware7MemPoolD2Ev+0xe4>
    8aac:	f04f 30ff 	mov.w	r0, #4294967295	; 0xffffffff
    8ab0:	e8bd 81f0 	ldmia.w	sp!, {r4, r5, r6, r7, r8, pc}

00008ab4 <_ZN7android22QualcommCameraHardware14setAntibandingERKNS_16CameraParametersE>:
    8ab4:	4b0d      	ldr	r3, [pc, #52]	(8aec <_ZN7android22QualcommCameraHardware14setAntibandingERKNS_16CameraParametersE+0x38>)
    8ab6:	b510      	push	{r4, lr}
    8ab8:	490d      	ldr	r1, [pc, #52]	(8af0 <_ZN7android22QualcommCameraHardware14setAntibandingERKNS_16CameraParametersE+0x3c>)
    8aba:	447b      	add	r3, pc
    8abc:	681b      	ldr	r3, [r3, #0]
    8abe:	4604      	mov	r4, r0
    8ac0:	4479      	add	r1, pc
    8ac2:	6818      	ldr	r0, [r3, #0]
    8ac4:	f7fe eecc 	blx	7860 <_ZN7android22QualcommCameraHardware18filterPictureSizesEv-0x48c>
    8ac8:	b130      	cbz	r0, 8ad8 <_ZN7android22QualcommCameraHardware14setAntibandingERKNS_16CameraParametersE+0x24>
    8aca:	490a      	ldr	r1, [pc, #40]	(8af4 <_ZN7android22QualcommCameraHardware14setAntibandingERKNS_16CameraParametersE+0x40>)
    8acc:	f104 00e0 	add.w	r0, r4, #224	; 0xe0
    8ad0:	4479      	add	r1, pc
    8ad2:	f7fe eec6 	blx	7860 <_ZN7android22QualcommCameraHardware18filterPictureSizesEv-0x48c>
    8ad6:	b930      	cbnz	r0, 8ae6 <_ZN7android22QualcommCameraHardware14setAntibandingERKNS_16CameraParametersE+0x32>
    8ad8:	4907      	ldr	r1, [pc, #28]	(8af8 <_ZN7android22QualcommCameraHardware14setAntibandingERKNS_16CameraParametersE+0x44>)
    8ada:	2006      	movs	r0, #6
    8adc:	4a07      	ldr	r2, [pc, #28]	(8afc <_ZN7android22QualcommCameraHardware14setAntibandingERKNS_16CameraParametersE+0x48>)
    8ade:	4479      	add	r1, pc
    8ae0:	447a      	add	r2, pc
    8ae2:	f7fe ee76 	blx	77d0 <_ZN7android22QualcommCameraHardware18filterPictureSizesEv-0x51c>
    8ae6:	2000      	movs	r0, #0
    8ae8:	bd10      	pop	{r4, pc}
    8aea:	bf00      	nop
    8aec:	bea2      	bkpt	0x00a2
    8aee:	0000      	lsls	r0, r0, #0
    8af0:	7ca7      	ldrb	r7, [r4, #18]
    8af2:	0000      	lsls	r0, r0, #0
    8af4:	7c9b      	ldrb	r3, [r3, #18]
    8af6:	0000      	lsls	r0, r0, #0
    8af8:	78b1      	ldrb	r1, [r6, #2]
    8afa:	0000      	lsls	r0, r0, #0
    8afc:	7c92      	ldrb	r2, [r2, #18]
	...

00008b00 <_ZN7android12compare_typeINS_16key_value_pair_tINS_7String8ES2_EEEEiRKT_S6_>:
    8b00:	b570      	push	{r4, r5, r6, lr}
    8b02:	680c      	ldr	r4, [r1, #0]
    8b04:	6805      	ldr	r5, [r0, #0]
    8b06:	4620      	mov	r0, r4
    8b08:	4629      	mov	r1, r5
    8b0a:	f7fe eeaa 	blx	7860 <_ZN7android22QualcommCameraHardware18filterPictureSizesEv-0x48c>
    8b0e:	4621      	mov	r1, r4
    8b10:	4606      	mov	r6, r0
    8b12:	4628      	mov	r0, r5
    8b14:	f7fe eea4 	blx	7860 <_ZN7android22QualcommCameraHardware18filterPictureSizesEv-0x48c>
    8b18:	0fc0      	lsrs	r0, r0, #31
    8b1a:	ebc0 70d6 	rsb	r0, r0, r6, lsr #31
    8b1e:	bd70      	pop	{r4, r5, r6, pc}

00008b20 <_ZNK7android12SortedVectorINS_16key_value_pair_tINS_7String8ES2_EEE10do_compareEPKvS6_>:
    8b20:	b510      	push	{r4, lr}
    8b22:	4608      	mov	r0, r1
    8b24:	4611      	mov	r1, r2
    8b26:	f7ff ffeb 	bl	8b00 <_ZN7android12compare_typeINS_16key_value_pair_tINS_7String8ES2_EEEEiRKT_S6_>
    8b2a:	bd10      	pop	{r4, pc}

00008b2c <_ZN7android22QualcommCameraHardware18filterPreviewSizesEv>:
    8b2c:	4b28      	ldr	r3, [pc, #160]	(8bd0 <_ZN7android22QualcommCameraHardware18filterPreviewSizesEv+0xa4>)
    8b2e:	4929      	ldr	r1, [pc, #164]	(8bd4 <_ZN7android22QualcommCameraHardware18filterPreviewSizesEv+0xa8>)
    8b30:	447b      	add	r3, pc
    8b32:	4a29      	ldr	r2, [pc, #164]	(8bd8 <_ZN7android22QualcommCameraHardware18filterPreviewSizesEv+0xac>)
    8b34:	e92d 41f0 	stmdb	sp!, {r4, r5, r6, r7, r8, lr}
    8b38:	5859      	ldr	r1, [r3, r1]
    8b3a:	447a      	add	r2, pc
    8b3c:	6812      	ldr	r2, [r2, #0]
    8b3e:	680c      	ldr	r4, [r1, #0]
    8b40:	42a2      	cmp	r2, r4
    8b42:	d101      	bne.n	8b48 <_ZN7android22QualcommCameraHardware18filterPreviewSizesEv+0x1c>
    8b44:	2200      	movs	r2, #0
    8b46:	e00f      	b.n	8b68 <_ZN7android22QualcommCameraHardware18filterPreviewSizesEv+0x3c>
    8b48:	688c      	ldr	r4, [r1, #8]
    8b4a:	42a2      	cmp	r2, r4
    8b4c:	d101      	bne.n	8b52 <_ZN7android22QualcommCameraHardware18filterPreviewSizesEv+0x26>
    8b4e:	2201      	movs	r2, #1
    8b50:	e00a      	b.n	8b68 <_ZN7android22QualcommCameraHardware18filterPreviewSizesEv+0x3c>
    8b52:	690c      	ldr	r4, [r1, #16]
    8b54:	42a2      	cmp	r2, r4
    8b56:	d101      	bne.n	8b5c <_ZN7android22QualcommCameraHardware18filterPreviewSizesEv+0x30>
    8b58:	2202      	movs	r2, #2
    8b5a:	e005      	b.n	8b68 <_ZN7android22QualcommCameraHardware18filterPreviewSizesEv+0x3c>
    8b5c:	6989      	ldr	r1, [r1, #24]
    8b5e:	428a      	cmp	r2, r1
    8b60:	d001      	beq.n	8b66 <_ZN7android22QualcommCameraHardware18filterPreviewSizesEv+0x3a>
    8b62:	2400      	movs	r4, #0
    8b64:	e007      	b.n	8b76 <_ZN7android22QualcommCameraHardware18filterPreviewSizesEv+0x4a>
    8b66:	2203      	movs	r2, #3
    8b68:	f8df c068 	ldr.w	ip, [pc, #104]	; 8bd4 <_ZN7android22QualcommCameraHardware18filterPreviewSizesEv+0xa8>
    8b6c:	f853 300c 	ldr.w	r3, [r3, ip]
    8b70:	eb03 02c2 	add.w	r2, r3, r2, lsl #3
    8b74:	6854      	ldr	r4, [r2, #4]
    8b76:	4919      	ldr	r1, [pc, #100]	(8bdc <_ZN7android22QualcommCameraHardware18filterPreviewSizesEv+0xb0>)
    8b78:	30e0      	adds	r0, #224
    8b7a:	4479      	add	r1, pc
    8b7c:	f7fe ee70 	blx	7860 <_ZN7android22QualcommCameraHardware18filterPictureSizesEv-0x48c>
    8b80:	4917      	ldr	r1, [pc, #92]	(8be0 <_ZN7android22QualcommCameraHardware18filterPreviewSizesEv+0xb4>)
    8b82:	4479      	add	r1, pc
    8b84:	6809      	ldr	r1, [r1, #0]
    8b86:	2800      	cmp	r0, #0
    8b88:	bf08      	it	eq
    8b8a:	24ff      	moveq	r4, #255
    8b8c:	6988      	ldr	r0, [r1, #24]
    8b8e:	4004      	ands	r4, r0
    8b90:	d01c      	beq.n	8bcc <_ZN7android22QualcommCameraHardware18filterPreviewSizesEv+0xa0>
    8b92:	f8df e050 	ldr.w	lr, [pc, #80]	; 8be4 <_ZN7android22QualcommCameraHardware18filterPreviewSizesEv+0xb8>
    8b96:	2300      	movs	r3, #0
    8b98:	4d13      	ldr	r5, [pc, #76]	(8be8 <_ZN7android22QualcommCameraHardware18filterPreviewSizesEv+0xbc>)
    8b9a:	461a      	mov	r2, r3
    8b9c:	44fe      	add	lr, pc
    8b9e:	f44f 6600 	mov.w	r6, #2048	; 0x800
    8ba2:	447d      	add	r5, pc
    8ba4:	f10e 0c70 	add.w	ip, lr, #112	; 0x70
    8ba8:	4226      	tst	r6, r4
    8baa:	d008      	beq.n	8bbe <_ZN7android22QualcommCameraHardware18filterPreviewSizesEv+0x92>
    8bac:	eb0c 0103 	add.w	r1, ip, r3
    8bb0:	eb05 07c2 	add.w	r7, r5, r2, lsl #3
    8bb4:	3710      	adds	r7, #16
    8bb6:	3201      	adds	r2, #1
    8bb8:	c903      	ldmia	r1!, {r0, r1}
    8bba:	e887 0003 	stmia.w	r7, {r0, r1}
    8bbe:	3308      	adds	r3, #8
    8bc0:	0876      	lsrs	r6, r6, #1
    8bc2:	2b60      	cmp	r3, #96
    8bc4:	d1f0      	bne.n	8ba8 <_ZN7android22QualcommCameraHardware18filterPreviewSizesEv+0x7c>
    8bc6:	4b09      	ldr	r3, [pc, #36]	(8bec <_ZN7android22QualcommCameraHardware18filterPreviewSizesEv+0xc0>)
    8bc8:	447b      	add	r3, pc
    8bca:	671a      	str	r2, [r3, #112]
    8bcc:	e8bd 81f0 	ldmia.w	sp!, {r4, r5, r6, r7, r8, pc}
    8bd0:	bbc4      	cbnz	r4, 8c44 <_ZN7android22QualcommCameraHardware18filterPreviewSizesEv+0x118>
    8bd2:	0000      	lsls	r0, r0, #0
    8bd4:	fe8c ffff 	mcr2	15, 4, pc, cr12, cr15, {7}
    8bd8:	bd8a      	pop	{r1, r3, r7, pc}
    8bda:	0000      	lsls	r0, r0, #0
    8bdc:	7bf1      	ldrb	r1, [r6, #15]
    8bde:	0000      	lsls	r0, r0, #0
    8be0:	bdda      	pop	{r1, r3, r4, r6, r7, pc}
    8be2:	0000      	lsls	r0, r0, #0
    8be4:	7690      	strb	r0, [r2, #26]
    8be6:	0000      	lsls	r0, r0, #0
    8be8:	bdba      	pop	{r1, r3, r4, r5, r7, pc}
    8bea:	0000      	lsls	r0, r0, #0
    8bec:	bd94      	pop	{r2, r4, r7, pc}
    8bee:	0000      	lsls	r0, r0, #0
    8bf0:	b570      	push	{r4, r5, r6, lr}
    8bf2:	4d18      	ldr	r5, [pc, #96]	(8c54 <_ZN7android22QualcommCameraHardware18filterPreviewSizesEv+0x128>)
    8bf4:	4a18      	ldr	r2, [pc, #96]	(8c58 <_ZN7android22QualcommCameraHardware18filterPreviewSizesEv+0x12c>)
    8bf6:	b086      	sub	sp, #24
    8bf8:	447d      	add	r5, pc
    8bfa:	4606      	mov	r6, r0
    8bfc:	447a      	add	r2, pc
    8bfe:	2002      	movs	r0, #2
    8c00:	4629      	mov	r1, r5
    8c02:	2400      	movs	r4, #0
    8c04:	f7fe ede4 	blx	77d0 <_ZN7android22QualcommCameraHardware18filterPictureSizesEv-0x51c>
    8c08:	f44f 707a 	mov.w	r0, #1000	; 0x3e8
    8c0c:	4910      	ldr	r1, [pc, #64]	(8c50 <_ZN7android22QualcommCameraHardware18filterPreviewSizesEv+0x124>)
    8c0e:	aa01      	add	r2, sp, #4
    8c10:	9004      	str	r0, [sp, #16]
    8c12:	4630      	mov	r0, r6
    8c14:	f04f 033b 	mov.w	r3, #59	; 0x3b
    8c18:	f8ad 4006 	strh.w	r4, [sp, #6]
    8c1c:	f8ad 3004 	strh.w	r3, [sp, #4]
    8c20:	9402      	str	r4, [sp, #8]
    8c22:	9605      	str	r6, [sp, #20]
    8c24:	f7fe ee22 	blx	786c <_ZN7android22QualcommCameraHardware18filterPictureSizesEv-0x480>
    8c28:	42a0      	cmp	r0, r4
    8c2a:	4603      	mov	r3, r0
    8c2c:	da07      	bge.n	8c3e <_ZN7android22QualcommCameraHardware18filterPreviewSizesEv+0x112>
    8c2e:	4a0b      	ldr	r2, [pc, #44]	(8c5c <_ZN7android22QualcommCameraHardware18filterPreviewSizesEv+0x130>)
    8c30:	2006      	movs	r0, #6
    8c32:	4629      	mov	r1, r5
    8c34:	447a      	add	r2, pc
    8c36:	f7fe edcc 	blx	77d0 <_ZN7android22QualcommCameraHardware18filterPictureSizesEv-0x51c>
    8c3a:	4620      	mov	r0, r4
    8c3c:	e006      	b.n	8c4c <_ZN7android22QualcommCameraHardware18filterPreviewSizesEv+0x120>
    8c3e:	4a08      	ldr	r2, [pc, #32]	(8c60 <_ZN7android22QualcommCameraHardware18filterPreviewSizesEv+0x134>)
    8c40:	2002      	movs	r0, #2
    8c42:	4629      	mov	r1, r5
    8c44:	447a      	add	r2, pc
    8c46:	f7fe edc4 	blx	77d0 <_ZN7android22QualcommCameraHardware18filterPictureSizesEv-0x51c>
    8c4a:	2001      	movs	r0, #1
    8c4c:	b006      	add	sp, #24
    8c4e:	bd70      	pop	{r4, r5, r6, pc}
    8c50:	6d04      	ldr	r4, [r0, #80]
    8c52:	4004      	ands	r4, r0
    8c54:	7797      	strb	r7, [r2, #30]
    8c56:	0000      	lsls	r0, r0, #0
    8c58:	7bad      	ldrb	r5, [r5, #14]
    8c5a:	0000      	lsls	r0, r0, #0
    8c5c:	7b8f      	ldrb	r7, [r1, #14]
    8c5e:	0000      	lsls	r0, r0, #0
    8c60:	7bbb      	ldrb	r3, [r7, #14]
    8c62:	0000      	lsls	r0, r0, #0
    8c64:	b510      	push	{r4, lr}
    8c66:	b086      	sub	sp, #24
    8c68:	f44f 717a 	mov.w	r1, #1000	; 0x3e8
    8c6c:	aa01      	add	r2, sp, #4
    8c6e:	9104      	str	r1, [sp, #16]
    8c70:	f04f 033a 	mov.w	r3, #58	; 0x3a
    8c74:	490f      	ldr	r1, [pc, #60]	(8cb4 <_ZN7android22QualcommCameraHardware18filterPreviewSizesEv+0x188>)
    8c76:	2400      	movs	r4, #0
    8c78:	f8ad 3004 	strh.w	r3, [sp, #4]
    8c7c:	f8ad 4006 	strh.w	r4, [sp, #6]
    8c80:	9402      	str	r4, [sp, #8]
    8c82:	9005      	str	r0, [sp, #20]
    8c84:	f7fe edf2 	blx	786c <_ZN7android22QualcommCameraHardware18filterPictureSizesEv-0x480>
    8c88:	42a0      	cmp	r0, r4
    8c8a:	4603      	mov	r3, r0
    8c8c:	da08      	bge.n	8ca0 <_ZN7android22QualcommCameraHardware18filterPreviewSizesEv+0x174>
    8c8e:	490a      	ldr	r1, [pc, #40]	(8cb8 <_ZN7android22QualcommCameraHardware18filterPreviewSizesEv+0x18c>)
    8c90:	2006      	movs	r0, #6
    8c92:	4a0a      	ldr	r2, [pc, #40]	(8cbc <_ZN7android22QualcommCameraHardware18filterPreviewSizesEv+0x190>)
    8c94:	4479      	add	r1, pc
    8c96:	447a      	add	r2, pc
    8c98:	f7fe ed9a 	blx	77d0 <_ZN7android22QualcommCameraHardware18filterPictureSizesEv-0x51c>
    8c9c:	4620      	mov	r0, r4
    8c9e:	e007      	b.n	8cb0 <_ZN7android22QualcommCameraHardware18filterPreviewSizesEv+0x184>
    8ca0:	4907      	ldr	r1, [pc, #28]	(8cc0 <_ZN7android22QualcommCameraHardware18filterPreviewSizesEv+0x194>)
    8ca2:	2002      	movs	r0, #2
    8ca4:	4a07      	ldr	r2, [pc, #28]	(8cc4 <_ZN7android22QualcommCameraHardware18filterPreviewSizesEv+0x198>)
    8ca6:	4479      	add	r1, pc
    8ca8:	447a      	add	r2, pc
    8caa:	f7fe ed92 	blx	77d0 <_ZN7android22QualcommCameraHardware18filterPictureSizesEv-0x51c>
    8cae:	2001      	movs	r0, #1
    8cb0:	b006      	add	sp, #24
    8cb2:	bd10      	pop	{r4, pc}
    8cb4:	6d04      	ldr	r4, [r0, #80]
    8cb6:	4004      	ands	r4, r0
    8cb8:	76fb      	strb	r3, [r7, #27]
    8cba:	0000      	lsls	r0, r0, #0
    8cbc:	7b8e      	ldrb	r6, [r1, #14]
    8cbe:	0000      	lsls	r0, r0, #0
    8cc0:	76e9      	strb	r1, [r5, #27]
    8cc2:	0000      	lsls	r0, r0, #0
    8cc4:	7bbd      	ldrb	r5, [r7, #14]
	...

00008cc8 <_ZN7android22QualcommCameraHardware17native_zoom_imageEiiiP13common_crop_t>:
    8cc8:	e92d 41f0 	stmdb	sp!, {r4, r5, r6, r7, r8, lr}
    8ccc:	4c35      	ldr	r4, [pc, #212]	(8da4 <_ZN7android22QualcommCameraHardware17native_zoom_imageEiiiP13common_crop_t+0xdc>)
    8cce:	4d36      	ldr	r5, [pc, #216]	(8da8 <_ZN7android22QualcommCameraHardware17native_zoom_imageEiiiP13common_crop_t+0xe0>)
    8cd0:	2701      	movs	r7, #1
    8cd2:	447c      	add	r4, pc
    8cd4:	9e06      	ldr	r6, [sp, #24]
    8cd6:	5965      	ldr	r5, [r4, r5]
    8cd8:	602f      	str	r7, [r5, #0]
    8cda:	f8d0 7204 	ldr.w	r7, [r0, #516]
    8cde:	606f      	str	r7, [r5, #4]
    8ce0:	f8d0 7208 	ldr.w	r7, [r0, #520]
    8ce4:	6169      	str	r1, [r5, #20]
    8ce6:	612a      	str	r2, [r5, #16]
    8ce8:	60af      	str	r7, [r5, #8]
    8cea:	2702      	movs	r7, #2
    8cec:	60ef      	str	r7, [r5, #12]
    8cee:	f8d0 2204 	ldr.w	r2, [r0, #516]
    8cf2:	61aa      	str	r2, [r5, #24]
    8cf4:	f8d0 2208 	ldr.w	r2, [r0, #520]
    8cf8:	62a9      	str	r1, [r5, #40]
    8cfa:	626b      	str	r3, [r5, #36]
    8cfc:	61ea      	str	r2, [r5, #28]
    8cfe:	f04f 32ff 	mov.w	r2, #4294967295	; 0xffffffff
    8d02:	1c51      	adds	r1, r2, #1
    8d04:	622f      	str	r7, [r5, #32]
    8d06:	652a      	str	r2, [r5, #80]
    8d08:	f111 03ff 	adds.w	r3, r1, #255	; 0xff
    8d0c:	6569      	str	r1, [r5, #84]
    8d0e:	64eb      	str	r3, [r5, #76]
    8d10:	6932      	ldr	r2, [r6, #16]
    8d12:	b90a      	cbnz	r2, 8d18 <_ZN7android22QualcommCameraHardware17native_zoom_imageEiiiP13common_crop_t+0x50>
    8d14:	6973      	ldr	r3, [r6, #20]
    8d16:	b1ab      	cbz	r3, 8d44 <_ZN7android22QualcommCameraHardware17native_zoom_imageEiiiP13common_crop_t+0x7c>
    8d18:	69b1      	ldr	r1, [r6, #24]
    8d1a:	f8df c08c 	ldr.w	ip, [pc, #140]	; 8da8 <_ZN7android22QualcommCameraHardware17native_zoom_imageEiiiP13common_crop_t+0xe0>
    8d1e:	3101      	adds	r1, #1
    8d20:	1a8a      	subs	r2, r1, r2
    8d22:	f854 300c 	ldr.w	r3, [r4, ip]
    8d26:	0852      	lsrs	r2, r2, #1
    8d28:	1e51      	subs	r1, r2, #1
    8d2a:	62d9      	str	r1, [r3, #44]
    8d2c:	69f2      	ldr	r2, [r6, #28]
    8d2e:	6971      	ldr	r1, [r6, #20]
    8d30:	3201      	adds	r2, #1
    8d32:	1a52      	subs	r2, r2, r1
    8d34:	0852      	lsrs	r2, r2, #1
    8d36:	1e51      	subs	r1, r2, #1
    8d38:	6319      	str	r1, [r3, #48]
    8d3a:	6932      	ldr	r2, [r6, #16]
    8d3c:	635a      	str	r2, [r3, #52]
    8d3e:	6971      	ldr	r1, [r6, #20]
    8d40:	6399      	str	r1, [r3, #56]
    8d42:	e007      	b.n	8d54 <_ZN7android22QualcommCameraHardware17native_zoom_imageEiiiP13common_crop_t+0x8c>
    8d44:	62eb      	str	r3, [r5, #44]
    8d46:	632b      	str	r3, [r5, #48]
    8d48:	f8d0 2204 	ldr.w	r2, [r0, #516]
    8d4c:	636a      	str	r2, [r5, #52]
    8d4e:	f8d0 3208 	ldr.w	r3, [r0, #520]
    8d52:	63ab      	str	r3, [r5, #56]
    8d54:	f8df c050 	ldr.w	ip, [pc, #80]	; 8da8 <_ZN7android22QualcommCameraHardware17native_zoom_imageEiiiP13common_crop_t+0xe0>
    8d58:	f8df e050 	ldr.w	lr, [pc, #80]	; 8dac <_ZN7android22QualcommCameraHardware17native_zoom_imageEiiiP13common_crop_t+0xe4>
    8d5c:	f854 200c 	ldr.w	r2, [r4, ip]
    8d60:	2400      	movs	r4, #0
    8d62:	44fe      	add	lr, pc
    8d64:	63d4      	str	r4, [r2, #60]
    8d66:	6414      	str	r4, [r2, #64]
    8d68:	f8d0 3204 	ldr.w	r3, [r0, #516]
    8d6c:	6453      	str	r3, [r2, #68]
    8d6e:	f8d0 1208 	ldr.w	r1, [r0, #520]
    8d72:	6491      	str	r1, [r2, #72]
    8d74:	490a      	ldr	r1, [pc, #40]	(8da0 <_ZN7android22QualcommCameraHardware17native_zoom_imageEiiiP13common_crop_t+0xd8>)
    8d76:	f8de 0004 	ldr.w	r0, [lr, #4]
    8d7a:	f7fe ed78 	blx	786c <_ZN7android22QualcommCameraHardware18filterPictureSizesEv-0x480>
    8d7e:	42a0      	cmp	r0, r4
    8d80:	db01      	blt.n	8d86 <_ZN7android22QualcommCameraHardware17native_zoom_imageEiiiP13common_crop_t+0xbe>
    8d82:	2001      	movs	r0, #1
    8d84:	e009      	b.n	8d9a <_ZN7android22QualcommCameraHardware17native_zoom_imageEiiiP13common_crop_t+0xd2>
    8d86:	490a      	ldr	r1, [pc, #40]	(8db0 <_ZN7android22QualcommCameraHardware17native_zoom_imageEiiiP13common_crop_t+0xe8>)
    8d88:	2006      	movs	r0, #6
    8d8a:	4a0a      	ldr	r2, [pc, #40]	(8db4 <_ZN7android22QualcommCameraHardware17native_zoom_imageEiiiP13common_crop_t+0xec>)
    8d8c:	f640 43b9 	movw	r3, #3257	; 0xcb9
    8d90:	4479      	add	r1, pc
    8d92:	447a      	add	r2, pc
    8d94:	f7fe ed1c 	blx	77d0 <_ZN7android22QualcommCameraHardware18filterPictureSizesEv-0x51c>
    8d98:	4620      	mov	r0, r4
    8d9a:	e8bd 81f0 	ldmia.w	sp!, {r4, r5, r6, r7, r8, pc}
    8d9e:	bf00      	nop
    8da0:	6d02      	ldr	r2, [r0, #80]
    8da2:	4004      	ands	r4, r0
    8da4:	ba22      	rev	r2, r4
    8da6:	0000      	lsls	r0, r0, #0
    8da8:	fe90 ffff 	mrc2	15, 4, pc, cr0, cr15, {7}
    8dac:	bb62      	cbnz	r2, 8e08 <_ZN7android22QualcommCameraHardware17native_zoom_imageEiiiP13common_crop_t+0x140>
    8dae:	0000      	lsls	r0, r0, #0
    8db0:	75ff      	strb	r7, [r7, #23]
    8db2:	0000      	lsls	r0, r0, #0
    8db4:	7b12      	ldrb	r2, [r2, #12]
    8db6:	0000      	lsls	r0, r0, #0
    8db8:	b510      	push	{r4, lr}
    8dba:	b086      	sub	sp, #24
    8dbc:	f44f 717a 	mov.w	r1, #1000	; 0x3e8
    8dc0:	aa01      	add	r2, sp, #4
    8dc2:	9104      	str	r1, [sp, #16]
    8dc4:	f04f 0329 	mov.w	r3, #41	; 0x29
    8dc8:	490c      	ldr	r1, [pc, #48]	(8dfc <_ZN7android22QualcommCameraHardware17native_zoom_imageEiiiP13common_crop_t+0x134>)
    8dca:	2400      	movs	r4, #0
    8dcc:	f8ad 3004 	strh.w	r3, [sp, #4]
    8dd0:	f8ad 4006 	strh.w	r4, [sp, #6]
    8dd4:	9402      	str	r4, [sp, #8]
    8dd6:	9005      	str	r0, [sp, #20]
    8dd8:	f7fe ed48 	blx	786c <_ZN7android22QualcommCameraHardware18filterPictureSizesEv-0x480>
    8ddc:	42a0      	cmp	r0, r4
    8dde:	4603      	mov	r3, r0
    8de0:	db01      	blt.n	8de6 <_ZN7android22QualcommCameraHardware17native_zoom_imageEiiiP13common_crop_t+0x11e>
    8de2:	2001      	movs	r0, #1
    8de4:	e007      	b.n	8df6 <_ZN7android22QualcommCameraHardware17native_zoom_imageEiiiP13common_crop_t+0x12e>
    8de6:	4906      	ldr	r1, [pc, #24]	(8e00 <_ZN7android22QualcommCameraHardware17native_zoom_imageEiiiP13common_crop_t+0x138>)
    8de8:	2006      	movs	r0, #6
    8dea:	4a06      	ldr	r2, [pc, #24]	(8e04 <_ZN7android22QualcommCameraHardware17native_zoom_imageEiiiP13common_crop_t+0x13c>)
    8dec:	4479      	add	r1, pc
    8dee:	447a      	add	r2, pc
    8df0:	f7fe ecee 	blx	77d0 <_ZN7android22QualcommCameraHardware18filterPictureSizesEv-0x51c>
    8df4:	4620      	mov	r0, r4
    8df6:	b006      	add	sp, #24
    8df8:	bd10      	pop	{r4, pc}
    8dfa:	bf00      	nop
    8dfc:	6d04      	ldr	r4, [r0, #80]
    8dfe:	4004      	ands	r4, r0
    8e00:	75a3      	strb	r3, [r4, #22]
    8e02:	0000      	lsls	r0, r0, #0
    8e04:	7ad3      	ldrb	r3, [r2, #11]
    8e06:	0000      	lsls	r0, r0, #0
    8e08:	b510      	push	{r4, lr}
    8e0a:	b086      	sub	sp, #24
    8e0c:	f44f 717a 	mov.w	r1, #1000	; 0x3e8
    8e10:	aa01      	add	r2, sp, #4
    8e12:	9104      	str	r1, [sp, #16]
    8e14:	f04f 0339 	mov.w	r3, #57	; 0x39
    8e18:	490c      	ldr	r1, [pc, #48]	(8e4c <_ZN7android22QualcommCameraHardware17native_zoom_imageEiiiP13common_crop_t+0x184>)
    8e1a:	2400      	movs	r4, #0
    8e1c:	f8ad 3004 	strh.w	r3, [sp, #4]
    8e20:	f8ad 4006 	strh.w	r4, [sp, #6]
    8e24:	9402      	str	r4, [sp, #8]
    8e26:	9005      	str	r0, [sp, #20]
    8e28:	f7fe ed20 	blx	786c <_ZN7android22QualcommCameraHardware18filterPictureSizesEv-0x480>
    8e2c:	42a0      	cmp	r0, r4
    8e2e:	4603      	mov	r3, r0
    8e30:	db01      	blt.n	8e36 <_ZN7android22QualcommCameraHardware17native_zoom_imageEiiiP13common_crop_t+0x16e>
    8e32:	2001      	movs	r0, #1
    8e34:	e007      	b.n	8e46 <_ZN7android22QualcommCameraHardware17native_zoom_imageEiiiP13common_crop_t+0x17e>
    8e36:	4906      	ldr	r1, [pc, #24]	(8e50 <_ZN7android22QualcommCameraHardware17native_zoom_imageEiiiP13common_crop_t+0x188>)
    8e38:	2006      	movs	r0, #6
    8e3a:	4a06      	ldr	r2, [pc, #24]	(8e54 <_ZN7android22QualcommCameraHardware17native_zoom_imageEiiiP13common_crop_t+0x18c>)
    8e3c:	4479      	add	r1, pc
    8e3e:	447a      	add	r2, pc
    8e40:	f7fe ecc6 	blx	77d0 <_ZN7android22QualcommCameraHardware18filterPictureSizesEv-0x51c>
    8e44:	4620      	mov	r0, r4
    8e46:	b006      	add	sp, #24
    8e48:	bd10      	pop	{r4, pc}
    8e4a:	bf00      	nop
    8e4c:	6d04      	ldr	r4, [r0, #80]
    8e4e:	4004      	ands	r4, r0
    8e50:	7553      	strb	r3, [r2, #21]
    8e52:	0000      	lsls	r0, r0, #0
    8e54:	7985      	ldrb	r5, [r0, #6]
    8e56:	0000      	lsls	r0, r0, #0
    8e58:	b510      	push	{r4, lr}
    8e5a:	b086      	sub	sp, #24
    8e5c:	f44f 717a 	mov.w	r1, #1000	; 0x3e8
    8e60:	aa01      	add	r2, sp, #4
    8e62:	9104      	str	r1, [sp, #16]
    8e64:	f04f 0338 	mov.w	r3, #56	; 0x38
    8e68:	490c      	ldr	r1, [pc, #48]	(8e9c <_ZN7android22QualcommCameraHardware17native_zoom_imageEiiiP13common_crop_t+0x1d4>)
    8e6a:	2400      	movs	r4, #0
    8e6c:	f8ad 3004 	strh.w	r3, [sp, #4]
    8e70:	f8ad 4006 	strh.w	r4, [sp, #6]
    8e74:	9402      	str	r4, [sp, #8]
    8e76:	9005      	str	r0, [sp, #20]
    8e78:	f7fe ecf8 	blx	786c <_ZN7android22QualcommCameraHardware18filterPictureSizesEv-0x480>
    8e7c:	42a0      	cmp	r0, r4
    8e7e:	4603      	mov	r3, r0
    8e80:	db01      	blt.n	8e86 <_ZN7android22QualcommCameraHardware17native_zoom_imageEiiiP13common_crop_t+0x1be>
    8e82:	2001      	movs	r0, #1
    8e84:	e007      	b.n	8e96 <_ZN7android22QualcommCameraHardware17native_zoom_imageEiiiP13common_crop_t+0x1ce>
    8e86:	4906      	ldr	r1, [pc, #24]	(8ea0 <_ZN7android22QualcommCameraHardware17native_zoom_imageEiiiP13common_crop_t+0x1d8>)
    8e88:	2006      	movs	r0, #6
    8e8a:	4a06      	ldr	r2, [pc, #24]	(8ea4 <_ZN7android22QualcommCameraHardware17native_zoom_imageEiiiP13common_crop_t+0x1dc>)
    8e8c:	4479      	add	r1, pc
    8e8e:	447a      	add	r2, pc
    8e90:	f7fe ec9e 	blx	77d0 <_ZN7android22QualcommCameraHardware18filterPictureSizesEv-0x51c>
    8e94:	4620      	mov	r0, r4
    8e96:	b006      	add	sp, #24
    8e98:	bd10      	pop	{r4, pc}
    8e9a:	bf00      	nop
    8e9c:	6d04      	ldr	r4, [r0, #80]
    8e9e:	4004      	ands	r4, r0
    8ea0:	7503      	strb	r3, [r0, #20]
    8ea2:	0000      	lsls	r0, r0, #0
    8ea4:	7a77      	ldrb	r7, [r6, #9]
    8ea6:	0000      	lsls	r0, r0, #0
    8ea8:	b5f0      	push	{r4, r5, r6, r7, lr}
    8eaa:	b08b      	sub	sp, #44
    8eac:	4605      	mov	r5, r0
    8eae:	9303      	str	r3, [sp, #12]
    8eb0:	9b10      	ldr	r3, [sp, #64]
    8eb2:	9812      	ldr	r0, [sp, #72]
    8eb4:	9f11      	ldr	r7, [sp, #68]
    8eb6:	9305      	str	r3, [sp, #20]
    8eb8:	2300      	movs	r3, #0
    8eba:	2805      	cmp	r0, #5
    8ebc:	f89d 404c 	ldrb.w	r4, [sp, #76]
    8ec0:	f89d 6050 	ldrb.w	r6, [sp, #80]
    8ec4:	9002      	str	r0, [sp, #8]
    8ec6:	9106      	str	r1, [sp, #24]
    8ec8:	9704      	str	r7, [sp, #16]
    8eca:	9307      	str	r3, [sp, #28]
    8ecc:	bf08      	it	eq
    8ece:	9308      	streq	r3, [sp, #32]
    8ed0:	d007      	beq.n	8ee2 <_ZN7android22QualcommCameraHardware17native_zoom_imageEiiiP13common_crop_t+0x21a>
    8ed2:	0050      	lsls	r0, r2, #1
    8ed4:	2103      	movs	r1, #3
    8ed6:	f7fe ec40 	blx	7758 <_ZN7android22QualcommCameraHardware18filterPictureSizesEv-0x594>
    8eda:	07c2      	lsls	r2, r0, #31
    8edc:	bf48      	it	mi
    8ede:	3001      	addmi	r0, #1
    8ee0:	9008      	str	r0, [sp, #32]
    8ee2:	f88d 4024 	strb.w	r4, [sp, #36]
    8ee6:	f086 0101 	eor.w	r1, r6, #1	; 0x1
    8eea:	4c16      	ldr	r4, [pc, #88]	(8f44 <_ZN7android22QualcommCameraHardware17native_zoom_imageEiiiP13common_crop_t+0x27c>)
    8eec:	2002      	movs	r0, #2
    8eee:	4a16      	ldr	r2, [pc, #88]	(8f48 <_ZN7android22QualcommCameraHardware17native_zoom_imageEiiiP13common_crop_t+0x280>)
    8ef0:	462b      	mov	r3, r5
    8ef2:	447c      	add	r4, pc
    8ef4:	9100      	str	r1, [sp, #0]
    8ef6:	447a      	add	r2, pc
    8ef8:	4621      	mov	r1, r4
    8efa:	9701      	str	r7, [sp, #4]
    8efc:	f7fe ec68 	blx	77d0 <_ZN7android22QualcommCameraHardware18filterPictureSizesEv-0x51c>
    8f00:	4a0e      	ldr	r2, [pc, #56]	(8f3c <_ZN7android22QualcommCameraHardware17native_zoom_imageEiiiP13common_crop_t+0x274>)
    8f02:	4628      	mov	r0, r5
    8f04:	490e      	ldr	r1, [pc, #56]	(8f40 <_ZN7android22QualcommCameraHardware17native_zoom_imageEiiiP13common_crop_t+0x278>)
    8f06:	2e00      	cmp	r6, #0
    8f08:	bf08      	it	eq
    8f0a:	4611      	moveq	r1, r2
    8f0c:	aa02      	add	r2, sp, #8
    8f0e:	f7fe ecae 	blx	786c <_ZN7android22QualcommCameraHardware18filterPictureSizesEv-0x480>
    8f12:	2800      	cmp	r0, #0
    8f14:	db01      	blt.n	8f1a <_ZN7android22QualcommCameraHardware17native_zoom_imageEiiiP13common_crop_t+0x252>
    8f16:	2001      	movs	r0, #1
    8f18:	e00d      	b.n	8f36 <_ZN7android22QualcommCameraHardware17native_zoom_imageEiiiP13common_crop_t+0x26e>
    8f1a:	f7fe ecae 	blx	7878 <_ZN7android22QualcommCameraHardware18filterPictureSizesEv-0x474>
    8f1e:	6800      	ldr	r0, [r0, #0]
    8f20:	f7fe ecb0 	blx	7884 <_ZN7android22QualcommCameraHardware18filterPictureSizesEv-0x468>
    8f24:	4a09      	ldr	r2, [pc, #36]	(8f4c <_ZN7android22QualcommCameraHardware17native_zoom_imageEiiiP13common_crop_t+0x284>)
    8f26:	4621      	mov	r1, r4
    8f28:	462b      	mov	r3, r5
    8f2a:	447a      	add	r2, pc
    8f2c:	9000      	str	r0, [sp, #0]
    8f2e:	2006      	movs	r0, #6
    8f30:	f7fe ec4e 	blx	77d0 <_ZN7android22QualcommCameraHardware18filterPictureSizesEv-0x51c>
    8f34:	2000      	movs	r0, #0
    8f36:	b00b      	add	sp, #44
    8f38:	bdf0      	pop	{r4, r5, r6, r7, pc}
    8f3a:	bf00      	nop
    8f3c:	6d03      	ldr	r3, [r0, #80]
    8f3e:	4004      	ands	r4, r0
    8f40:	6d02      	ldr	r2, [r0, #80]
    8f42:	4004      	ands	r4, r0
    8f44:	749d      	strb	r5, [r3, #18]
    8f46:	0000      	lsls	r0, r0, #0
    8f48:	7a4c      	ldrb	r4, [r1, #9]
    8f4a:	0000      	lsls	r0, r0, #0
    8f4c:	7a47      	ldrb	r7, [r0, #9]
	...

00008f50 <_ZN7android22QualcommCameraHardware8PmemPoolD1Ev>:
    8f50:	4b3c      	ldr	r3, [pc, #240]	(9044 <_ZN7android22QualcommCameraHardware8PmemPoolD1Ev+0xf4>)
    8f52:	f8df c0f4 	ldr.w	ip, [pc, #244]	; 9048 <_ZN7android22QualcommCameraHardware8PmemPoolD1Ev+0xf8>
    8f56:	447b      	add	r3, pc
    8f58:	e92d 4ff0 	stmdb	sp!, {r4, r5, r6, r7, r8, r9, sl, fp, lr}
    8f5c:	f853 100c 	ldr.w	r1, [r3, ip]
    8f60:	4604      	mov	r4, r0
    8f62:	4d3a      	ldr	r5, [pc, #232]	(904c <_ZN7android22QualcommCameraHardware8PmemPoolD1Ev+0xfc>)
    8f64:	f111 0208 	adds.w	r2, r1, #8	; 0x8
    8f68:	6002      	str	r2, [r0, #0]
    8f6a:	6a00      	ldr	r0, [r0, #32]
    8f6c:	b089      	sub	sp, #36
    8f6e:	4938      	ldr	r1, [pc, #224]	(9050 <_ZN7android22QualcommCameraHardware8PmemPoolD1Ev+0x100>)
    8f70:	447d      	add	r5, pc
    8f72:	4a38      	ldr	r2, [pc, #224]	(9054 <_ZN7android22QualcommCameraHardware8PmemPoolD1Ev+0x104>)
    8f74:	f115 03d0 	adds.w	r3, r5, #208	; 0xd0
    8f78:	9000      	str	r0, [sp, #0]
    8f7a:	4479      	add	r1, pc
    8f7c:	447a      	add	r2, pc
    8f7e:	2002      	movs	r0, #2
    8f80:	f7fe ec26 	blx	77d0 <_ZN7android22QualcommCameraHardware18filterPictureSizesEv-0x51c>
    8f84:	69a3      	ldr	r3, [r4, #24]
    8f86:	2b00      	cmp	r3, #0
    8f88:	d03c      	beq.n	9004 <_ZN7android22QualcommCameraHardware8PmemPoolD1Ev+0xb4>
    8f8a:	6a25      	ldr	r5, [r4, #32]
    8f8c:	4832      	ldr	r0, [pc, #200]	(9058 <_ZN7android22QualcommCameraHardware8PmemPoolD1Ev+0x108>)
    8f8e:	4629      	mov	r1, r5
    8f90:	4478      	add	r0, pc
    8f92:	f7fe ec66 	blx	7860 <_ZN7android22QualcommCameraHardware18filterPictureSizesEv-0x48c>
    8f96:	2800      	cmp	r0, #0
    8f98:	d034      	beq.n	9004 <_ZN7android22QualcommCameraHardware8PmemPoolD1Ev+0xb4>
    8f9a:	4830      	ldr	r0, [pc, #192]	(905c <_ZN7android22QualcommCameraHardware8PmemPoolD1Ev+0x10c>)
    8f9c:	4629      	mov	r1, r5
    8f9e:	6926      	ldr	r6, [r4, #16]
    8fa0:	2500      	movs	r5, #0
    8fa2:	4478      	add	r0, pc
    8fa4:	462f      	mov	r7, r5
    8fa6:	f7fe ec5c 	blx	7860 <_ZN7android22QualcommCameraHardware18filterPictureSizesEv-0x48c>
    8faa:	2800      	cmp	r0, #0
    8fac:	bf08      	it	eq
    8fae:	2604      	moveq	r6, #4
    8fb0:	e026      	b.n	9000 <_ZN7android22QualcommCameraHardware8PmemPoolD1Ev+0xb0>
    8fb2:	69a0      	ldr	r0, [r4, #24]
    8fb4:	f8d4 b02c 	ldr.w	fp, [r4, #44]
    8fb8:	f8d4 a008 	ldr.w	sl, [r4, #8]
    8fbc:	6801      	ldr	r1, [r0, #0]
    8fbe:	f8d4 9014 	ldr.w	r9, [r4, #20]
    8fc2:	688a      	ldr	r2, [r1, #8]
    8fc4:	4790      	blx	r2
    8fc6:	69a2      	ldr	r2, [r4, #24]
    8fc8:	68e3      	ldr	r3, [r4, #12]
    8fca:	6811      	ldr	r1, [r2, #0]
    8fcc:	fb03 f305 	mul.w	r3, r3, r5
    8fd0:	4680      	mov	r8, r0
    8fd2:	f851 0c0c 	ldr.w	r0, [r1, #-12]
    8fd6:	9307      	str	r3, [sp, #28]
    8fd8:	1810      	adds	r0, r2, r0
    8fda:	f7fe fe6d 	bl	7cb8 <_ZN7android22QualcommCameraHardware18filterPictureSizesEv-0x34>
    8fde:	68e2      	ldr	r2, [r4, #12]
    8fe0:	9907      	ldr	r1, [sp, #28]
    8fe2:	6aa3      	ldr	r3, [r4, #40]
    8fe4:	9703      	str	r7, [sp, #12]
    8fe6:	9100      	str	r1, [sp, #0]
    8fe8:	4651      	mov	r1, sl
    8fea:	9302      	str	r3, [sp, #8]
    8fec:	4643      	mov	r3, r8
    8fee:	9704      	str	r7, [sp, #16]
    8ff0:	fb02 0005 	mla	r0, r2, r5, r0
    8ff4:	464a      	mov	r2, r9
    8ff6:	3501      	adds	r5, #1
    8ff8:	9001      	str	r0, [sp, #4]
    8ffa:	4658      	mov	r0, fp
    8ffc:	f7ff ff54 	bl	8ea8 <_ZN7android22QualcommCameraHardware17native_zoom_imageEiiiP13common_crop_t+0x1e0>
    9000:	42b5      	cmp	r5, r6
    9002:	dbd6      	blt.n	8fb2 <_ZN7android22QualcommCameraHardware8PmemPoolD1Ev+0x62>
    9004:	6ae1      	ldr	r1, [r4, #44]
    9006:	2002      	movs	r0, #2
    9008:	4d15      	ldr	r5, [pc, #84]	(9060 <_ZN7android22QualcommCameraHardware8PmemPoolD1Ev+0x110>)
    900a:	4a16      	ldr	r2, [pc, #88]	(9064 <_ZN7android22QualcommCameraHardware8PmemPoolD1Ev+0x114>)
    900c:	447d      	add	r5, pc
    900e:	6a23      	ldr	r3, [r4, #32]
    9010:	447a      	add	r2, pc
    9012:	9100      	str	r1, [sp, #0]
    9014:	4629      	mov	r1, r5
    9016:	f7fe ebdc 	blx	77d0 <_ZN7android22QualcommCameraHardware18filterPictureSizesEv-0x51c>
    901a:	6ae0      	ldr	r0, [r4, #44]
    901c:	f7fe ec38 	blx	7890 <_ZN7android22QualcommCameraHardware18filterPictureSizesEv-0x45c>
    9020:	6a20      	ldr	r0, [r4, #32]
    9022:	4b11      	ldr	r3, [pc, #68]	(9068 <_ZN7android22QualcommCameraHardware8PmemPoolD1Ev+0x118>)
    9024:	4629      	mov	r1, r5
    9026:	4a11      	ldr	r2, [pc, #68]	(906c <_ZN7android22QualcommCameraHardware8PmemPoolD1Ev+0x11c>)
    9028:	447b      	add	r3, pc
    902a:	9000      	str	r0, [sp, #0]
    902c:	447a      	add	r2, pc
    902e:	33d0      	adds	r3, #208
    9030:	2002      	movs	r0, #2
    9032:	f7fe ebce 	blx	77d0 <_ZN7android22QualcommCameraHardware18filterPictureSizesEv-0x51c>
    9036:	4620      	mov	r0, r4
    9038:	f7ff fcba 	bl	89b0 <_ZN7android22QualcommCameraHardware7MemPoolD2Ev>
    903c:	4620      	mov	r0, r4
    903e:	b009      	add	sp, #36
    9040:	e8bd 8ff0 	ldmia.w	sp!, {r4, r5, r6, r7, r8, r9, sl, fp, pc}
    9044:	b79e      	undefined
    9046:	0000      	lsls	r0, r0, #0
    9048:	fe94 ffff 	mrc2	15, 4, pc, cr4, cr15, {7}
    904c:	72bc      	strb	r4, [r7, #10]
    904e:	0000      	lsls	r0, r0, #0
    9050:	7415      	strb	r5, [r2, #16]
    9052:	0000      	lsls	r0, r0, #0
    9054:	7a32      	ldrb	r2, [r6, #8]
    9056:	0000      	lsls	r0, r0, #0
    9058:	7a27      	ldrb	r7, [r4, #8]
    905a:	0000      	lsls	r0, r0, #0
    905c:	7a1e      	ldrb	r6, [r3, #8]
    905e:	0000      	lsls	r0, r0, #0
    9060:	7383      	strb	r3, [r0, #14]
    9062:	0000      	lsls	r0, r0, #0
    9064:	79b8      	ldrb	r0, [r7, #6]
    9066:	0000      	lsls	r0, r0, #0
    9068:	7204      	strb	r4, [r0, #8]
    906a:	0000      	lsls	r0, r0, #0
    906c:	79ca      	ldrb	r2, [r1, #7]
	...

00009070 <_ZN7android22QualcommCameraHardware8PmemPoolD0Ev>:
    9070:	b510      	push	{r4, lr}
    9072:	4604      	mov	r4, r0
    9074:	f7ff ff6c 	bl	8f50 <_ZN7android22QualcommCameraHardware8PmemPoolD1Ev>
    9078:	4620      	mov	r0, r4
    907a:	f7fe eb7a 	blx	7770 <_ZN7android22QualcommCameraHardware18filterPictureSizesEv-0x57c>
    907e:	4620      	mov	r0, r4
    9080:	bd10      	pop	{r4, pc}
    9082:	bf00      	nop

00009084 <_ZN7android22QualcommCameraHardware8PmemPoolD2Ev>:
    9084:	4b3c      	ldr	r3, [pc, #240]	(9178 <_ZN7android22QualcommCameraHardware8PmemPoolD2Ev+0xf4>)
    9086:	f8df c0f4 	ldr.w	ip, [pc, #244]	; 917c <_ZN7android22QualcommCameraHardware8PmemPoolD2Ev+0xf8>
    908a:	447b      	add	r3, pc
    908c:	e92d 4ff0 	stmdb	sp!, {r4, r5, r6, r7, r8, r9, sl, fp, lr}
    9090:	f853 100c 	ldr.w	r1, [r3, ip]
    9094:	4604      	mov	r4, r0
    9096:	4d3a      	ldr	r5, [pc, #232]	(9180 <_ZN7android22QualcommCameraHardware8PmemPoolD2Ev+0xfc>)
    9098:	f111 0208 	adds.w	r2, r1, #8	; 0x8
    909c:	6002      	str	r2, [r0, #0]
    909e:	6a00      	ldr	r0, [r0, #32]
    90a0:	b089      	sub	sp, #36
    90a2:	4938      	ldr	r1, [pc, #224]	(9184 <_ZN7android22QualcommCameraHardware8PmemPoolD2Ev+0x100>)
    90a4:	447d      	add	r5, pc
    90a6:	4a38      	ldr	r2, [pc, #224]	(9188 <_ZN7android22QualcommCameraHardware8PmemPoolD2Ev+0x104>)
    90a8:	f115 03d0 	adds.w	r3, r5, #208	; 0xd0
    90ac:	9000      	str	r0, [sp, #0]
    90ae:	4479      	add	r1, pc
    90b0:	447a      	add	r2, pc
    90b2:	2002      	movs	r0, #2
    90b4:	f7fe eb8c 	blx	77d0 <_ZN7android22QualcommCameraHardware18filterPictureSizesEv-0x51c>
    90b8:	69a3      	ldr	r3, [r4, #24]
    90ba:	2b00      	cmp	r3, #0
    90bc:	d03c      	beq.n	9138 <_ZN7android22QualcommCameraHardware8PmemPoolD2Ev+0xb4>
    90be:	6a25      	ldr	r5, [r4, #32]
    90c0:	4832      	ldr	r0, [pc, #200]	(918c <_ZN7android22QualcommCameraHardware8PmemPoolD2Ev+0x108>)
    90c2:	4629      	mov	r1, r5
    90c4:	4478      	add	r0, pc
    90c6:	f7fe ebcc 	blx	7860 <_ZN7android22QualcommCameraHardware18filterPictureSizesEv-0x48c>
    90ca:	2800      	cmp	r0, #0
    90cc:	d034      	beq.n	9138 <_ZN7android22QualcommCameraHardware8PmemPoolD2Ev+0xb4>
    90ce:	4830      	ldr	r0, [pc, #192]	(9190 <_ZN7android22QualcommCameraHardware8PmemPoolD2Ev+0x10c>)
    90d0:	4629      	mov	r1, r5
    90d2:	6926      	ldr	r6, [r4, #16]
    90d4:	2500      	movs	r5, #0
    90d6:	4478      	add	r0, pc
    90d8:	462f      	mov	r7, r5
    90da:	f7fe ebc2 	blx	7860 <_ZN7android22QualcommCameraHardware18filterPictureSizesEv-0x48c>
    90de:	2800      	cmp	r0, #0
    90e0:	bf08      	it	eq
    90e2:	2604      	moveq	r6, #4
    90e4:	e026      	b.n	9134 <_ZN7android22QualcommCameraHardware8PmemPoolD2Ev+0xb0>
    90e6:	69a0      	ldr	r0, [r4, #24]
    90e8:	f8d4 b02c 	ldr.w	fp, [r4, #44]
    90ec:	f8d4 a008 	ldr.w	sl, [r4, #8]
    90f0:	6801      	ldr	r1, [r0, #0]
    90f2:	f8d4 9014 	ldr.w	r9, [r4, #20]
    90f6:	688a      	ldr	r2, [r1, #8]
    90f8:	4790      	blx	r2
    90fa:	69a2      	ldr	r2, [r4, #24]
    90fc:	68e3      	ldr	r3, [r4, #12]
    90fe:	6811      	ldr	r1, [r2, #0]
    9100:	fb03 f305 	mul.w	r3, r3, r5
    9104:	4680      	mov	r8, r0
    9106:	f851 0c0c 	ldr.w	r0, [r1, #-12]
    910a:	9307      	str	r3, [sp, #28]
    910c:	1810      	adds	r0, r2, r0
    910e:	f7fe fdd3 	bl	7cb8 <_ZN7android22QualcommCameraHardware18filterPictureSizesEv-0x34>
    9112:	68e2      	ldr	r2, [r4, #12]
    9114:	9907      	ldr	r1, [sp, #28]
    9116:	6aa3      	ldr	r3, [r4, #40]
    9118:	9703      	str	r7, [sp, #12]
    911a:	9100      	str	r1, [sp, #0]
    911c:	4651      	mov	r1, sl
    911e:	9302      	str	r3, [sp, #8]
    9120:	4643      	mov	r3, r8
    9122:	9704      	str	r7, [sp, #16]
    9124:	fb02 0005 	mla	r0, r2, r5, r0
    9128:	464a      	mov	r2, r9
    912a:	3501      	adds	r5, #1
    912c:	9001      	str	r0, [sp, #4]
    912e:	4658      	mov	r0, fp
    9130:	f7ff feba 	bl	8ea8 <_ZN7android22QualcommCameraHardware17native_zoom_imageEiiiP13common_crop_t+0x1e0>
    9134:	42b5      	cmp	r5, r6
    9136:	dbd6      	blt.n	90e6 <_ZN7android22QualcommCameraHardware8PmemPoolD2Ev+0x62>
    9138:	6ae1      	ldr	r1, [r4, #44]
    913a:	2002      	movs	r0, #2
    913c:	4d15      	ldr	r5, [pc, #84]	(9194 <_ZN7android22QualcommCameraHardware8PmemPoolD2Ev+0x110>)
    913e:	4a16      	ldr	r2, [pc, #88]	(9198 <_ZN7android22QualcommCameraHardware8PmemPoolD2Ev+0x114>)
    9140:	447d      	add	r5, pc
    9142:	6a23      	ldr	r3, [r4, #32]
    9144:	447a      	add	r2, pc
    9146:	9100      	str	r1, [sp, #0]
    9148:	4629      	mov	r1, r5
    914a:	f7fe eb42 	blx	77d0 <_ZN7android22QualcommCameraHardware18filterPictureSizesEv-0x51c>
    914e:	6ae0      	ldr	r0, [r4, #44]
    9150:	f7fe eb9e 	blx	7890 <_ZN7android22QualcommCameraHardware18filterPictureSizesEv-0x45c>
    9154:	6a20      	ldr	r0, [r4, #32]
    9156:	4b11      	ldr	r3, [pc, #68]	(919c <_ZN7android22QualcommCameraHardware8PmemPoolD2Ev+0x118>)
    9158:	4629      	mov	r1, r5
    915a:	4a11      	ldr	r2, [pc, #68]	(91a0 <_ZN7android22QualcommCameraHardware8PmemPoolD2Ev+0x11c>)
    915c:	447b      	add	r3, pc
    915e:	9000      	str	r0, [sp, #0]
    9160:	447a      	add	r2, pc
    9162:	33d0      	adds	r3, #208
    9164:	2002      	movs	r0, #2
    9166:	f7fe eb34 	blx	77d0 <_ZN7android22QualcommCameraHardware18filterPictureSizesEv-0x51c>
    916a:	4620      	mov	r0, r4
    916c:	f7ff fc20 	bl	89b0 <_ZN7android22QualcommCameraHardware7MemPoolD2Ev>
    9170:	4620      	mov	r0, r4
    9172:	b009      	add	sp, #36
    9174:	e8bd 8ff0 	ldmia.w	sp!, {r4, r5, r6, r7, r8, r9, sl, fp, pc}
    9178:	b66a      	undefined
    917a:	0000      	lsls	r0, r0, #0
    917c:	fe94 ffff 	mrc2	15, 4, pc, cr4, cr15, {7}
    9180:	7188      	strb	r0, [r1, #6]
    9182:	0000      	lsls	r0, r0, #0
    9184:	72e1      	strb	r1, [r4, #11]
    9186:	0000      	lsls	r0, r0, #0
    9188:	78fe      	ldrb	r6, [r7, #3]
    918a:	0000      	lsls	r0, r0, #0
    918c:	78f3      	ldrb	r3, [r6, #3]
    918e:	0000      	lsls	r0, r0, #0
    9190:	78ea      	ldrb	r2, [r5, #3]
    9192:	0000      	lsls	r0, r0, #0
    9194:	724f      	strb	r7, [r1, #9]
    9196:	0000      	lsls	r0, r0, #0
    9198:	7884      	ldrb	r4, [r0, #2]
    919a:	0000      	lsls	r0, r0, #0
    919c:	70d0      	strb	r0, [r2, #3]
    919e:	0000      	lsls	r0, r0, #0
    91a0:	7896      	ldrb	r6, [r2, #2]
    91a2:	0000      	lsls	r0, r0, #0
    91a4:	b530      	push	{r4, r5, lr}
    91a6:	b089      	sub	sp, #36
    91a8:	4604      	mov	r4, r0
    91aa:	460d      	mov	r5, r1
    91ac:	f241 3088 	movw	r0, #5000	; 0x1388
    91b0:	9104      	str	r1, [sp, #16]
    91b2:	9006      	str	r0, [sp, #24]
    91b4:	aa03      	add	r2, sp, #12
    91b6:	4620      	mov	r0, r4
    91b8:	492e      	ldr	r1, [pc, #184]	(9274 <_ZN7android22QualcommCameraHardware8PmemPoolD2Ev+0x1f0>)
    91ba:	f04f 0324 	mov.w	r3, #36	; 0x24
    91be:	f8ad 300e 	strh.w	r3, [sp, #14]
    91c2:	f7fe eb54 	blx	786c <_ZN7android22QualcommCameraHardware18filterPictureSizesEv-0x480>
    91c6:	2800      	cmp	r0, #0
    91c8:	da0f      	bge.n	91ea <_ZN7android22QualcommCameraHardware8PmemPoolD2Ev+0x166>
    91ca:	f7fe eb56 	blx	7878 <_ZN7android22QualcommCameraHardware18filterPictureSizesEv-0x474>
    91ce:	6800      	ldr	r0, [r0, #0]
    91d0:	f7fe eb58 	blx	7884 <_ZN7android22QualcommCameraHardware18filterPictureSizesEv-0x468>
    91d4:	4928      	ldr	r1, [pc, #160]	(9278 <_ZN7android22QualcommCameraHardware8PmemPoolD2Ev+0x1f4>)
    91d6:	4a29      	ldr	r2, [pc, #164]	(927c <_ZN7android22QualcommCameraHardware8PmemPoolD2Ev+0x1f8>)
    91d8:	4623      	mov	r3, r4
    91da:	4479      	add	r1, pc
    91dc:	447a      	add	r2, pc
    91de:	9000      	str	r0, [sp, #0]
    91e0:	2006      	movs	r0, #6
    91e2:	f7fe eaf6 	blx	77d0 <_ZN7android22QualcommCameraHardware18filterPictureSizesEv-0x51c>
    91e6:	2000      	movs	r0, #0
    91e8:	e042      	b.n	9270 <_ZN7android22QualcommCameraHardware8PmemPoolD2Ev+0x1ec>
    91ea:	4c25      	ldr	r4, [pc, #148]	(9280 <_ZN7android22QualcommCameraHardware8PmemPoolD2Ev+0x1fc>)
    91ec:	2002      	movs	r0, #2
    91ee:	4a25      	ldr	r2, [pc, #148]	(9284 <_ZN7android22QualcommCameraHardware8PmemPoolD2Ev+0x200>)
    91f0:	447c      	add	r4, pc
    91f2:	682b      	ldr	r3, [r5, #0]
    91f4:	447a      	add	r2, pc
    91f6:	4621      	mov	r1, r4
    91f8:	f7fe eaea 	blx	77d0 <_ZN7android22QualcommCameraHardware18filterPictureSizesEv-0x51c>
    91fc:	4a22      	ldr	r2, [pc, #136]	(9288 <_ZN7android22QualcommCameraHardware8PmemPoolD2Ev+0x204>)
    91fe:	4621      	mov	r1, r4
    9200:	686b      	ldr	r3, [r5, #4]
    9202:	447a      	add	r2, pc
    9204:	2002      	movs	r0, #2
    9206:	f7fe eae4 	blx	77d0 <_ZN7android22QualcommCameraHardware18filterPictureSizesEv-0x51c>
    920a:	4a20      	ldr	r2, [pc, #128]	(928c <_ZN7android22QualcommCameraHardware8PmemPoolD2Ev+0x208>)
    920c:	4621      	mov	r1, r4
    920e:	68ab      	ldr	r3, [r5, #8]
    9210:	447a      	add	r2, pc
    9212:	2002      	movs	r0, #2
    9214:	f7fe eadc 	blx	77d0 <_ZN7android22QualcommCameraHardware18filterPictureSizesEv-0x51c>
    9218:	4a1d      	ldr	r2, [pc, #116]	(9290 <_ZN7android22QualcommCameraHardware8PmemPoolD2Ev+0x20c>)
    921a:	4621      	mov	r1, r4
    921c:	68eb      	ldr	r3, [r5, #12]
    921e:	447a      	add	r2, pc
    9220:	2002      	movs	r0, #2
    9222:	f7fe ead6 	blx	77d0 <_ZN7android22QualcommCameraHardware18filterPictureSizesEv-0x51c>
    9226:	4a1b      	ldr	r2, [pc, #108]	(9294 <_ZN7android22QualcommCameraHardware8PmemPoolD2Ev+0x210>)
    9228:	4621      	mov	r1, r4
    922a:	692b      	ldr	r3, [r5, #16]
    922c:	447a      	add	r2, pc
    922e:	2002      	movs	r0, #2
    9230:	f7fe eace 	blx	77d0 <_ZN7android22QualcommCameraHardware18filterPictureSizesEv-0x51c>
    9234:	4a18      	ldr	r2, [pc, #96]	(9298 <_ZN7android22QualcommCameraHardware8PmemPoolD2Ev+0x214>)
    9236:	4621      	mov	r1, r4
    9238:	696b      	ldr	r3, [r5, #20]
    923a:	447a      	add	r2, pc
    923c:	2002      	movs	r0, #2
    923e:	f7fe eac8 	blx	77d0 <_ZN7android22QualcommCameraHardware18filterPictureSizesEv-0x51c>
    9242:	4a16      	ldr	r2, [pc, #88]	(929c <_ZN7android22QualcommCameraHardware8PmemPoolD2Ev+0x218>)
    9244:	4621      	mov	r1, r4
    9246:	69ab      	ldr	r3, [r5, #24]
    9248:	447a      	add	r2, pc
    924a:	2002      	movs	r0, #2
    924c:	f7fe eac0 	blx	77d0 <_ZN7android22QualcommCameraHardware18filterPictureSizesEv-0x51c>
    9250:	4a13      	ldr	r2, [pc, #76]	(92a0 <_ZN7android22QualcommCameraHardware8PmemPoolD2Ev+0x21c>)
    9252:	4621      	mov	r1, r4
    9254:	69eb      	ldr	r3, [r5, #28]
    9256:	447a      	add	r2, pc
    9258:	2002      	movs	r0, #2
    925a:	f7fe eaba 	blx	77d0 <_ZN7android22QualcommCameraHardware18filterPictureSizesEv-0x51c>
    925e:	4a11      	ldr	r2, [pc, #68]	(92a4 <_ZN7android22QualcommCameraHardware8PmemPoolD2Ev+0x220>)
    9260:	f895 3020 	ldrb.w	r3, [r5, #32]
    9264:	2002      	movs	r0, #2
    9266:	447a      	add	r2, pc
    9268:	4621      	mov	r1, r4
    926a:	f7fe eab2 	blx	77d0 <_ZN7android22QualcommCameraHardware18filterPictureSizesEv-0x51c>
    926e:	2001      	movs	r0, #1
    9270:	b009      	add	sp, #36
    9272:	bd30      	pop	{r4, r5, pc}
    9274:	6d11      	ldr	r1, [r2, #80]
    9276:	4004      	ands	r4, r0
    9278:	71b5      	strb	r5, [r6, #6]
    927a:	0000      	lsls	r0, r0, #0
    927c:	7823      	ldrb	r3, [r4, #0]
    927e:	0000      	lsls	r0, r0, #0
    9280:	719f      	strb	r7, [r3, #6]
    9282:	0000      	lsls	r0, r0, #0
    9284:	7848      	ldrb	r0, [r1, #1]
    9286:	0000      	lsls	r0, r0, #0
    9288:	7849      	ldrb	r1, [r1, #1]
    928a:	0000      	lsls	r0, r0, #0
    928c:	784a      	ldrb	r2, [r1, #1]
    928e:	0000      	lsls	r0, r0, #0
    9290:	784c      	ldrb	r4, [r1, #1]
    9292:	0000      	lsls	r0, r0, #0
    9294:	784e      	ldrb	r6, [r1, #1]
    9296:	0000      	lsls	r0, r0, #0
    9298:	784f      	ldrb	r7, [r1, #1]
    929a:	0000      	lsls	r0, r0, #0
    929c:	7850      	ldrb	r0, [r2, #1]
    929e:	0000      	lsls	r0, r0, #0
    92a0:	7852      	ldrb	r2, [r2, #1]
    92a2:	0000      	lsls	r0, r0, #0
    92a4:	7852      	ldrb	r2, [r2, #1]
    92a6:	0000      	lsls	r0, r0, #0
    92a8:	b530      	push	{r4, r5, lr}
    92aa:	b089      	sub	sp, #36
    92ac:	4605      	mov	r5, r0
    92ae:	4912      	ldr	r1, [pc, #72]	(92f8 <_ZN7android22QualcommCameraHardware8PmemPoolD2Ev+0x274>)
    92b0:	f04f 002a 	mov.w	r0, #42	; 0x2a
    92b4:	aa03      	add	r2, sp, #12
    92b6:	f8ad 000c 	strh.w	r0, [sp, #12]
    92ba:	4628      	mov	r0, r5
    92bc:	2400      	movs	r4, #0
    92be:	f04f 33ff 	mov.w	r3, #4294967295	; 0xffffffff
    92c2:	9406      	str	r4, [sp, #24]
    92c4:	f8ad 400e 	strh.w	r4, [sp, #14]
    92c8:	9307      	str	r3, [sp, #28]
    92ca:	f7fe ead0 	blx	786c <_ZN7android22QualcommCameraHardware18filterPictureSizesEv-0x480>
    92ce:	42a0      	cmp	r0, r4
    92d0:	db01      	blt.n	92d6 <_ZN7android22QualcommCameraHardware8PmemPoolD2Ev+0x252>
    92d2:	2001      	movs	r0, #1
    92d4:	e00e      	b.n	92f4 <_ZN7android22QualcommCameraHardware8PmemPoolD2Ev+0x270>
    92d6:	f7fe ead0 	blx	7878 <_ZN7android22QualcommCameraHardware18filterPictureSizesEv-0x474>
    92da:	6800      	ldr	r0, [r0, #0]
    92dc:	f7fe ead2 	blx	7884 <_ZN7android22QualcommCameraHardware18filterPictureSizesEv-0x468>
    92e0:	4906      	ldr	r1, [pc, #24]	(92fc <_ZN7android22QualcommCameraHardware8PmemPoolD2Ev+0x278>)
    92e2:	4a07      	ldr	r2, [pc, #28]	(9300 <_ZN7android22QualcommCameraHardware8PmemPoolD2Ev+0x27c>)
    92e4:	462b      	mov	r3, r5
    92e6:	4479      	add	r1, pc
    92e8:	447a      	add	r2, pc
    92ea:	9000      	str	r0, [sp, #0]
    92ec:	2006      	movs	r0, #6
    92ee:	f7fe ea70 	blx	77d0 <_ZN7android22QualcommCameraHardware18filterPictureSizesEv-0x51c>
    92f2:	4620      	mov	r0, r4
    92f4:	b009      	add	sp, #36
    92f6:	bd30      	pop	{r4, r5, pc}
    92f8:	6d18      	ldr	r0, [r3, #80]
    92fa:	4004      	ands	r4, r0
    92fc:	70a9      	strb	r1, [r5, #2]
    92fe:	0000      	lsls	r0, r0, #0
    9300:	77e0      	strb	r0, [r4, #31]
	...

00009304 <_ZN7android22QualcommCameraHardware13cancelPictureEv>:
    9304:	b570      	push	{r4, r5, r6, lr}
    9306:	4d0d      	ldr	r5, [pc, #52]	(933c <_ZN7android22QualcommCameraHardware13cancelPictureEv+0x38>)
    9308:	4a0d      	ldr	r2, [pc, #52]	(9340 <_ZN7android22QualcommCameraHardware13cancelPictureEv+0x3c>)
    930a:	4604      	mov	r4, r0
    930c:	447d      	add	r5, pc
    930e:	2002      	movs	r0, #2
    9310:	4629      	mov	r1, r5
    9312:	447a      	add	r2, pc
    9314:	f7fe ea5c 	blx	77d0 <_ZN7android22QualcommCameraHardware18filterPictureSizesEv-0x51c>
    9318:	f8d4 00dc 	ldr.w	r0, [r4, #220]
    931c:	f7ff ffc4 	bl	92a8 <_ZN7android22QualcommCameraHardware8PmemPoolD2Ev+0x224>
    9320:	4a08      	ldr	r2, [pc, #32]	(9344 <_ZN7android22QualcommCameraHardware13cancelPictureEv+0x40>)
    9322:	4629      	mov	r1, r5
    9324:	447a      	add	r2, pc
    9326:	2800      	cmp	r0, #0
    9328:	bf0c      	ite	eq
    932a:	f04f 4400 	moveq.w	r4, #2147483648	; 0x80000000
    932e:	2400      	movne	r4, #0
    9330:	2002      	movs	r0, #2
    9332:	4623      	mov	r3, r4
    9334:	f7fe ea4c 	blx	77d0 <_ZN7android22QualcommCameraHardware18filterPictureSizesEv-0x51c>
    9338:	4620      	mov	r0, r4
    933a:	bd70      	pop	{r4, r5, r6, pc}
    933c:	7083      	strb	r3, [r0, #2]
    933e:	0000      	lsls	r0, r0, #0
    9340:	77e1      	strb	r1, [r4, #31]
    9342:	0000      	lsls	r0, r0, #0
    9344:	77e0      	strb	r0, [r4, #31]
    9346:	0000      	lsls	r0, r0, #0
    9348:	b530      	push	{r4, r5, lr}
    934a:	b089      	sub	sp, #36
    934c:	4605      	mov	r5, r0
    934e:	4913      	ldr	r1, [pc, #76]	(939c <_ZN7android22QualcommCameraHardware13cancelPictureEv+0x98>)
    9350:	f44f 707a 	mov.w	r0, #1000	; 0x3e8
    9354:	aa03      	add	r2, sp, #12
    9356:	9006      	str	r0, [sp, #24]
    9358:	4628      	mov	r0, r5
    935a:	2400      	movs	r4, #0
    935c:	f04f 0336 	mov.w	r3, #54	; 0x36
    9360:	f8ad 400e 	strh.w	r4, [sp, #14]
    9364:	f8ad 300c 	strh.w	r3, [sp, #12]
    9368:	9404      	str	r4, [sp, #16]
    936a:	9507      	str	r5, [sp, #28]
    936c:	f7fe ea7e 	blx	786c <_ZN7android22QualcommCameraHardware18filterPictureSizesEv-0x480>
    9370:	42a0      	cmp	r0, r4
    9372:	db01      	blt.n	9378 <_ZN7android22QualcommCameraHardware13cancelPictureEv+0x74>
    9374:	2001      	movs	r0, #1
    9376:	e00e      	b.n	9396 <_ZN7android22QualcommCameraHardware13cancelPictureEv+0x92>
    9378:	f7fe ea7e 	blx	7878 <_ZN7android22QualcommCameraHardware18filterPictureSizesEv-0x474>
    937c:	6800      	ldr	r0, [r0, #0]
    937e:	f7fe ea82 	blx	7884 <_ZN7android22QualcommCameraHardware18filterPictureSizesEv-0x468>
    9382:	4907      	ldr	r1, [pc, #28]	(93a0 <_ZN7android22QualcommCameraHardware13cancelPictureEv+0x9c>)
    9384:	4a07      	ldr	r2, [pc, #28]	(93a4 <_ZN7android22QualcommCameraHardware13cancelPictureEv+0xa0>)
    9386:	462b      	mov	r3, r5
    9388:	4479      	add	r1, pc
    938a:	447a      	add	r2, pc
    938c:	9000      	str	r0, [sp, #0]
    938e:	2006      	movs	r0, #6
    9390:	f7fe ea1e 	blx	77d0 <_ZN7android22QualcommCameraHardware18filterPictureSizesEv-0x51c>
    9394:	4620      	mov	r0, r4
    9396:	b009      	add	sp, #36
    9398:	bd30      	pop	{r4, r5, pc}
    939a:	bf00      	nop
    939c:	6d04      	ldr	r4, [r0, #80]
    939e:	4004      	ands	r4, r0
    93a0:	7007      	strb	r7, [r0, #0]
    93a2:	0000      	lsls	r0, r0, #0
    93a4:	778f      	strb	r7, [r1, #30]
    93a6:	0000      	lsls	r0, r0, #0
    93a8:	b510      	push	{r4, lr}
    93aa:	b088      	sub	sp, #32
    93ac:	4604      	mov	r4, r0
    93ae:	f241 3188 	movw	r1, #5000	; 0x1388
    93b2:	f04f 0028 	mov.w	r0, #40	; 0x28
    93b6:	9106      	str	r1, [sp, #24]
    93b8:	f8ad 000c 	strh.w	r0, [sp, #12]
    93bc:	aa03      	add	r2, sp, #12
    93be:	4620      	mov	r0, r4
    93c0:	490e      	ldr	r1, [pc, #56]	(93fc <_ZN7android22QualcommCameraHardware13cancelPictureEv+0xf8>)
    93c2:	f04f 0300 	mov.w	r3, #0	; 0x0
    93c6:	9407      	str	r4, [sp, #28]
    93c8:	f8ad 300e 	strh.w	r3, [sp, #14]
    93cc:	f7fe ea4e 	blx	786c <_ZN7android22QualcommCameraHardware18filterPictureSizesEv-0x480>
    93d0:	2800      	cmp	r0, #0
    93d2:	db01      	blt.n	93d8 <_ZN7android22QualcommCameraHardware13cancelPictureEv+0xd4>
    93d4:	2001      	movs	r0, #1
    93d6:	e00e      	b.n	93f6 <_ZN7android22QualcommCameraHardware13cancelPictureEv+0xf2>
    93d8:	f7fe ea4e 	blx	7878 <_ZN7android22QualcommCameraHardware18filterPictureSizesEv-0x474>
    93dc:	6800      	ldr	r0, [r0, #0]
    93de:	f7fe ea52 	blx	7884 <_ZN7android22QualcommCameraHardware18filterPictureSizesEv-0x468>
    93e2:	4907      	ldr	r1, [pc, #28]	(9400 <_ZN7android22QualcommCameraHardware13cancelPictureEv+0xfc>)
    93e4:	4a07      	ldr	r2, [pc, #28]	(9404 <_ZN7android22QualcommCameraHardware13cancelPictureEv+0x100>)
    93e6:	4623      	mov	r3, r4
    93e8:	4479      	add	r1, pc
    93ea:	447a      	add	r2, pc
    93ec:	9000      	str	r0, [sp, #0]
    93ee:	2006      	movs	r0, #6
    93f0:	f7fe e9ee 	blx	77d0 <_ZN7android22QualcommCameraHardware18filterPictureSizesEv-0x51c>
    93f4:	2000      	movs	r0, #0
    93f6:	b008      	add	sp, #32
    93f8:	bd10      	pop	{r4, pc}
    93fa:	bf00      	nop
    93fc:	6d04      	ldr	r4, [r0, #80]
    93fe:	4004      	ands	r4, r0
    9400:	6fa7      	ldr	r7, [r4, #120]
    9402:	0000      	lsls	r0, r0, #0
    9404:	775d      	strb	r5, [r3, #29]
    9406:	0000      	lsls	r0, r0, #0
    9408:	b530      	push	{r4, r5, lr}
    940a:	b089      	sub	sp, #36
    940c:	4605      	mov	r5, r0
    940e:	4913      	ldr	r1, [pc, #76]	(945c <_ZN7android22QualcommCameraHardware13cancelPictureEv+0x158>)
    9410:	f04f 0033 	mov.w	r0, #51	; 0x33
    9414:	aa03      	add	r2, sp, #12
    9416:	f8ad 000c 	strh.w	r0, [sp, #12]
    941a:	4628      	mov	r0, r5
    941c:	2400      	movs	r4, #0
    941e:	f04f 33ff 	mov.w	r3, #4294967295	; 0xffffffff
    9422:	9406      	str	r4, [sp, #24]
    9424:	f8ad 400e 	strh.w	r4, [sp, #14]
    9428:	9404      	str	r4, [sp, #16]
    942a:	9307      	str	r3, [sp, #28]
    942c:	f7fe ea1e 	blx	786c <_ZN7android22QualcommCameraHardware18filterPictureSizesEv-0x480>
    9430:	42a0      	cmp	r0, r4
    9432:	db01      	blt.n	9438 <_ZN7android22QualcommCameraHardware13cancelPictureEv+0x134>
    9434:	2001      	movs	r0, #1
    9436:	e00e      	b.n	9456 <_ZN7android22QualcommCameraHardware13cancelPictureEv+0x152>
    9438:	f7fe ea1e 	blx	7878 <_ZN7android22QualcommCameraHardware18filterPictureSizesEv-0x474>
    943c:	6800      	ldr	r0, [r0, #0]
    943e:	f7fe ea22 	blx	7884 <_ZN7android22QualcommCameraHardware18filterPictureSizesEv-0x468>
    9442:	4907      	ldr	r1, [pc, #28]	(9460 <_ZN7android22QualcommCameraHardware13cancelPictureEv+0x15c>)
    9444:	4a07      	ldr	r2, [pc, #28]	(9464 <_ZN7android22QualcommCameraHardware13cancelPictureEv+0x160>)
    9446:	462b      	mov	r3, r5
    9448:	4479      	add	r1, pc
    944a:	447a      	add	r2, pc
    944c:	9000      	str	r0, [sp, #0]
    944e:	2006      	movs	r0, #6
    9450:	f7fe e9be 	blx	77d0 <_ZN7android22QualcommCameraHardware18filterPictureSizesEv-0x51c>
    9454:	4620      	mov	r0, r4
    9456:	b009      	add	sp, #36
    9458:	bd30      	pop	{r4, r5, pc}
    945a:	bf00      	nop
    945c:	6d18      	ldr	r0, [r3, #80]
    945e:	4004      	ands	r4, r0
    9460:	6f47      	ldr	r7, [r0, #116]
    9462:	0000      	lsls	r0, r0, #0
    9464:	7729      	strb	r1, [r5, #28]
    9466:	0000      	lsls	r0, r0, #0
    9468:	b530      	push	{r4, r5, lr}
    946a:	b08b      	sub	sp, #44
    946c:	4605      	mov	r5, r0
    946e:	f241 3288 	movw	r2, #5000	; 0x1388
    9472:	9103      	str	r1, [sp, #12]
    9474:	f04f 0004 	mov.w	r0, #4	; 0x4
    9478:	9208      	str	r2, [sp, #32]
    947a:	f04f 010d 	mov.w	r1, #13	; 0xd
    947e:	f8ad 0016 	strh.w	r0, [sp, #22]
    9482:	aa05      	add	r2, sp, #20
    9484:	f8ad 1014 	strh.w	r1, [sp, #20]
    9488:	4628      	mov	r0, r5
    948a:	4916      	ldr	r1, [pc, #88]	(94e4 <_ZN7android22QualcommCameraHardware13cancelPictureEv+0x1e0>)
    948c:	ab03      	add	r3, sp, #12
    948e:	9509      	str	r5, [sp, #36]
    9490:	9306      	str	r3, [sp, #24]
    9492:	f7fe e9ec 	blx	786c <_ZN7android22QualcommCameraHardware18filterPictureSizesEv-0x480>
    9496:	2800      	cmp	r0, #0
    9498:	4604      	mov	r4, r0
    949a:	da0d      	bge.n	94b8 <_ZN7android22QualcommCameraHardware13cancelPictureEv+0x1b4>
    949c:	f7fe e9ec 	blx	7878 <_ZN7android22QualcommCameraHardware18filterPictureSizesEv-0x474>
    94a0:	6800      	ldr	r0, [r0, #0]
    94a2:	f7fe e9f0 	blx	7884 <_ZN7android22QualcommCameraHardware18filterPictureSizesEv-0x468>
    94a6:	4910      	ldr	r1, [pc, #64]	(94e8 <_ZN7android22QualcommCameraHardware13cancelPictureEv+0x1e4>)
    94a8:	4a10      	ldr	r2, [pc, #64]	(94ec <_ZN7android22QualcommCameraHardware13cancelPictureEv+0x1e8>)
    94aa:	462b      	mov	r3, r5
    94ac:	4479      	add	r1, pc
    94ae:	447a      	add	r2, pc
    94b0:	9000      	str	r0, [sp, #0]
    94b2:	2006      	movs	r0, #6
    94b4:	f7fe e98c 	blx	77d0 <_ZN7android22QualcommCameraHardware18filterPictureSizesEv-0x51c>
    94b8:	490d      	ldr	r1, [pc, #52]	(94f0 <_ZN7android22QualcommCameraHardware13cancelPictureEv+0x1ec>)
    94ba:	2002      	movs	r0, #2
    94bc:	4a0d      	ldr	r2, [pc, #52]	(94f4 <_ZN7android22QualcommCameraHardware13cancelPictureEv+0x1f0>)
    94be:	4479      	add	r1, pc
    94c0:	f8bd 301c 	ldrh.w	r3, [sp, #28]
    94c4:	447a      	add	r2, pc
    94c6:	f7fe e984 	blx	77d0 <_ZN7android22QualcommCameraHardware18filterPictureSizesEv-0x51c>
    94ca:	2c00      	cmp	r4, #0
    94cc:	da01      	bge.n	94d2 <_ZN7android22QualcommCameraHardware13cancelPictureEv+0x1ce>
    94ce:	2000      	movs	r0, #0
    94d0:	e006      	b.n	94e0 <_ZN7android22QualcommCameraHardware13cancelPictureEv+0x1dc>
    94d2:	f8bd c01c 	ldrh.w	ip, [sp, #28]
    94d6:	f1bc 0f01 	cmp.w	ip, #1	; 0x1
    94da:	bf14      	ite	ne
    94dc:	2000      	movne	r0, #0
    94de:	2001      	moveq	r0, #1
    94e0:	b00b      	add	sp, #44
    94e2:	bd30      	pop	{r4, r5, pc}
    94e4:	6d04      	ldr	r4, [r0, #80]
    94e6:	4004      	ands	r4, r0
    94e8:	6ee3      	ldr	r3, [r4, #108]
    94ea:	0000      	lsls	r0, r0, #0
    94ec:	76f1      	strb	r1, [r6, #27]
    94ee:	0000      	lsls	r0, r0, #0
    94f0:	6ed1      	ldr	r1, [r2, #108]
    94f2:	0000      	lsls	r0, r0, #0
    94f4:	7704      	strb	r4, [r0, #28]
    94f6:	0000      	lsls	r0, r0, #0
    94f8:	b510      	push	{r4, lr}
    94fa:	b088      	sub	sp, #32
    94fc:	4604      	mov	r4, r0
    94fe:	f241 3188 	movw	r1, #5000	; 0x1388
    9502:	f04f 0026 	mov.w	r0, #38	; 0x26
    9506:	9106      	str	r1, [sp, #24]
    9508:	f8ad 000c 	strh.w	r0, [sp, #12]
    950c:	aa03      	add	r2, sp, #12
    950e:	4620      	mov	r0, r4
    9510:	490e      	ldr	r1, [pc, #56]	(954c <_ZN7android22QualcommCameraHardware13cancelPictureEv+0x248>)
    9512:	f04f 0300 	mov.w	r3, #0	; 0x0
    9516:	9407      	str	r4, [sp, #28]
    9518:	f8ad 300e 	strh.w	r3, [sp, #14]
    951c:	f7fe e9a6 	blx	786c <_ZN7android22QualcommCameraHardware18filterPictureSizesEv-0x480>
    9520:	2800      	cmp	r0, #0
    9522:	db01      	blt.n	9528 <_ZN7android22QualcommCameraHardware13cancelPictureEv+0x224>
    9524:	2001      	movs	r0, #1
    9526:	e00e      	b.n	9546 <_ZN7android22QualcommCameraHardware13cancelPictureEv+0x242>
    9528:	f7fe e9a6 	blx	7878 <_ZN7android22QualcommCameraHardware18filterPictureSizesEv-0x474>
    952c:	6800      	ldr	r0, [r0, #0]
    952e:	f7fe e9aa 	blx	7884 <_ZN7android22QualcommCameraHardware18filterPictureSizesEv-0x468>
    9532:	4907      	ldr	r1, [pc, #28]	(9550 <_ZN7android22QualcommCameraHardware13cancelPictureEv+0x24c>)
    9534:	4a07      	ldr	r2, [pc, #28]	(9554 <_ZN7android22QualcommCameraHardware13cancelPictureEv+0x250>)
    9536:	4623      	mov	r3, r4
    9538:	4479      	add	r1, pc
    953a:	447a      	add	r2, pc
    953c:	9000      	str	r0, [sp, #0]
    953e:	2006      	movs	r0, #6
    9540:	f7fe e946 	blx	77d0 <_ZN7android22QualcommCameraHardware18filterPictureSizesEv-0x51c>
    9544:	2000      	movs	r0, #0
    9546:	b008      	add	sp, #32
    9548:	bd10      	pop	{r4, pc}
    954a:	bf00      	nop
    954c:	6d04      	ldr	r4, [r0, #80]
    954e:	4004      	ands	r4, r0
    9550:	6e57      	ldr	r7, [r2, #100]
    9552:	0000      	lsls	r0, r0, #0
    9554:	76b7      	strb	r7, [r6, #26]
    9556:	0000      	lsls	r0, r0, #0
    9558:	b510      	push	{r4, lr}
    955a:	b088      	sub	sp, #32
    955c:	4604      	mov	r4, r0
    955e:	f241 3188 	movw	r1, #5000	; 0x1388
    9562:	f04f 0027 	mov.w	r0, #39	; 0x27
    9566:	9106      	str	r1, [sp, #24]
    9568:	f8ad 000c 	strh.w	r0, [sp, #12]
    956c:	aa03      	add	r2, sp, #12
    956e:	4620      	mov	r0, r4
    9570:	490e      	ldr	r1, [pc, #56]	(95ac <_ZN7android22QualcommCameraHardware13cancelPictureEv+0x2a8>)
    9572:	f04f 0300 	mov.w	r3, #0	; 0x0
    9576:	9407      	str	r4, [sp, #28]
    9578:	f8ad 300e 	strh.w	r3, [sp, #14]
    957c:	f7fe e976 	blx	786c <_ZN7android22QualcommCameraHardware18filterPictureSizesEv-0x480>
    9580:	2800      	cmp	r0, #0
    9582:	db01      	blt.n	9588 <_ZN7android22QualcommCameraHardware13cancelPictureEv+0x284>
    9584:	2001      	movs	r0, #1
    9586:	e00e      	b.n	95a6 <_ZN7android22QualcommCameraHardware13cancelPictureEv+0x2a2>
    9588:	f7fe e976 	blx	7878 <_ZN7android22QualcommCameraHardware18filterPictureSizesEv-0x474>
    958c:	6800      	ldr	r0, [r0, #0]
    958e:	f7fe e97a 	blx	7884 <_ZN7android22QualcommCameraHardware18filterPictureSizesEv-0x468>
    9592:	4907      	ldr	r1, [pc, #28]	(95b0 <_ZN7android22QualcommCameraHardware13cancelPictureEv+0x2ac>)
    9594:	4a07      	ldr	r2, [pc, #28]	(95b4 <_ZN7android22QualcommCameraHardware13cancelPictureEv+0x2b0>)
    9596:	4623      	mov	r3, r4
    9598:	4479      	add	r1, pc
    959a:	447a      	add	r2, pc
    959c:	9000      	str	r0, [sp, #0]
    959e:	2006      	movs	r0, #6
    95a0:	f7fe e916 	blx	77d0 <_ZN7android22QualcommCameraHardware18filterPictureSizesEv-0x51c>
    95a4:	2000      	movs	r0, #0
    95a6:	b008      	add	sp, #32
    95a8:	bd10      	pop	{r4, pc}
    95aa:	bf00      	nop
    95ac:	6d04      	ldr	r4, [r0, #80]
    95ae:	4004      	ands	r4, r0
    95b0:	6df7      	ldr	r7, [r6, #92]
    95b2:	0000      	lsls	r0, r0, #0
    95b4:	7681      	strb	r1, [r0, #26]
	...

000095b8 <_ZN7android22QualcommCameraHardware15native_set_parmEhtPv>:
    95b8:	b570      	push	{r4, r5, r6, lr}
    95ba:	b08c      	sub	sp, #48
    95bc:	4614      	mov	r4, r2
    95be:	4606      	mov	r6, r0
    95c0:	f8ad 101c 	strh.w	r1, [sp, #28]
    95c4:	f241 3288 	movw	r2, #5000	; 0x1388
    95c8:	f8ad 401e 	strh.w	r4, [sp, #30]
    95cc:	460d      	mov	r5, r1
    95ce:	920a      	str	r2, [sp, #40]
    95d0:	f8d0 00dc 	ldr.w	r0, [r0, #220]
    95d4:	9308      	str	r3, [sp, #32]
    95d6:	4b1b      	ldr	r3, [pc, #108]	(9644 <_ZN7android22QualcommCameraHardware15native_set_parmEhtPv+0x8c>)
    95d8:	491b      	ldr	r1, [pc, #108]	(9648 <_ZN7android22QualcommCameraHardware15native_set_parmEhtPv+0x90>)
    95da:	4a1c      	ldr	r2, [pc, #112]	(964c <_ZN7android22QualcommCameraHardware15native_set_parmEhtPv+0x94>)
    95dc:	447b      	add	r3, pc
    95de:	33dc      	adds	r3, #220
    95e0:	900b      	str	r0, [sp, #44]
    95e2:	4479      	add	r1, pc
    95e4:	447a      	add	r2, pc
    95e6:	9000      	str	r0, [sp, #0]
    95e8:	2002      	movs	r0, #2
    95ea:	9501      	str	r5, [sp, #4]
    95ec:	9402      	str	r4, [sp, #8]
    95ee:	f7fe e8f0 	blx	77d0 <_ZN7android22QualcommCameraHardware18filterPictureSizesEv-0x51c>
    95f2:	f8d6 00dc 	ldr.w	r0, [r6, #220]
    95f6:	aa07      	add	r2, sp, #28
    95f8:	4911      	ldr	r1, [pc, #68]	(9640 <_ZN7android22QualcommCameraHardware15native_set_parmEhtPv+0x88>)
    95fa:	f7fe e938 	blx	786c <_ZN7android22QualcommCameraHardware18filterPictureSizesEv-0x480>
    95fe:	2800      	cmp	r0, #0
    9600:	db03      	blt.n	960a <_ZN7android22QualcommCameraHardware15native_set_parmEhtPv+0x52>
    9602:	f8bd 0024 	ldrh.w	r0, [sp, #36]
    9606:	2801      	cmp	r0, #1
    9608:	d018      	beq.n	963c <_ZN7android22QualcommCameraHardware15native_set_parmEhtPv+0x84>
    960a:	f7fe e936 	blx	7878 <_ZN7android22QualcommCameraHardware18filterPictureSizesEv-0x474>
    960e:	6800      	ldr	r0, [r0, #0]
    9610:	f7fe e938 	blx	7884 <_ZN7android22QualcommCameraHardware18filterPictureSizesEv-0x468>
    9614:	4b0e      	ldr	r3, [pc, #56]	(9650 <_ZN7android22QualcommCameraHardware15native_set_parmEhtPv+0x98>)
    9616:	490f      	ldr	r1, [pc, #60]	(9654 <_ZN7android22QualcommCameraHardware15native_set_parmEhtPv+0x9c>)
    9618:	4a0f      	ldr	r2, [pc, #60]	(9658 <_ZN7android22QualcommCameraHardware15native_set_parmEhtPv+0xa0>)
    961a:	447b      	add	r3, pc
    961c:	4479      	add	r1, pc
    961e:	33dc      	adds	r3, #220
    9620:	447a      	add	r2, pc
    9622:	9502      	str	r5, [sp, #8]
    9624:	9403      	str	r4, [sp, #12]
    9626:	9000      	str	r0, [sp, #0]
    9628:	f8d6 00dc 	ldr.w	r0, [r6, #220]
    962c:	9001      	str	r0, [sp, #4]
    962e:	f8bd 0024 	ldrh.w	r0, [sp, #36]
    9632:	9004      	str	r0, [sp, #16]
    9634:	2006      	movs	r0, #6
    9636:	f7fe e8cc 	blx	77d0 <_ZN7android22QualcommCameraHardware18filterPictureSizesEv-0x51c>
    963a:	2000      	movs	r0, #0
    963c:	b00c      	add	sp, #48
    963e:	bd70      	pop	{r4, r5, r6, pc}
    9640:	6d04      	ldr	r4, [r0, #80]
    9642:	4004      	ands	r4, r0
    9644:	6c50      	ldr	r0, [r2, #68]
    9646:	0000      	lsls	r0, r0, #0
    9648:	6dad      	ldr	r5, [r5, #88]
    964a:	0000      	lsls	r0, r0, #0
    964c:	7677      	strb	r7, [r6, #25]
    964e:	0000      	lsls	r0, r0, #0
    9650:	6c12      	ldr	r2, [r2, #64]
    9652:	0000      	lsls	r0, r0, #0
    9654:	6d73      	ldr	r3, [r6, #84]
    9656:	0000      	lsls	r0, r0, #0
    9658:	7659      	strb	r1, [r3, #25]
	...

0000965c <_ZN7android22QualcommCameraHardware14findSensorTypeEv>:
    965c:	b510      	push	{r4, lr}
    965e:	4604      	mov	r4, r0
    9660:	f44f 7340 	mov.w	r3, #768	; 0x300
    9664:	f44f 6080 	mov.w	r0, #1024	; 0x400
    9668:	f8a4 3108 	strh.w	r3, [r4, #264]
    966c:	2101      	movs	r1, #1
    966e:	f8a4 0106 	strh.w	r0, [r4, #262]
    9672:	f504 7381 	add.w	r3, r4, #258	; 0x102
    9676:	4620      	mov	r0, r4
    9678:	2220      	movs	r2, #32
    967a:	f7ff ff9d 	bl	95b8 <_ZN7android22QualcommCameraHardware15native_set_parmEhtPv>
    967e:	b300      	cbz	r0, 96c2 <_ZN7android22QualcommCameraHardware14findSensorTypeEv+0x66>
    9680:	4b14      	ldr	r3, [pc, #80]	(96d4 <_ZN7android22QualcommCameraHardware14findSensorTypeEv+0x78>)
    9682:	f8b4 211a 	ldrh.w	r2, [r4, #282]
    9686:	447b      	add	r3, pc
    9688:	6899      	ldr	r1, [r3, #8]
    968a:	4291      	cmp	r1, r2
    968c:	d101      	bne.n	9692 <_ZN7android22QualcommCameraHardware14findSensorTypeEv+0x36>
    968e:	2300      	movs	r3, #0
    9690:	e00d      	b.n	96ae <_ZN7android22QualcommCameraHardware14findSensorTypeEv+0x52>
    9692:	6a58      	ldr	r0, [r3, #36]
    9694:	4290      	cmp	r0, r2
    9696:	d101      	bne.n	969c <_ZN7android22QualcommCameraHardware14findSensorTypeEv+0x40>
    9698:	2301      	movs	r3, #1
    969a:	e008      	b.n	96ae <_ZN7android22QualcommCameraHardware14findSensorTypeEv+0x52>
    969c:	6c19      	ldr	r1, [r3, #64]
    969e:	4291      	cmp	r1, r2
    96a0:	d101      	bne.n	96a6 <_ZN7android22QualcommCameraHardware14findSensorTypeEv+0x4a>
    96a2:	2302      	movs	r3, #2
    96a4:	e003      	b.n	96ae <_ZN7android22QualcommCameraHardware14findSensorTypeEv+0x52>
    96a6:	6ddb      	ldr	r3, [r3, #92]
    96a8:	4293      	cmp	r3, r2
    96aa:	d10a      	bne.n	96c2 <_ZN7android22QualcommCameraHardware14findSensorTypeEv+0x66>
    96ac:	2303      	movs	r3, #3
    96ae:	f8df c028 	ldr.w	ip, [pc, #40]	; 96d8 <_ZN7android22QualcommCameraHardware14findSensorTypeEv+0x7c>
    96b2:	201c      	movs	r0, #28
    96b4:	4a09      	ldr	r2, [pc, #36]	(96dc <_ZN7android22QualcommCameraHardware14findSensorTypeEv+0x80>)
    96b6:	44fc      	add	ip, pc
    96b8:	447a      	add	r2, pc
    96ba:	fb00 c303 	mla	r3, r0, r3, ip
    96be:	6013      	str	r3, [r2, #0]
    96c0:	e006      	b.n	96d0 <_ZN7android22QualcommCameraHardware14findSensorTypeEv+0x74>
    96c2:	f8df e01c 	ldr.w	lr, [pc, #28]	; 96e0 <_ZN7android22QualcommCameraHardware14findSensorTypeEv+0x84>
    96c6:	4907      	ldr	r1, [pc, #28]	(96e4 <_ZN7android22QualcommCameraHardware14findSensorTypeEv+0x88>)
    96c8:	44fe      	add	lr, pc
    96ca:	4479      	add	r1, pc
    96cc:	f8ce 1000 	str.w	r1, [lr]
    96d0:	bd10      	pop	{r4, pc}
    96d2:	bf00      	nop
    96d4:	b266      	sxtb	r6, r4
    96d6:	0000      	lsls	r0, r0, #0
    96d8:	b236      	sxth	r6, r6
    96da:	0000      	lsls	r0, r0, #0
    96dc:	b2a4      	uxth	r4, r4
    96de:	0000      	lsls	r0, r0, #0
    96e0:	b294      	uxth	r4, r2
    96e2:	0000      	lsls	r0, r0, #0
    96e4:	b222      	sxth	r2, r4
	...

000096e8 <_ZN7android22QualcommCameraHardware7MemPool22completeInitializationEv>:
    96e8:	e92d 43f7 	stmdb	sp!, {r0, r1, r2, r4, r5, r6, r7, r8, r9, lr}
    96ec:	6943      	ldr	r3, [r0, #20]
    96ee:	4604      	mov	r4, r0
    96f0:	2b00      	cmp	r3, #0
    96f2:	dd3a      	ble.n	976a <_ZN7android22QualcommCameraHardware7MemPool22completeInitializationEv+0x82>
    96f4:	6905      	ldr	r5, [r0, #16]
    96f6:	1ca8      	adds	r0, r5, #2
    96f8:	0080      	lsls	r0, r0, #2
    96fa:	f7fe e8d0 	blx	789c <_ZN7android22QualcommCameraHardware18filterPictureSizesEv-0x450>
    96fe:	2300      	movs	r3, #0
    9700:	2104      	movs	r1, #4
    9702:	6045      	str	r5, [r0, #4]
    9704:	f100 0208 	add.w	r2, r0, #8	; 0x8
    9708:	6001      	str	r1, [r0, #0]
    970a:	4619      	mov	r1, r3
    970c:	e002      	b.n	9714 <_ZN7android22QualcommCameraHardware7MemPool22completeInitializationEv+0x2c>
    970e:	6081      	str	r1, [r0, #8]
    9710:	3301      	adds	r3, #1
    9712:	3004      	adds	r0, #4
    9714:	42ab      	cmp	r3, r5
    9716:	d1fa      	bne.n	970e <_ZN7android22QualcommCameraHardware7MemPool22completeInitializationEv+0x26>
    9718:	61e2      	str	r2, [r4, #28]
    971a:	f104 0918 	add.w	r9, r4, #24	; 0x18
    971e:	2500      	movs	r5, #0
    9720:	ae01      	add	r6, sp, #4
    9722:	e01f      	b.n	9764 <_ZN7android22QualcommCameraHardware7MemPool22completeInitializationEv+0x7c>
    9724:	4649      	mov	r1, r9
    9726:	4630      	mov	r0, r6
    9728:	69e7      	ldr	r7, [r4, #28]
    972a:	f7fe fcb3 	bl	8094 <_ZN7android2spINS_11IMemoryHeapEEC1INS_14MemoryHeapBaseEEERKNS0_IT_EE>
    972e:	2024      	movs	r0, #36
    9730:	f7fe e8ba 	blx	78a8 <_ZN7android22QualcommCameraHardware18filterPictureSizesEv-0x444>
    9734:	68e2      	ldr	r2, [r4, #12]
    9736:	6963      	ldr	r3, [r4, #20]
    9738:	eb07 0885 	add.w	r8, r7, r5, lsl #2
    973c:	4631      	mov	r1, r6
    973e:	fb02 f205 	mul.w	r2, r2, r5
    9742:	4607      	mov	r7, r0
    9744:	f7fe e8b6 	blx	78b4 <_ZN7android22QualcommCameraHardware18filterPictureSizesEv-0x438>
    9748:	4640      	mov	r0, r8
    974a:	4639      	mov	r1, r7
    974c:	f7fe fd9e 	bl	828c <_ZN7android2spINS_10MemoryBaseEEaSEPS1_>
    9750:	9b01      	ldr	r3, [sp, #4]
    9752:	b133      	cbz	r3, 9762 <_ZN7android22QualcommCameraHardware7MemPool22completeInitializationEv+0x7a>
    9754:	6818      	ldr	r0, [r3, #0]
    9756:	f850 1c0c 	ldr.w	r1, [r0, #-12]
    975a:	1858      	adds	r0, r3, r1
    975c:	4631      	mov	r1, r6
    975e:	f7fe e844 	blx	77e8 <_ZN7android22QualcommCameraHardware18filterPictureSizesEv-0x504>
    9762:	3501      	adds	r5, #1
    9764:	6923      	ldr	r3, [r4, #16]
    9766:	429d      	cmp	r5, r3
    9768:	dbdc      	blt.n	9724 <_ZN7android22QualcommCameraHardware7MemPool22completeInitializationEv+0x3c>
    976a:	e8bd 83fe 	ldmia.w	sp!, {r1, r2, r3, r4, r5, r6, r7, r8, r9, pc}
    976e:	bf00      	nop

00009770 <_ZN7android22QualcommCameraHardware7MemPoolC1EiiiPKc>:
    9770:	e92d 41f0 	stmdb	sp!, {r4, r5, r6, r7, r8, lr}
    9774:	4d12      	ldr	r5, [pc, #72]	(97c0 <_ZN7android22QualcommCameraHardware7MemPoolC1EiiiPKc+0x50>)
    9776:	4604      	mov	r4, r0
    9778:	460e      	mov	r6, r1
    977a:	4617      	mov	r7, r2
    977c:	4698      	mov	r8, r3
    977e:	f7fe e8a0 	blx	78c0 <_ZN7android22QualcommCameraHardware18filterPictureSizesEv-0x42c>
    9782:	f8df c040 	ldr.w	ip, [pc, #64]	; 97c4 <_ZN7android22QualcommCameraHardware7MemPoolC1EiiiPKc+0x54>
    9786:	447d      	add	r5, pc
    9788:	9b06      	ldr	r3, [sp, #24]
    978a:	2000      	movs	r0, #0
    978c:	60a6      	str	r6, [r4, #8]
    978e:	f855 200c 	ldr.w	r2, [r5, ip]
    9792:	f8df c034 	ldr.w	ip, [pc, #52]	; 97c8 <_ZN7android22QualcommCameraHardware7MemPoolC1EiiiPKc+0x58>
    9796:	f112 0108 	adds.w	r1, r2, #8	; 0x8
    979a:	61a0      	str	r0, [r4, #24]
    979c:	61e0      	str	r0, [r4, #28]
    979e:	f855 200c 	ldr.w	r2, [r5, ip]
    97a2:	6223      	str	r3, [r4, #32]
    97a4:	6021      	str	r1, [r4, #0]
    97a6:	6127      	str	r7, [r4, #16]
    97a8:	f8c4 8014 	str.w	r8, [r4, #20]
    97ac:	6811      	ldr	r1, [r2, #0]
    97ae:	1e48      	subs	r0, r1, #1
    97b0:	1836      	adds	r6, r6, r0
    97b2:	ea26 0300 	bic.w	r3, r6, r0
    97b6:	4620      	mov	r0, r4
    97b8:	60e3      	str	r3, [r4, #12]
    97ba:	e8bd 81f0 	ldmia.w	sp!, {r4, r5, r6, r7, r8, pc}
    97be:	bf00      	nop
    97c0:	af6e      	add	r7, sp, #440
    97c2:	0000      	lsls	r0, r0, #0
    97c4:	fe84 ffff 	mcr2	15, 4, pc, cr4, cr15, {7}
    97c8:	fe98 ffff 	mrc2	15, 4, pc, cr8, cr15, {7}

000097cc <_ZN7android22QualcommCameraHardware7MemPoolC2EiiiPKc>:
    97cc:	e92d 41f0 	stmdb	sp!, {r4, r5, r6, r7, r8, lr}
    97d0:	4d12      	ldr	r5, [pc, #72]	(981c <_ZN7android22QualcommCameraHardware7MemPoolC2EiiiPKc+0x50>)
    97d2:	4604      	mov	r4, r0
    97d4:	460e      	mov	r6, r1
    97d6:	4617      	mov	r7, r2
    97d8:	4698      	mov	r8, r3
    97da:	f7fe e872 	blx	78c0 <_ZN7android22QualcommCameraHardware18filterPictureSizesEv-0x42c>
    97de:	f8df c040 	ldr.w	ip, [pc, #64]	; 9820 <_ZN7android22QualcommCameraHardware7MemPoolC2EiiiPKc+0x54>
    97e2:	447d      	add	r5, pc
    97e4:	9b06      	ldr	r3, [sp, #24]
    97e6:	2000      	movs	r0, #0
    97e8:	60a6      	str	r6, [r4, #8]
    97ea:	f855 200c 	ldr.w	r2, [r5, ip]
    97ee:	f8df c034 	ldr.w	ip, [pc, #52]	; 9824 <_ZN7android22QualcommCameraHardware7MemPoolC2EiiiPKc+0x58>
    97f2:	f112 0108 	adds.w	r1, r2, #8	; 0x8
    97f6:	61a0      	str	r0, [r4, #24]
    97f8:	61e0      	str	r0, [r4, #28]
    97fa:	f855 200c 	ldr.w	r2, [r5, ip]
    97fe:	6223      	str	r3, [r4, #32]
    9800:	6021      	str	r1, [r4, #0]
    9802:	6127      	str	r7, [r4, #16]
    9804:	f8c4 8014 	str.w	r8, [r4, #20]
    9808:	6811      	ldr	r1, [r2, #0]
    980a:	1e48      	subs	r0, r1, #1
    980c:	1836      	adds	r6, r6, r0
    980e:	ea26 0300 	bic.w	r3, r6, r0
    9812:	4620      	mov	r0, r4
    9814:	60e3      	str	r3, [r4, #12]
    9816:	e8bd 81f0 	ldmia.w	sp!, {r4, r5, r6, r7, r8, pc}
    981a:	bf00      	nop
    981c:	af12      	add	r7, sp, #72
    981e:	0000      	lsls	r0, r0, #0
    9820:	fe84 ffff 	mcr2	15, 4, pc, cr4, cr15, {7}
    9824:	fe98 ffff 	mrc2	15, 4, pc, cr8, cr15, {7}

00009828 <_ZN7android22QualcommCameraHardware8PmemPoolC1EPKciiiiiiS3_>:
    9828:	e92d 4ff0 	stmdb	sp!, {r4, r5, r6, r7, r8, r9, sl, fp, lr}
    982c:	b08f      	sub	sp, #60
    982e:	460e      	mov	r6, r1
    9830:	4698      	mov	r8, r3
    9832:	991c      	ldr	r1, [sp, #112]
    9834:	4692      	mov	sl, r2
    9836:	9d1a      	ldr	r5, [sp, #104]
    9838:	4604      	mov	r4, r0
    983a:	f8dd 906c 	ldr.w	r9, [sp, #108]
    983e:	9100      	str	r1, [sp, #0]
    9840:	462a      	mov	r2, r5
    9842:	464b      	mov	r3, r9
    9844:	9919      	ldr	r1, [sp, #100]
    9846:	4f9e      	ldr	r7, [pc, #632]	(9ac0 <_ZN7android22QualcommCameraHardware8PmemPoolC1EPKciiiiiiS3_+0x298>)
    9848:	f8dd b060 	ldr.w	fp, [sp, #96]
    984c:	f7ff ffbe 	bl	97cc <_ZN7android22QualcommCameraHardware7MemPoolC2EiiiPKc>
    9850:	f8df c270 	ldr.w	ip, [pc, #624]	; 9ac4 <_ZN7android22QualcommCameraHardware8PmemPoolC1EPKciiiiiiS3_+0x29c>
    9854:	447f      	add	r7, pc
    9856:	4640      	mov	r0, r8
    9858:	f8c4 b028 	str.w	fp, [r4, #40]
    985c:	f857 200c 	ldr.w	r2, [r7, ip]
    9860:	f112 0708 	adds.w	r7, r2, #8	; 0x8
    9864:	6027      	str	r7, [r4, #0]
    9866:	f7fe e832 	blx	78cc <_ZN7android22QualcommCameraHardware18filterPictureSizesEv-0x420>
    986a:	4f97      	ldr	r7, [pc, #604]	(9ac8 <_ZN7android22QualcommCameraHardware8PmemPoolC1EPKciiiiiiS3_+0x2a0>)
    986c:	4a97      	ldr	r2, [pc, #604]	(9acc <_ZN7android22QualcommCameraHardware8PmemPoolC1EPKciiiiiiS3_+0x2a4>)
    986e:	447f      	add	r7, pc
    9870:	6a23      	ldr	r3, [r4, #32]
    9872:	447a      	add	r2, pc
    9874:	4639      	mov	r1, r7
    9876:	f8cd 9008 	str.w	r9, [sp, #8]
    987a:	9600      	str	r6, [sp, #0]
    987c:	9501      	str	r5, [sp, #4]
    987e:	62e0      	str	r0, [r4, #44]
    9880:	9819      	ldr	r0, [sp, #100]
    9882:	9003      	str	r0, [sp, #12]
    9884:	2002      	movs	r0, #2
    9886:	f7fd efa4 	blx	77d0 <_ZN7android22QualcommCameraHardware18filterPictureSizesEv-0x51c>
    988a:	6ae1      	ldr	r1, [r4, #44]
    988c:	4b90      	ldr	r3, [pc, #576]	(9ad0 <_ZN7android22QualcommCameraHardware8PmemPoolC1EPKciiiiiiS3_+0x2a8>)
    988e:	2002      	movs	r0, #2
    9890:	4a90      	ldr	r2, [pc, #576]	(9ad4 <_ZN7android22QualcommCameraHardware8PmemPoolC1EPKciiiiiiS3_+0x2ac>)
    9892:	447b      	add	r3, pc
    9894:	9101      	str	r1, [sp, #4]
    9896:	33ec      	adds	r3, #236
    9898:	4639      	mov	r1, r7
    989a:	447a      	add	r2, pc
    989c:	f8cd 8000 	str.w	r8, [sp]
    98a0:	f7fd ef96 	blx	77d0 <_ZN7android22QualcommCameraHardware18filterPictureSizesEv-0x51c>
    98a4:	68e2      	ldr	r2, [r4, #12]
    98a6:	f10d 0834 	add.w	r8, sp, #52	; 0x34
    98aa:	fb02 f005 	mul.w	r0, r2, r5
    98ae:	6320      	str	r0, [r4, #48]
    98b0:	2034      	movs	r0, #52
    98b2:	f7fd effa 	blx	78a8 <_ZN7android22QualcommCameraHardware18filterPictureSizesEv-0x444>
    98b6:	6b22      	ldr	r2, [r4, #48]
    98b8:	4653      	mov	r3, sl
    98ba:	4631      	mov	r1, r6
    98bc:	4681      	mov	r9, r0
    98be:	f7fe e80c 	blx	78d8 <_ZN7android22QualcommCameraHardware18filterPictureSizesEv-0x414>
    98c2:	4649      	mov	r1, r9
    98c4:	4640      	mov	r0, r8
    98c6:	f7fe fbd7 	bl	8078 <_ZN7android2spINS_14MemoryHeapBaseEEC1EPS1_>
    98ca:	980d      	ldr	r0, [sp, #52]
    98cc:	6801      	ldr	r1, [r0, #0]
    98ce:	688b      	ldr	r3, [r1, #8]
    98d0:	4798      	blx	r3
    98d2:	2800      	cmp	r0, #0
    98d4:	da0a      	bge.n	98ec <_ZN7android22QualcommCameraHardware8PmemPoolC1EPKciiiiiiS3_+0xc4>
    98d6:	4a80      	ldr	r2, [pc, #512]	(9ad8 <_ZN7android22QualcommCameraHardware8PmemPoolC1EPKciiiiiiS3_+0x2b0>)
    98d8:	2006      	movs	r0, #6
    98da:	4639      	mov	r1, r7
    98dc:	4633      	mov	r3, r6
    98de:	447a      	add	r2, pc
    98e0:	f7fd ef76 	blx	77d0 <_ZN7android22QualcommCameraHardware18filterPictureSizesEv-0x51c>
    98e4:	4640      	mov	r0, r8
    98e6:	f7fe fc27 	bl	8138 <_ZN7android2spINS_14MemoryHeapBaseEE5clearEv>
    98ea:	e0e0      	b.n	9aae <_ZN7android22QualcommCameraHardware8PmemPoolC1EPKciiiiiiS3_+0x286>
    98ec:	2050      	movs	r0, #80
    98ee:	f7fd efdc 	blx	78a8 <_ZN7android22QualcommCameraHardware18filterPictureSizesEv-0x444>
    98f2:	4641      	mov	r1, r8
    98f4:	4652      	mov	r2, sl
    98f6:	4607      	mov	r7, r0
    98f8:	f7fd eff4 	blx	78e4 <_ZN7android22QualcommCameraHardware18filterPictureSizesEv-0x408>
    98fc:	970c      	str	r7, [sp, #48]
    98fe:	b137      	cbz	r7, 990e <_ZN7android22QualcommCameraHardware8PmemPoolC1EPKciiiiiiS3_+0xe6>
    9900:	683b      	ldr	r3, [r7, #0]
    9902:	a90c      	add	r1, sp, #48
    9904:	f853 0c10 	ldr.w	r0, [r3, #-16]
    9908:	1838      	adds	r0, r7, r0
    990a:	f7fd ef68 	blx	77dc <_ZN7android22QualcommCameraHardware18filterPictureSizesEv-0x510>
    990e:	980c      	ldr	r0, [sp, #48]
    9910:	6801      	ldr	r1, [r0, #0]
    9912:	688a      	ldr	r2, [r1, #8]
    9914:	4790      	blx	r2
    9916:	2800      	cmp	r0, #0
    9918:	f2c0 80be 	blt.w	9a98 <_ZN7android22QualcommCameraHardware8PmemPoolC1EPKciiiiiiS3_+0x270>
    991c:	980c      	ldr	r0, [sp, #48]
    991e:	f10d 0830 	add.w	r8, sp, #48	; 0x30
    9922:	6803      	ldr	r3, [r0, #0]
    9924:	69df      	ldr	r7, [r3, #28]
    9926:	47b8      	blx	r7
    9928:	a80d      	add	r0, sp, #52
    992a:	f104 0718 	add.w	r7, r4, #24	; 0x18
    992e:	f7fe fc03 	bl	8138 <_ZN7android2spINS_14MemoryHeapBaseEE5clearEv>
    9932:	4638      	mov	r0, r7
    9934:	4641      	mov	r1, r8
    9936:	f7fe fc6b 	bl	8210 <_ZN7android2spINS_14MemoryHeapBaseEEaSINS_14MemoryHeapPmemEEERS2_RKNS0_IT_EE>
    993a:	9b0c      	ldr	r3, [sp, #48]
    993c:	b143      	cbz	r3, 9950 <_ZN7android22QualcommCameraHardware8PmemPoolC1EPKciiiiiiS3_+0x128>
    993e:	681a      	ldr	r2, [r3, #0]
    9940:	f852 1c10 	ldr.w	r1, [r2, #-16]
    9944:	1858      	adds	r0, r3, r1
    9946:	4641      	mov	r1, r8
    9948:	f7fd ef4e 	blx	77e8 <_ZN7android22QualcommCameraHardware18filterPictureSizesEv-0x504>
    994c:	2000      	movs	r0, #0
    994e:	900c      	str	r0, [sp, #48]
    9950:	69a0      	ldr	r0, [r4, #24]
    9952:	6801      	ldr	r1, [r0, #0]
    9954:	688b      	ldr	r3, [r1, #8]
    9956:	4798      	blx	r3
    9958:	f104 0234 	add.w	r2, r4, #52	; 0x34
    995c:	4957      	ldr	r1, [pc, #348]	(9abc <_ZN7android22QualcommCameraHardware8PmemPoolC1EPKciiiiiiS3_+0x294>)
    995e:	6260      	str	r0, [r4, #36]
    9960:	f7fd ef84 	blx	786c <_ZN7android22QualcommCameraHardware18filterPictureSizesEv-0x480>
    9964:	4680      	mov	r8, r0
    9966:	b1a0      	cbz	r0, 9992 <_ZN7android22QualcommCameraHardware8PmemPoolC1EPKciiiiiiS3_+0x16a>
    9968:	f7fd ef86 	blx	7878 <_ZN7android22QualcommCameraHardware18filterPictureSizesEv-0x474>
    996c:	4605      	mov	r5, r0
    996e:	6800      	ldr	r0, [r0, #0]
    9970:	f7fd ef88 	blx	7884 <_ZN7android22QualcommCameraHardware18filterPictureSizesEv-0x468>
    9974:	4959      	ldr	r1, [pc, #356]	(9adc <_ZN7android22QualcommCameraHardware8PmemPoolC1EPKciiiiiiS3_+0x2b4>)
    9976:	682b      	ldr	r3, [r5, #0]
    9978:	4a59      	ldr	r2, [pc, #356]	(9ae0 <_ZN7android22QualcommCameraHardware8PmemPoolC1EPKciiiiiiS3_+0x2b8>)
    997a:	4479      	add	r1, pc
    997c:	9301      	str	r3, [sp, #4]
    997e:	447a      	add	r2, pc
    9980:	4633      	mov	r3, r6
    9982:	9000      	str	r0, [sp, #0]
    9984:	2006      	movs	r0, #6
    9986:	f7fd ef24 	blx	77d0 <_ZN7android22QualcommCameraHardware18filterPictureSizesEv-0x51c>
    998a:	4638      	mov	r0, r7
    998c:	f7fe fbd4 	bl	8138 <_ZN7android2spINS_14MemoryHeapBaseEE5clearEv>
    9990:	e08a      	b.n	9aa8 <_ZN7android22QualcommCameraHardware8PmemPoolC1EPKciiiiiiS3_+0x280>
    9992:	6a61      	ldr	r1, [r4, #36]
    9994:	4633      	mov	r3, r6
    9996:	6ba0      	ldr	r0, [r4, #56]
    9998:	4f52      	ldr	r7, [pc, #328]	(9ae4 <_ZN7android22QualcommCameraHardware8PmemPoolC1EPKciiiiiiS3_+0x2bc>)
    999a:	4a53      	ldr	r2, [pc, #332]	(9ae8 <_ZN7android22QualcommCameraHardware8PmemPoolC1EPKciiiiiiS3_+0x2c0>)
    999c:	447f      	add	r7, pc
    999e:	9100      	str	r1, [sp, #0]
    99a0:	447a      	add	r2, pc
    99a2:	9001      	str	r0, [sp, #4]
    99a4:	4639      	mov	r1, r7
    99a6:	2002      	movs	r0, #2
    99a8:	f7fd ef12 	blx	77d0 <_ZN7android22QualcommCameraHardware18filterPictureSizesEv-0x51c>
    99ac:	68e6      	ldr	r6, [r4, #12]
    99ae:	4a4f      	ldr	r2, [pc, #316]	(9aec <_ZN7android22QualcommCameraHardware8PmemPoolC1EPKciiiiiiS3_+0x2c4>)
    99b0:	4639      	mov	r1, r7
    99b2:	2003      	movs	r0, #3
    99b4:	68a3      	ldr	r3, [r4, #8]
    99b6:	447a      	add	r2, pc
    99b8:	9600      	str	r6, [sp, #0]
    99ba:	f7fd ef0a 	blx	77d0 <_ZN7android22QualcommCameraHardware18filterPictureSizesEv-0x51c>
    99be:	6a26      	ldr	r6, [r4, #32]
    99c0:	484b      	ldr	r0, [pc, #300]	(9af0 <_ZN7android22QualcommCameraHardware8PmemPoolC1EPKciiiiiiS3_+0x2c8>)
    99c2:	4631      	mov	r1, r6
    99c4:	4478      	add	r0, pc
    99c6:	f7fd ef4c 	blx	7860 <_ZN7android22QualcommCameraHardware18filterPictureSizesEv-0x48c>
    99ca:	2800      	cmp	r0, #0
    99cc:	d060      	beq.n	9a90 <_ZN7android22QualcommCameraHardware8PmemPoolC1EPKciiiiiiS3_+0x268>
    99ce:	4849      	ldr	r0, [pc, #292]	(9af4 <_ZN7android22QualcommCameraHardware8PmemPoolC1EPKciiiiiiS3_+0x2cc>)
    99d0:	4631      	mov	r1, r6
    99d2:	f8df 9124 	ldr.w	r9, [pc, #292]	; 9af8 <_ZN7android22QualcommCameraHardware8PmemPoolC1EPKciiiiiiS3_+0x2d0>
    99d6:	4646      	mov	r6, r8
    99d8:	4478      	add	r0, pc
    99da:	f8df 8120 	ldr.w	r8, [pc, #288]	; 9afc <_ZN7android22QualcommCameraHardware8PmemPoolC1EPKciiiiiiS3_+0x2d4>
    99de:	f7fd ef40 	blx	7860 <_ZN7android22QualcommCameraHardware18filterPictureSizesEv-0x48c>
    99e2:	4a47      	ldr	r2, [pc, #284]	(9b00 <_ZN7android22QualcommCameraHardware8PmemPoolC1EPKciiiiiiS3_+0x2d8>)
    99e4:	4639      	mov	r1, r7
    99e6:	44f8      	add	r8, pc
    99e8:	447a      	add	r2, pc
    99ea:	44f9      	add	r9, pc
    99ec:	2800      	cmp	r0, #0
    99ee:	bf08      	it	eq
    99f0:	2504      	moveq	r5, #4
    99f2:	2003      	movs	r0, #3
    99f4:	462b      	mov	r3, r5
    99f6:	1e6f      	subs	r7, r5, #1
    99f8:	f7fd eeea 	blx	77d0 <_ZN7android22QualcommCameraHardware18filterPictureSizesEv-0x51c>
    99fc:	970b      	str	r7, [sp, #44]
    99fe:	462f      	mov	r7, r5
    9a00:	e044      	b.n	9a8c <_ZN7android22QualcommCameraHardware8PmemPoolC1EPKciiiiiiS3_+0x264>
    9a02:	f1bb 0f0e 	cmp.w	fp, #14	; 0xe
    9a06:	d10a      	bne.n	9a1e <_ZN7android22QualcommCameraHardware8PmemPoolC1EPKciiiiiiS3_+0x1f6>
    9a08:	2e02      	cmp	r6, #2
    9a0a:	bfcc      	ite	gt
    9a0c:	2500      	movgt	r5, #0
    9a0e:	2501      	movle	r5, #1
    9a10:	2002      	movs	r0, #2
    9a12:	4641      	mov	r1, r8
    9a14:	464a      	mov	r2, r9
    9a16:	462b      	mov	r3, r5
    9a18:	f7fd eeda 	blx	77d0 <_ZN7android22QualcommCameraHardware18filterPictureSizesEv-0x51c>
    9a1c:	e009      	b.n	9a32 <_ZN7android22QualcommCameraHardware8PmemPoolC1EPKciiiiiiS3_+0x20a>
    9a1e:	f1bb 0f0f 	cmp.w	fp, #15	; 0xf
    9a22:	d001      	beq.n	9a28 <_ZN7android22QualcommCameraHardware8PmemPoolC1EPKciiiiiiS3_+0x200>
    9a24:	2501      	movs	r5, #1
    9a26:	e004      	b.n	9a32 <_ZN7android22QualcommCameraHardware8PmemPoolC1EPKciiiiiiS3_+0x20a>
    9a28:	9a0b      	ldr	r2, [sp, #44]
    9a2a:	4296      	cmp	r6, r2
    9a2c:	bfac      	ite	ge
    9a2e:	2500      	movge	r5, #0
    9a30:	2501      	movlt	r5, #1
    9a32:	6960      	ldr	r0, [r4, #20]
    9a34:	6ae3      	ldr	r3, [r4, #44]
    9a36:	f8d4 a008 	ldr.w	sl, [r4, #8]
    9a3a:	900a      	str	r0, [sp, #40]
    9a3c:	69a0      	ldr	r0, [r4, #24]
    9a3e:	6802      	ldr	r2, [r0, #0]
    9a40:	6891      	ldr	r1, [r2, #8]
    9a42:	9307      	str	r3, [sp, #28]
    9a44:	4788      	blx	r1
    9a46:	69a1      	ldr	r1, [r4, #24]
    9a48:	68e2      	ldr	r2, [r4, #12]
    9a4a:	680b      	ldr	r3, [r1, #0]
    9a4c:	fb02 f206 	mul.w	r2, r2, r6
    9a50:	4684      	mov	ip, r0
    9a52:	f853 0c0c 	ldr.w	r0, [r3, #-12]
    9a56:	9209      	str	r2, [sp, #36]
    9a58:	1808      	adds	r0, r1, r0
    9a5a:	f8cd c020 	str.w	ip, [sp, #32]
    9a5e:	f7fe f92b 	bl	7cb8 <_ZN7android22QualcommCameraHardware18filterPictureSizesEv-0x34>
    9a62:	68e2      	ldr	r2, [r4, #12]
    9a64:	9b09      	ldr	r3, [sp, #36]
    9a66:	f8dd c020 	ldr.w	ip, [sp, #32]
    9a6a:	f8cd b008 	str.w	fp, [sp, #8]
    9a6e:	9300      	str	r3, [sp, #0]
    9a70:	9b07      	ldr	r3, [sp, #28]
    9a72:	9503      	str	r5, [sp, #12]
    9a74:	fb02 0106 	mla	r1, r2, r6, r0
    9a78:	2001      	movs	r0, #1
    9a7a:	9a0a      	ldr	r2, [sp, #40]
    9a7c:	3601      	adds	r6, #1
    9a7e:	9004      	str	r0, [sp, #16]
    9a80:	4618      	mov	r0, r3
    9a82:	4663      	mov	r3, ip
    9a84:	9101      	str	r1, [sp, #4]
    9a86:	4651      	mov	r1, sl
    9a88:	f7ff fa0e 	bl	8ea8 <_ZN7android22QualcommCameraHardware17native_zoom_imageEiiiP13common_crop_t+0x1e0>
    9a8c:	42be      	cmp	r6, r7
    9a8e:	dbb8      	blt.n	9a02 <_ZN7android22QualcommCameraHardware8PmemPoolC1EPKciiiiiiS3_+0x1da>
    9a90:	4620      	mov	r0, r4
    9a92:	f7ff fe29 	bl	96e8 <_ZN7android22QualcommCameraHardware7MemPool22completeInitializationEv>
    9a96:	e007      	b.n	9aa8 <_ZN7android22QualcommCameraHardware8PmemPoolC1EPKciiiiiiS3_+0x280>
    9a98:	491a      	ldr	r1, [pc, #104]	(9b04 <_ZN7android22QualcommCameraHardware8PmemPoolC1EPKciiiiiiS3_+0x2dc>)
    9a9a:	2006      	movs	r0, #6
    9a9c:	4a1a      	ldr	r2, [pc, #104]	(9b08 <_ZN7android22QualcommCameraHardware8PmemPoolC1EPKciiiiiiS3_+0x2e0>)
    9a9e:	4633      	mov	r3, r6
    9aa0:	4479      	add	r1, pc
    9aa2:	447a      	add	r2, pc
    9aa4:	f7fd ee94 	blx	77d0 <_ZN7android22QualcommCameraHardware18filterPictureSizesEv-0x51c>
    9aa8:	a80c      	add	r0, sp, #48
    9aaa:	f7fe fbc9 	bl	8240 <_ZN7android2spINS_14MemoryHeapPmemEED1Ev>
    9aae:	a80d      	add	r0, sp, #52
    9ab0:	f7fe fb50 	bl	8154 <_ZN7android2spINS_14MemoryHeapBaseEED1Ev>
    9ab4:	4620      	mov	r0, r4
    9ab6:	b00f      	add	sp, #60
    9ab8:	e8bd 8ff0 	ldmia.w	sp!, {r4, r5, r6, r7, r8, r9, sl, fp, pc}
    9abc:	7003      	strb	r3, [r0, #0]
    9abe:	4004      	ands	r4, r0
    9ac0:	aea0      	add	r6, sp, #640
    9ac2:	0000      	lsls	r0, r0, #0
    9ac4:	fe94 ffff 	mrc2	15, 4, pc, cr4, cr15, {7}
    9ac8:	6b21      	ldr	r1, [r4, #48]
    9aca:	0000      	lsls	r0, r0, #0
    9acc:	743c      	strb	r4, [r7, #16]
    9ace:	0000      	lsls	r0, r0, #0
    9ad0:	699a      	ldr	r2, [r3, #24]
    9ad2:	0000      	lsls	r0, r0, #0
    9ad4:	7469      	strb	r1, [r5, #17]
    9ad6:	0000      	lsls	r0, r0, #0
    9ad8:	744a      	strb	r2, [r1, #17]
    9ada:	0000      	lsls	r0, r0, #0
    9adc:	6a15      	ldr	r5, [r2, #32]
    9ade:	0000      	lsls	r0, r0, #0
    9ae0:	73db      	strb	r3, [r3, #15]
    9ae2:	0000      	lsls	r0, r0, #0
    9ae4:	69f3      	ldr	r3, [r6, #28]
    9ae6:	0000      	lsls	r0, r0, #0
    9ae8:	73e9      	strb	r1, [r5, #15]
    9aea:	0000      	lsls	r0, r0, #0
    9aec:	7405      	strb	r5, [r0, #16]
    9aee:	0000      	lsls	r0, r0, #0
    9af0:	6ff3      	ldr	r3, [r6, #124]
    9af2:	0000      	lsls	r0, r0, #0
    9af4:	6fe8      	ldr	r0, [r5, #124]
    9af6:	0000      	lsls	r0, r0, #0
    9af8:	7409      	strb	r1, [r1, #16]
    9afa:	0000      	lsls	r0, r0, #0
    9afc:	69a9      	ldr	r1, [r5, #24]
    9afe:	0000      	lsls	r0, r0, #0
    9b00:	73fa      	strb	r2, [r7, #15]
    9b02:	0000      	lsls	r0, r0, #0
    9b04:	68ef      	ldr	r7, [r5, #12]
    9b06:	0000      	lsls	r0, r0, #0
    9b08:	737f      	strb	r7, [r7, #13]
	...

00009b0c <_ZN7android22QualcommCameraHardware15initRawSnapshotEv>:
    9b0c:	e92d 41f0 	stmdb	sp!, {r4, r5, r6, r7, r8, lr}
    9b10:	4e37      	ldr	r6, [pc, #220]	(9bf0 <_ZN7android22QualcommCameraHardware15initRawSnapshotEv+0xe4>)
    9b12:	4a38      	ldr	r2, [pc, #224]	(9bf4 <_ZN7android22QualcommCameraHardware15initRawSnapshotEv+0xe8>)
    9b14:	4604      	mov	r4, r0
    9b16:	447e      	add	r6, pc
    9b18:	b086      	sub	sp, #24
    9b1a:	447a      	add	r2, pc
    9b1c:	4631      	mov	r1, r6
    9b1e:	2002      	movs	r0, #2
    9b20:	f7fd ee56 	blx	77d0 <_ZN7android22QualcommCameraHardware18filterPictureSizesEv-0x51c>
    9b24:	f504 7381 	add.w	r3, r4, #258	; 0x102
    9b28:	4620      	mov	r0, r4
    9b2a:	2101      	movs	r1, #1
    9b2c:	2220      	movs	r2, #32
    9b2e:	f7ff fd43 	bl	95b8 <_ZN7android22QualcommCameraHardware15native_set_parmEhtPv>
    9b32:	4605      	mov	r5, r0
    9b34:	b938      	cbnz	r0, 9b46 <_ZN7android22QualcommCameraHardware15initRawSnapshotEv+0x3a>
    9b36:	4a30      	ldr	r2, [pc, #192]	(9bf8 <_ZN7android22QualcommCameraHardware15initRawSnapshotEv+0xec>)
    9b38:	2006      	movs	r0, #6
    9b3a:	4631      	mov	r1, r6
    9b3c:	447a      	add	r2, pc
    9b3e:	f7fd ee48 	blx	77d0 <_ZN7android22QualcommCameraHardware18filterPictureSizesEv-0x51c>
    9b42:	4628      	mov	r0, r5
    9b44:	e050      	b.n	9be8 <_ZN7android22QualcommCameraHardware15initRawSnapshotEv+0xdc>
    9b46:	f8b4 111a 	ldrh.w	r1, [r4, #282]
    9b4a:	f8b4 011c 	ldrh.w	r0, [r4, #284]
    9b4e:	4a2b      	ldr	r2, [pc, #172]	(9bfc <_ZN7android22QualcommCameraHardware15initRawSnapshotEv+0xf0>)
    9b50:	9100      	str	r1, [sp, #0]
    9b52:	fb01 f500 	mul.w	r5, r1, r0
    9b56:	9001      	str	r0, [sp, #4]
    9b58:	447a      	add	r2, pc
    9b5a:	2002      	movs	r0, #2
    9b5c:	4631      	mov	r1, r6
    9b5e:	462b      	mov	r3, r5
    9b60:	f7fd ee36 	blx	77d0 <_ZN7android22QualcommCameraHardware18filterPictureSizesEv-0x51c>
    9b64:	6ca3      	ldr	r3, [r4, #72]
    9b66:	b14b      	cbz	r3, 9b7c <_ZN7android22QualcommCameraHardware15initRawSnapshotEv+0x70>
    9b68:	4a25      	ldr	r2, [pc, #148]	(9c00 <_ZN7android22QualcommCameraHardware15initRawSnapshotEv+0xf4>)
    9b6a:	2002      	movs	r0, #2
    9b6c:	4631      	mov	r1, r6
    9b6e:	447a      	add	r2, pc
    9b70:	f7fd ee2e 	blx	77d0 <_ZN7android22QualcommCameraHardware18filterPictureSizesEv-0x51c>
    9b74:	f104 0048 	add.w	r0, r4, #72	; 0x48
    9b78:	f7fe fbe8 	bl	834c <_ZN7android2spINS_22QualcommCameraHardware8PmemPoolEE5clearEv>
    9b7c:	203c      	movs	r0, #60
    9b7e:	f104 0648 	add.w	r6, r4, #72	; 0x48
    9b82:	f7fd ee92 	blx	78a8 <_ZN7android22QualcommCameraHardware18filterPictureSizesEv-0x444>
    9b86:	491f      	ldr	r1, [pc, #124]	(9c04 <_ZN7android22QualcommCameraHardware15initRawSnapshotEv+0xf8>)
    9b88:	4a1f      	ldr	r2, [pc, #124]	(9c08 <_ZN7android22QualcommCameraHardware15initRawSnapshotEv+0xfc>)
    9b8a:	2305      	movs	r3, #5
    9b8c:	4479      	add	r1, pc
    9b8e:	9300      	str	r3, [sp, #0]
    9b90:	9501      	str	r5, [sp, #4]
    9b92:	447a      	add	r2, pc
    9b94:	9503      	str	r5, [sp, #12]
    9b96:	f04f 0801 	mov.w	r8, #1	; 0x1
    9b9a:	9204      	str	r2, [sp, #16]
    9b9c:	f240 2201 	movw	r2, #513	; 0x201
    9ba0:	f8cd 8008 	str.w	r8, [sp, #8]
    9ba4:	f8d4 30dc 	ldr.w	r3, [r4, #220]
    9ba8:	4607      	mov	r7, r0
    9baa:	f7ff fe3d 	bl	9828 <_ZN7android22QualcommCameraHardware8PmemPoolC1EPKciiiiiiS3_>
    9bae:	4639      	mov	r1, r7
    9bb0:	4630      	mov	r0, r6
    9bb2:	f7fe fbbb 	bl	832c <_ZN7android2spINS_22QualcommCameraHardware8PmemPoolEEaSEPS2_>
    9bb6:	6ca0      	ldr	r0, [r4, #72]
    9bb8:	f7fe f88a 	bl	7cd0 <_ZN7android22QualcommCameraHardware18filterPictureSizesEv-0x1c>
    9bbc:	4604      	mov	r4, r0
    9bbe:	b958      	cbnz	r0, 9bd8 <_ZN7android22QualcommCameraHardware15initRawSnapshotEv+0xcc>
    9bc0:	4630      	mov	r0, r6
    9bc2:	f7fe fbc3 	bl	834c <_ZN7android2spINS_22QualcommCameraHardware8PmemPoolEE5clearEv>
    9bc6:	4911      	ldr	r1, [pc, #68]	(9c0c <_ZN7android22QualcommCameraHardware15initRawSnapshotEv+0x100>)
    9bc8:	4a11      	ldr	r2, [pc, #68]	(9c10 <_ZN7android22QualcommCameraHardware15initRawSnapshotEv+0x104>)
    9bca:	2006      	movs	r0, #6
    9bcc:	4479      	add	r1, pc
    9bce:	447a      	add	r2, pc
    9bd0:	f7fd edfe 	blx	77d0 <_ZN7android22QualcommCameraHardware18filterPictureSizesEv-0x51c>
    9bd4:	4620      	mov	r0, r4
    9bd6:	e007      	b.n	9be8 <_ZN7android22QualcommCameraHardware15initRawSnapshotEv+0xdc>
    9bd8:	490e      	ldr	r1, [pc, #56]	(9c14 <_ZN7android22QualcommCameraHardware15initRawSnapshotEv+0x108>)
    9bda:	2002      	movs	r0, #2
    9bdc:	4a0e      	ldr	r2, [pc, #56]	(9c18 <_ZN7android22QualcommCameraHardware15initRawSnapshotEv+0x10c>)
    9bde:	4479      	add	r1, pc
    9be0:	447a      	add	r2, pc
    9be2:	f7fd edf6 	blx	77d0 <_ZN7android22QualcommCameraHardware18filterPictureSizesEv-0x51c>
    9be6:	4640      	mov	r0, r8
    9be8:	b006      	add	sp, #24
    9bea:	e8bd 81f0 	ldmia.w	sp!, {r4, r5, r6, r7, r8, pc}
    9bee:	bf00      	nop
    9bf0:	6879      	ldr	r1, [r7, #4]
    9bf2:	0000      	lsls	r0, r0, #0
    9bf4:	7339      	strb	r1, [r7, #12]
    9bf6:	0000      	lsls	r0, r0, #0
    9bf8:	7329      	strb	r1, [r5, #12]
    9bfa:	0000      	lsls	r0, r0, #0
    9bfc:	7338      	strb	r0, [r7, #12]
    9bfe:	0000      	lsls	r0, r0, #0
    9c00:	7371      	strb	r1, [r6, #13]
    9c02:	0000      	lsls	r0, r0, #0
    9c04:	7387      	strb	r7, [r0, #14]
    9c06:	0000      	lsls	r0, r0, #0
    9c08:	7390      	strb	r0, [r2, #14]
    9c0a:	0000      	lsls	r0, r0, #0
    9c0c:	67c3      	str	r3, [r0, #124]
    9c0e:	0000      	lsls	r0, r0, #0
    9c10:	736d      	strb	r5, [r5, #13]
    9c12:	0000      	lsls	r0, r0, #0
    9c14:	67b1      	str	r1, [r6, #120]
    9c16:	0000      	lsls	r0, r0, #0
    9c18:	7392      	strb	r2, [r2, #14]
	...

00009c1c <_ZN7android22QualcommCameraHardware8PmemPoolC2EPKciiiiiiS3_>:
    9c1c:	e92d 4ff0 	stmdb	sp!, {r4, r5, r6, r7, r8, r9, sl, fp, lr}
    9c20:	b08f      	sub	sp, #60
    9c22:	460e      	mov	r6, r1
    9c24:	4698      	mov	r8, r3
    9c26:	991c      	ldr	r1, [sp, #112]
    9c28:	4692      	mov	sl, r2
    9c2a:	9d1a      	ldr	r5, [sp, #104]
    9c2c:	4604      	mov	r4, r0
    9c2e:	f8dd 906c 	ldr.w	r9, [sp, #108]
    9c32:	9100      	str	r1, [sp, #0]
    9c34:	462a      	mov	r2, r5
    9c36:	464b      	mov	r3, r9
    9c38:	9919      	ldr	r1, [sp, #100]
    9c3a:	4f9e      	ldr	r7, [pc, #632]	(9eb4 <_ZN7android22QualcommCameraHardware8PmemPoolC2EPKciiiiiiS3_+0x298>)
    9c3c:	f8dd b060 	ldr.w	fp, [sp, #96]
    9c40:	f7ff fdc4 	bl	97cc <_ZN7android22QualcommCameraHardware7MemPoolC2EiiiPKc>
    9c44:	f8df c270 	ldr.w	ip, [pc, #624]	; 9eb8 <_ZN7android22QualcommCameraHardware8PmemPoolC2EPKciiiiiiS3_+0x29c>
    9c48:	447f      	add	r7, pc
    9c4a:	4640      	mov	r0, r8
    9c4c:	f8c4 b028 	str.w	fp, [r4, #40]
    9c50:	f857 200c 	ldr.w	r2, [r7, ip]
    9c54:	f112 0708 	adds.w	r7, r2, #8	; 0x8
    9c58:	6027      	str	r7, [r4, #0]
    9c5a:	f7fd ee38 	blx	78cc <_ZN7android22QualcommCameraHardware18filterPictureSizesEv-0x420>
    9c5e:	4f97      	ldr	r7, [pc, #604]	(9ebc <_ZN7android22QualcommCameraHardware8PmemPoolC2EPKciiiiiiS3_+0x2a0>)
    9c60:	4a97      	ldr	r2, [pc, #604]	(9ec0 <_ZN7android22QualcommCameraHardware8PmemPoolC2EPKciiiiiiS3_+0x2a4>)
    9c62:	447f      	add	r7, pc
    9c64:	6a23      	ldr	r3, [r4, #32]
    9c66:	447a      	add	r2, pc
    9c68:	4639      	mov	r1, r7
    9c6a:	f8cd 9008 	str.w	r9, [sp, #8]
    9c6e:	9600      	str	r6, [sp, #0]
    9c70:	9501      	str	r5, [sp, #4]
    9c72:	62e0      	str	r0, [r4, #44]
    9c74:	9819      	ldr	r0, [sp, #100]
    9c76:	9003      	str	r0, [sp, #12]
    9c78:	2002      	movs	r0, #2
    9c7a:	f7fd edaa 	blx	77d0 <_ZN7android22QualcommCameraHardware18filterPictureSizesEv-0x51c>
    9c7e:	6ae1      	ldr	r1, [r4, #44]
    9c80:	4b90      	ldr	r3, [pc, #576]	(9ec4 <_ZN7android22QualcommCameraHardware8PmemPoolC2EPKciiiiiiS3_+0x2a8>)
    9c82:	2002      	movs	r0, #2
    9c84:	4a90      	ldr	r2, [pc, #576]	(9ec8 <_ZN7android22QualcommCameraHardware8PmemPoolC2EPKciiiiiiS3_+0x2ac>)
    9c86:	447b      	add	r3, pc
    9c88:	9101      	str	r1, [sp, #4]
    9c8a:	33ec      	adds	r3, #236
    9c8c:	4639      	mov	r1, r7
    9c8e:	447a      	add	r2, pc
    9c90:	f8cd 8000 	str.w	r8, [sp]
    9c94:	f7fd ed9c 	blx	77d0 <_ZN7android22QualcommCameraHardware18filterPictureSizesEv-0x51c>
    9c98:	68e2      	ldr	r2, [r4, #12]
    9c9a:	f10d 0834 	add.w	r8, sp, #52	; 0x34
    9c9e:	fb02 f005 	mul.w	r0, r2, r5
    9ca2:	6320      	str	r0, [r4, #48]
    9ca4:	2034      	movs	r0, #52
    9ca6:	f7fd ee00 	blx	78a8 <_ZN7android22QualcommCameraHardware18filterPictureSizesEv-0x444>
    9caa:	6b22      	ldr	r2, [r4, #48]
    9cac:	4653      	mov	r3, sl
    9cae:	4631      	mov	r1, r6
    9cb0:	4681      	mov	r9, r0
    9cb2:	f7fd ee12 	blx	78d8 <_ZN7android22QualcommCameraHardware18filterPictureSizesEv-0x414>
    9cb6:	4649      	mov	r1, r9
    9cb8:	4640      	mov	r0, r8
    9cba:	f7fe f9dd 	bl	8078 <_ZN7android2spINS_14MemoryHeapBaseEEC1EPS1_>
    9cbe:	980d      	ldr	r0, [sp, #52]
    9cc0:	6801      	ldr	r1, [r0, #0]
    9cc2:	688b      	ldr	r3, [r1, #8]
    9cc4:	4798      	blx	r3
    9cc6:	2800      	cmp	r0, #0
    9cc8:	da0a      	bge.n	9ce0 <_ZN7android22QualcommCameraHardware8PmemPoolC2EPKciiiiiiS3_+0xc4>
    9cca:	4a80      	ldr	r2, [pc, #512]	(9ecc <_ZN7android22QualcommCameraHardware8PmemPoolC2EPKciiiiiiS3_+0x2b0>)
    9ccc:	2006      	movs	r0, #6
    9cce:	4639      	mov	r1, r7
    9cd0:	4633      	mov	r3, r6
    9cd2:	447a      	add	r2, pc
    9cd4:	f7fd ed7c 	blx	77d0 <_ZN7android22QualcommCameraHardware18filterPictureSizesEv-0x51c>
    9cd8:	4640      	mov	r0, r8
    9cda:	f7fe fa2d 	bl	8138 <_ZN7android2spINS_14MemoryHeapBaseEE5clearEv>
    9cde:	e0e0      	b.n	9ea2 <_ZN7android22QualcommCameraHardware8PmemPoolC2EPKciiiiiiS3_+0x286>
    9ce0:	2050      	movs	r0, #80
    9ce2:	f7fd ede2 	blx	78a8 <_ZN7android22QualcommCameraHardware18filterPictureSizesEv-0x444>
    9ce6:	4641      	mov	r1, r8
    9ce8:	4652      	mov	r2, sl
    9cea:	4607      	mov	r7, r0
    9cec:	f7fd edfa 	blx	78e4 <_ZN7android22QualcommCameraHardware18filterPictureSizesEv-0x408>
    9cf0:	970c      	str	r7, [sp, #48]
    9cf2:	b137      	cbz	r7, 9d02 <_ZN7android22QualcommCameraHardware8PmemPoolC2EPKciiiiiiS3_+0xe6>
    9cf4:	683b      	ldr	r3, [r7, #0]
    9cf6:	a90c      	add	r1, sp, #48
    9cf8:	f853 0c10 	ldr.w	r0, [r3, #-16]
    9cfc:	1838      	adds	r0, r7, r0
    9cfe:	f7fd ed6e 	blx	77dc <_ZN7android22QualcommCameraHardware18filterPictureSizesEv-0x510>
    9d02:	980c      	ldr	r0, [sp, #48]
    9d04:	6801      	ldr	r1, [r0, #0]
    9d06:	688a      	ldr	r2, [r1, #8]
    9d08:	4790      	blx	r2
    9d0a:	2800      	cmp	r0, #0
    9d0c:	f2c0 80be 	blt.w	9e8c <_ZN7android22QualcommCameraHardware8PmemPoolC2EPKciiiiiiS3_+0x270>
    9d10:	980c      	ldr	r0, [sp, #48]
    9d12:	f10d 0830 	add.w	r8, sp, #48	; 0x30
    9d16:	6803      	ldr	r3, [r0, #0]
    9d18:	69df      	ldr	r7, [r3, #28]
    9d1a:	47b8      	blx	r7
    9d1c:	a80d      	add	r0, sp, #52
    9d1e:	f104 0718 	add.w	r7, r4, #24	; 0x18
    9d22:	f7fe fa09 	bl	8138 <_ZN7android2spINS_14MemoryHeapBaseEE5clearEv>
    9d26:	4638      	mov	r0, r7
    9d28:	4641      	mov	r1, r8
    9d2a:	f7fe fa71 	bl	8210 <_ZN7android2spINS_14MemoryHeapBaseEEaSINS_14MemoryHeapPmemEEERS2_RKNS0_IT_EE>
    9d2e:	9b0c      	ldr	r3, [sp, #48]
    9d30:	b143      	cbz	r3, 9d44 <_ZN7android22QualcommCameraHardware8PmemPoolC2EPKciiiiiiS3_+0x128>
    9d32:	681a      	ldr	r2, [r3, #0]
    9d34:	f852 1c10 	ldr.w	r1, [r2, #-16]
    9d38:	1858      	adds	r0, r3, r1
    9d3a:	4641      	mov	r1, r8
    9d3c:	f7fd ed54 	blx	77e8 <_ZN7android22QualcommCameraHardware18filterPictureSizesEv-0x504>
    9d40:	2000      	movs	r0, #0
    9d42:	900c      	str	r0, [sp, #48]
    9d44:	69a0      	ldr	r0, [r4, #24]
    9d46:	6801      	ldr	r1, [r0, #0]
    9d48:	688b      	ldr	r3, [r1, #8]
    9d4a:	4798      	blx	r3
    9d4c:	f104 0234 	add.w	r2, r4, #52	; 0x34
    9d50:	4957      	ldr	r1, [pc, #348]	(9eb0 <_ZN7android22QualcommCameraHardware8PmemPoolC2EPKciiiiiiS3_+0x294>)
    9d52:	6260      	str	r0, [r4, #36]
    9d54:	f7fd ed8a 	blx	786c <_ZN7android22QualcommCameraHardware18filterPictureSizesEv-0x480>
    9d58:	4680      	mov	r8, r0
    9d5a:	b1a0      	cbz	r0, 9d86 <_ZN7android22QualcommCameraHardware8PmemPoolC2EPKciiiiiiS3_+0x16a>
    9d5c:	f7fd ed8c 	blx	7878 <_ZN7android22QualcommCameraHardware18filterPictureSizesEv-0x474>
    9d60:	4605      	mov	r5, r0
    9d62:	6800      	ldr	r0, [r0, #0]
    9d64:	f7fd ed8e 	blx	7884 <_ZN7android22QualcommCameraHardware18filterPictureSizesEv-0x468>
    9d68:	4959      	ldr	r1, [pc, #356]	(9ed0 <_ZN7android22QualcommCameraHardware8PmemPoolC2EPKciiiiiiS3_+0x2b4>)
    9d6a:	682b      	ldr	r3, [r5, #0]
    9d6c:	4a59      	ldr	r2, [pc, #356]	(9ed4 <_ZN7android22QualcommCameraHardware8PmemPoolC2EPKciiiiiiS3_+0x2b8>)
    9d6e:	4479      	add	r1, pc
    9d70:	9301      	str	r3, [sp, #4]
    9d72:	447a      	add	r2, pc
    9d74:	4633      	mov	r3, r6
    9d76:	9000      	str	r0, [sp, #0]
    9d78:	2006      	movs	r0, #6
    9d7a:	f7fd ed2a 	blx	77d0 <_ZN7android22QualcommCameraHardware18filterPictureSizesEv-0x51c>
    9d7e:	4638      	mov	r0, r7
    9d80:	f7fe f9da 	bl	8138 <_ZN7android2spINS_14MemoryHeapBaseEE5clearEv>
    9d84:	e08a      	b.n	9e9c <_ZN7android22QualcommCameraHardware8PmemPoolC2EPKciiiiiiS3_+0x280>
    9d86:	6a61      	ldr	r1, [r4, #36]
    9d88:	4633      	mov	r3, r6
    9d8a:	6ba0      	ldr	r0, [r4, #56]
    9d8c:	4f52      	ldr	r7, [pc, #328]	(9ed8 <_ZN7android22QualcommCameraHardware8PmemPoolC2EPKciiiiiiS3_+0x2bc>)
    9d8e:	4a53      	ldr	r2, [pc, #332]	(9edc <_ZN7android22QualcommCameraHardware8PmemPoolC2EPKciiiiiiS3_+0x2c0>)
    9d90:	447f      	add	r7, pc
    9d92:	9100      	str	r1, [sp, #0]
    9d94:	447a      	add	r2, pc
    9d96:	9001      	str	r0, [sp, #4]
    9d98:	4639      	mov	r1, r7
    9d9a:	2002      	movs	r0, #2
    9d9c:	f7fd ed18 	blx	77d0 <_ZN7android22QualcommCameraHardware18filterPictureSizesEv-0x51c>
    9da0:	68e6      	ldr	r6, [r4, #12]
    9da2:	4a4f      	ldr	r2, [pc, #316]	(9ee0 <_ZN7android22QualcommCameraHardware8PmemPoolC2EPKciiiiiiS3_+0x2c4>)
    9da4:	4639      	mov	r1, r7
    9da6:	2003      	movs	r0, #3
    9da8:	68a3      	ldr	r3, [r4, #8]
    9daa:	447a      	add	r2, pc
    9dac:	9600      	str	r6, [sp, #0]
    9dae:	f7fd ed10 	blx	77d0 <_ZN7android22QualcommCameraHardware18filterPictureSizesEv-0x51c>
    9db2:	6a26      	ldr	r6, [r4, #32]
    9db4:	484b      	ldr	r0, [pc, #300]	(9ee4 <_ZN7android22QualcommCameraHardware8PmemPoolC2EPKciiiiiiS3_+0x2c8>)
    9db6:	4631      	mov	r1, r6
    9db8:	4478      	add	r0, pc
    9dba:	f7fd ed52 	blx	7860 <_ZN7android22QualcommCameraHardware18filterPictureSizesEv-0x48c>
    9dbe:	2800      	cmp	r0, #0
    9dc0:	d060      	beq.n	9e84 <_ZN7android22QualcommCameraHardware8PmemPoolC2EPKciiiiiiS3_+0x268>
    9dc2:	4849      	ldr	r0, [pc, #292]	(9ee8 <_ZN7android22QualcommCameraHardware8PmemPoolC2EPKciiiiiiS3_+0x2cc>)
    9dc4:	4631      	mov	r1, r6
    9dc6:	f8df 9124 	ldr.w	r9, [pc, #292]	; 9eec <_ZN7android22QualcommCameraHardware8PmemPoolC2EPKciiiiiiS3_+0x2d0>
    9dca:	4646      	mov	r6, r8
    9dcc:	4478      	add	r0, pc
    9dce:	f8df 8120 	ldr.w	r8, [pc, #288]	; 9ef0 <_ZN7android22QualcommCameraHardware8PmemPoolC2EPKciiiiiiS3_+0x2d4>
    9dd2:	f7fd ed46 	blx	7860 <_ZN7android22QualcommCameraHardware18filterPictureSizesEv-0x48c>
    9dd6:	4a47      	ldr	r2, [pc, #284]	(9ef4 <_ZN7android22QualcommCameraHardware8PmemPoolC2EPKciiiiiiS3_+0x2d8>)
    9dd8:	4639      	mov	r1, r7
    9dda:	44f8      	add	r8, pc
    9ddc:	447a      	add	r2, pc
    9dde:	44f9      	add	r9, pc
    9de0:	2800      	cmp	r0, #0
    9de2:	bf08      	it	eq
    9de4:	2504      	moveq	r5, #4
    9de6:	2003      	movs	r0, #3
    9de8:	462b      	mov	r3, r5
    9dea:	1e6f      	subs	r7, r5, #1
    9dec:	f7fd ecf0 	blx	77d0 <_ZN7android22QualcommCameraHardware18filterPictureSizesEv-0x51c>
    9df0:	970b      	str	r7, [sp, #44]
    9df2:	462f      	mov	r7, r5
    9df4:	e044      	b.n	9e80 <_ZN7android22QualcommCameraHardware8PmemPoolC2EPKciiiiiiS3_+0x264>
    9df6:	f1bb 0f0e 	cmp.w	fp, #14	; 0xe
    9dfa:	d10a      	bne.n	9e12 <_ZN7android22QualcommCameraHardware8PmemPoolC2EPKciiiiiiS3_+0x1f6>
    9dfc:	2e02      	cmp	r6, #2
    9dfe:	bfcc      	ite	gt
    9e00:	2500      	movgt	r5, #0
    9e02:	2501      	movle	r5, #1
    9e04:	2002      	movs	r0, #2
    9e06:	4641      	mov	r1, r8
    9e08:	464a      	mov	r2, r9
    9e0a:	462b      	mov	r3, r5
    9e0c:	f7fd ece0 	blx	77d0 <_ZN7android22QualcommCameraHardware18filterPictureSizesEv-0x51c>
    9e10:	e009      	b.n	9e26 <_ZN7android22QualcommCameraHardware8PmemPoolC2EPKciiiiiiS3_+0x20a>
    9e12:	f1bb 0f0f 	cmp.w	fp, #15	; 0xf
    9e16:	d001      	beq.n	9e1c <_ZN7android22QualcommCameraHardware8PmemPoolC2EPKciiiiiiS3_+0x200>
    9e18:	2501      	movs	r5, #1
    9e1a:	e004      	b.n	9e26 <_ZN7android22QualcommCameraHardware8PmemPoolC2EPKciiiiiiS3_+0x20a>
    9e1c:	9a0b      	ldr	r2, [sp, #44]
    9e1e:	4296      	cmp	r6, r2
    9e20:	bfac      	ite	ge
    9e22:	2500      	movge	r5, #0
    9e24:	2501      	movlt	r5, #1
    9e26:	6960      	ldr	r0, [r4, #20]
    9e28:	6ae3      	ldr	r3, [r4, #44]
    9e2a:	f8d4 a008 	ldr.w	sl, [r4, #8]
    9e2e:	900a      	str	r0, [sp, #40]
    9e30:	69a0      	ldr	r0, [r4, #24]
    9e32:	6802      	ldr	r2, [r0, #0]
    9e34:	6891      	ldr	r1, [r2, #8]
    9e36:	9307      	str	r3, [sp, #28]
    9e38:	4788      	blx	r1
    9e3a:	69a1      	ldr	r1, [r4, #24]
    9e3c:	68e2      	ldr	r2, [r4, #12]
    9e3e:	680b      	ldr	r3, [r1, #0]
    9e40:	fb02 f206 	mul.w	r2, r2, r6
    9e44:	4684      	mov	ip, r0
    9e46:	f853 0c0c 	ldr.w	r0, [r3, #-12]
    9e4a:	9209      	str	r2, [sp, #36]
    9e4c:	1808      	adds	r0, r1, r0
    9e4e:	f8cd c020 	str.w	ip, [sp, #32]
    9e52:	f7fd ff31 	bl	7cb8 <_ZN7android22QualcommCameraHardware18filterPictureSizesEv-0x34>
    9e56:	68e2      	ldr	r2, [r4, #12]
    9e58:	9b09      	ldr	r3, [sp, #36]
    9e5a:	f8dd c020 	ldr.w	ip, [sp, #32]
    9e5e:	f8cd b008 	str.w	fp, [sp, #8]
    9e62:	9300      	str	r3, [sp, #0]
    9e64:	9b07      	ldr	r3, [sp, #28]
    9e66:	9503      	str	r5, [sp, #12]
    9e68:	fb02 0106 	mla	r1, r2, r6, r0
    9e6c:	2001      	movs	r0, #1
    9e6e:	9a0a      	ldr	r2, [sp, #40]
    9e70:	3601      	adds	r6, #1
    9e72:	9004      	str	r0, [sp, #16]
    9e74:	4618      	mov	r0, r3
    9e76:	4663      	mov	r3, ip
    9e78:	9101      	str	r1, [sp, #4]
    9e7a:	4651      	mov	r1, sl
    9e7c:	f7ff f814 	bl	8ea8 <_ZN7android22QualcommCameraHardware17native_zoom_imageEiiiP13common_crop_t+0x1e0>
    9e80:	42be      	cmp	r6, r7
    9e82:	dbb8      	blt.n	9df6 <_ZN7android22QualcommCameraHardware8PmemPoolC2EPKciiiiiiS3_+0x1da>
    9e84:	4620      	mov	r0, r4
    9e86:	f7ff fc2f 	bl	96e8 <_ZN7android22QualcommCameraHardware7MemPool22completeInitializationEv>
    9e8a:	e007      	b.n	9e9c <_ZN7android22QualcommCameraHardware8PmemPoolC2EPKciiiiiiS3_+0x280>
    9e8c:	491a      	ldr	r1, [pc, #104]	(9ef8 <_ZN7android22QualcommCameraHardware8PmemPoolC2EPKciiiiiiS3_+0x2dc>)
    9e8e:	2006      	movs	r0, #6
    9e90:	4a1a      	ldr	r2, [pc, #104]	(9efc <_ZN7android22QualcommCameraHardware8PmemPoolC2EPKciiiiiiS3_+0x2e0>)
    9e92:	4633      	mov	r3, r6
    9e94:	4479      	add	r1, pc
    9e96:	447a      	add	r2, pc
    9e98:	f7fd ec9a 	blx	77d0 <_ZN7android22QualcommCameraHardware18filterPictureSizesEv-0x51c>
    9e9c:	a80c      	add	r0, sp, #48
    9e9e:	f7fe f9cf 	bl	8240 <_ZN7android2spINS_14MemoryHeapPmemEED1Ev>
    9ea2:	a80d      	add	r0, sp, #52
    9ea4:	f7fe f956 	bl	8154 <_ZN7android2spINS_14MemoryHeapBaseEED1Ev>
    9ea8:	4620      	mov	r0, r4
    9eaa:	b00f      	add	sp, #60
    9eac:	e8bd 8ff0 	ldmia.w	sp!, {r4, r5, r6, r7, r8, r9, sl, fp, pc}
    9eb0:	7003      	strb	r3, [r0, #0]
    9eb2:	4004      	ands	r4, r0
    9eb4:	aaac      	add	r2, sp, #688
    9eb6:	0000      	lsls	r0, r0, #0
    9eb8:	fe94 ffff 	mrc2	15, 4, pc, cr4, cr15, {7}
    9ebc:	672d      	str	r5, [r5, #112]
    9ebe:	0000      	lsls	r0, r0, #0
    9ec0:	7048      	strb	r0, [r1, #1]
    9ec2:	0000      	lsls	r0, r0, #0
    9ec4:	65a6      	str	r6, [r4, #88]
    9ec6:	0000      	lsls	r0, r0, #0
    9ec8:	7075      	strb	r5, [r6, #1]
    9eca:	0000      	lsls	r0, r0, #0
    9ecc:	7056      	strb	r6, [r2, #1]
    9ece:	0000      	lsls	r0, r0, #0
    9ed0:	6621      	str	r1, [r4, #96]
    9ed2:	0000      	lsls	r0, r0, #0
    9ed4:	6fe7      	ldr	r7, [r4, #124]
    9ed6:	0000      	lsls	r0, r0, #0
    9ed8:	65ff      	str	r7, [r7, #92]
    9eda:	0000      	lsls	r0, r0, #0
    9edc:	6ff5      	ldr	r5, [r6, #124]
    9ede:	0000      	lsls	r0, r0, #0
    9ee0:	7011      	strb	r1, [r2, #0]
    9ee2:	0000      	lsls	r0, r0, #0
    9ee4:	6bff      	ldr	r7, [r7, #60]
    9ee6:	0000      	lsls	r0, r0, #0
    9ee8:	6bf4      	ldr	r4, [r6, #60]
    9eea:	0000      	lsls	r0, r0, #0
    9eec:	7015      	strb	r5, [r2, #0]
    9eee:	0000      	lsls	r0, r0, #0
    9ef0:	65b5      	str	r5, [r6, #88]
    9ef2:	0000      	lsls	r0, r0, #0
    9ef4:	7006      	strb	r6, [r0, #0]
    9ef6:	0000      	lsls	r0, r0, #0
    9ef8:	64fb      	str	r3, [r7, #76]
    9efa:	0000      	lsls	r0, r0, #0
    9efc:	6f8b      	ldr	r3, [r1, #120]
	...

00009f00 <_ZN7android22QualcommCameraHardware10AshmemPoolC1EiiiPKc>:
    9f00:	e92d 41ff 	stmdb	sp!, {r0, r1, r2, r3, r4, r5, r6, r7, r8, lr}
    9f04:	4604      	mov	r4, r0
    9f06:	980a      	ldr	r0, [sp, #40]
    9f08:	460f      	mov	r7, r1
    9f0a:	4d1c      	ldr	r5, [pc, #112]	(9f7c <_ZN7android22QualcommCameraHardware10AshmemPoolC1EiiiPKc+0x7c>)
    9f0c:	4616      	mov	r6, r2
    9f0e:	4698      	mov	r8, r3
    9f10:	9000      	str	r0, [sp, #0]
    9f12:	4620      	mov	r0, r4
    9f14:	f7ff fc5a 	bl	97cc <_ZN7android22QualcommCameraHardware7MemPoolC2EiiiPKc>
    9f18:	f8df c064 	ldr.w	ip, [pc, #100]	; 9f80 <_ZN7android22QualcommCameraHardware10AshmemPoolC1EiiiPKc+0x80>
    9f1c:	447d      	add	r5, pc
    9f1e:	4919      	ldr	r1, [pc, #100]	(9f84 <_ZN7android22QualcommCameraHardware10AshmemPoolC1EiiiPKc+0x84>)
    9f20:	2002      	movs	r0, #2
    9f22:	9600      	str	r6, [sp, #0]
    9f24:	f855 300c 	ldr.w	r3, [r5, ip]
    9f28:	4479      	add	r1, pc
    9f2a:	f8cd 8004 	str.w	r8, [sp, #4]
    9f2e:	f113 0208 	adds.w	r2, r3, #8	; 0x8
    9f32:	6022      	str	r2, [r4, #0]
    9f34:	4a14      	ldr	r2, [pc, #80]	(9f88 <_ZN7android22QualcommCameraHardware10AshmemPoolC1EiiiPKc+0x88>)
    9f36:	6a23      	ldr	r3, [r4, #32]
    9f38:	447a      	add	r2, pc
    9f3a:	9702      	str	r7, [sp, #8]
    9f3c:	f7fd ec48 	blx	77d0 <_ZN7android22QualcommCameraHardware18filterPictureSizesEv-0x51c>
    9f40:	4912      	ldr	r1, [pc, #72]	(9f8c <_ZN7android22QualcommCameraHardware10AshmemPoolC1EiiiPKc+0x8c>)
    9f42:	5868      	ldr	r0, [r5, r1]
    9f44:	6803      	ldr	r3, [r0, #0]
    9f46:	2034      	movs	r0, #52
    9f48:	f103 38ff 	add.w	r8, r3, #4294967295	; 0xffffffff
    9f4c:	f7fd ecac 	blx	78a8 <_ZN7android22QualcommCameraHardware18filterPictureSizesEv-0x444>
    9f50:	2200      	movs	r2, #0
    9f52:	fb07 8606 	mla	r6, r7, r6, r8
    9f56:	4613      	mov	r3, r2
    9f58:	ea26 0108 	bic.w	r1, r6, r8
    9f5c:	4605      	mov	r5, r0
    9f5e:	f7fd ecc8 	blx	78f0 <_ZN7android22QualcommCameraHardware18filterPictureSizesEv-0x3fc>
    9f62:	4629      	mov	r1, r5
    9f64:	f104 0018 	add.w	r0, r4, #24	; 0x18
    9f68:	f7fe f978 	bl	825c <_ZN7android2spINS_14MemoryHeapBaseEEaSEPS1_>
    9f6c:	4620      	mov	r0, r4
    9f6e:	f7ff fbbb 	bl	96e8 <_ZN7android22QualcommCameraHardware7MemPool22completeInitializationEv>
    9f72:	4620      	mov	r0, r4
    9f74:	b004      	add	sp, #16
    9f76:	e8bd 81f0 	ldmia.w	sp!, {r4, r5, r6, r7, r8, pc}
    9f7a:	bf00      	nop
    9f7c:	a7d8      	add	r7, pc, #864	(adr r7, a2e0 <_ZN7android22QualcommCameraHardware14setGpsLocationERKNS_16CameraParametersE+0x24>)
    9f7e:	0000      	lsls	r0, r0, #0
    9f80:	fe88 ffff 	mcr2	15, 4, pc, cr8, cr15, {7}
    9f84:	6467      	str	r7, [r4, #68]
    9f86:	0000      	lsls	r0, r0, #0
    9f88:	704c      	strb	r4, [r1, #1]
    9f8a:	0000      	lsls	r0, r0, #0
    9f8c:	fe98 ffff 	mrc2	15, 4, pc, cr8, cr15, {7}

00009f90 <_ZN7android22QualcommCameraHardware18receiveRawSnapshotEv>:
    9f90:	e92d 41ff 	stmdb	sp!, {r0, r1, r2, r3, r4, r5, r6, r7, r8, lr}
    9f94:	4d4c      	ldr	r5, [pc, #304]	(a0c8 <_ZN7android22QualcommCameraHardware18receiveRawSnapshotEv+0x138>)
    9f96:	4a4d      	ldr	r2, [pc, #308]	(a0cc <_ZN7android22QualcommCameraHardware18receiveRawSnapshotEv+0x13c>)
    9f98:	4604      	mov	r4, r0
    9f9a:	447d      	add	r5, pc
    9f9c:	2002      	movs	r0, #2
    9f9e:	447a      	add	r2, pc
    9fa0:	4629      	mov	r1, r5
    9fa2:	f7fd ec16 	blx	77d0 <_ZN7android22QualcommCameraHardware18filterPictureSizesEv-0x51c>
    9fa6:	f104 00ac 	add.w	r0, r4, #172	; 0xac
    9faa:	f7fe fb07 	bl	85bc <_ZN7android22QualcommCameraHardware26receiveJpegPictureFragmentEPhj+0x114>
    9fae:	f8d4 31f0 	ldr.w	r3, [r4, #496]
    9fb2:	2b00      	cmp	r3, #0
    9fb4:	d077      	beq.n	a0a6 <_ZN7android22QualcommCameraHardware18receiveRawSnapshotEv+0x116>
    9fb6:	f8d4 11e8 	ldr.w	r1, [r4, #488]
    9fba:	05c8      	lsls	r0, r1, #23
    9fbc:	d573      	bpl.n	a0a6 <_ZN7android22QualcommCameraHardware18receiveRawSnapshotEv+0x116>
    9fbe:	f504 769e 	add.w	r6, r4, #316	; 0x13c
    9fc2:	f8d4 00dc 	ldr.w	r0, [r4, #220]
    9fc6:	4631      	mov	r1, r6
    9fc8:	f7ff f8ec 	bl	91a4 <_ZN7android22QualcommCameraHardware8PmemPoolD2Ev+0x120>
    9fcc:	b920      	cbnz	r0, 9fd8 <_ZN7android22QualcommCameraHardware18receiveRawSnapshotEv+0x48>
    9fce:	4a40      	ldr	r2, [pc, #256]	(a0d0 <_ZN7android22QualcommCameraHardware18receiveRawSnapshotEv+0x140>)
    9fd0:	3006      	adds	r0, #6
    9fd2:	4629      	mov	r1, r5
    9fd4:	447a      	add	r2, pc
    9fd6:	e06e      	b.n	a0b6 <_ZN7android22QualcommCameraHardware18receiveRawSnapshotEv+0x126>
    9fd8:	4620      	mov	r0, r4
    9fda:	4631      	mov	r1, r6
    9fdc:	f7fe fb66 	bl	86ac <_ZN7android22QualcommCameraHardware13notifyShutterEP13common_crop_t>
    9fe0:	6ce0      	ldr	r0, [r4, #76]
    9fe2:	b148      	cbz	r0, 9ff8 <_ZN7android22QualcommCameraHardware18receiveRawSnapshotEv+0x68>
    9fe4:	4a3b      	ldr	r2, [pc, #236]	(a0d4 <_ZN7android22QualcommCameraHardware18receiveRawSnapshotEv+0x144>)
    9fe6:	2002      	movs	r0, #2
    9fe8:	4629      	mov	r1, r5
    9fea:	447a      	add	r2, pc
    9fec:	f7fd ebf0 	blx	77d0 <_ZN7android22QualcommCameraHardware18filterPictureSizesEv-0x51c>
    9ff0:	f104 004c 	add.w	r0, r4, #76	; 0x4c
    9ff4:	f7fe f970 	bl	82d8 <_ZN7android2spINS_22QualcommCameraHardware10AshmemPoolEE5clearEv>
    9ff8:	6ca5      	ldr	r5, [r4, #72]
    9ffa:	2024      	movs	r0, #36
    9ffc:	f8d5 8008 	ldr.w	r8, [r5, #8]
    a000:	692f      	ldr	r7, [r5, #16]
    a002:	696e      	ldr	r6, [r5, #20]
    a004:	f7fd ec50 	blx	78a8 <_ZN7android22QualcommCameraHardware18filterPictureSizesEv-0x444>
    a008:	4a33      	ldr	r2, [pc, #204]	(a0d8 <_ZN7android22QualcommCameraHardware18receiveRawSnapshotEv+0x148>)
    a00a:	4641      	mov	r1, r8
    a00c:	4633      	mov	r3, r6
    a00e:	447a      	add	r2, pc
    a010:	9200      	str	r2, [sp, #0]
    a012:	463a      	mov	r2, r7
    a014:	4605      	mov	r5, r0
    a016:	f7ff ff73 	bl	9f00 <_ZN7android22QualcommCameraHardware10AshmemPoolC1EiiiPKc>
    a01a:	f104 004c 	add.w	r0, r4, #76	; 0x4c
    a01e:	4629      	mov	r1, r5
    a020:	f7fe f964 	bl	82ec <_ZN7android2spINS_22QualcommCameraHardware10AshmemPoolEEaSEPS2_>
    a024:	6ce0      	ldr	r0, [r4, #76]
    a026:	f7fd fe53 	bl	7cd0 <_ZN7android22QualcommCameraHardware18filterPictureSizesEv-0x1c>
    a02a:	b950      	cbnz	r0, a042 <_ZN7android22QualcommCameraHardware18receiveRawSnapshotEv+0xb2>
    a02c:	492b      	ldr	r1, [pc, #172]	(a0dc <_ZN7android22QualcommCameraHardware18receiveRawSnapshotEv+0x14c>)
    a02e:	3006      	adds	r0, #6
    a030:	4a2b      	ldr	r2, [pc, #172]	(a0e0 <_ZN7android22QualcommCameraHardware18receiveRawSnapshotEv+0x150>)
    a032:	4479      	add	r1, pc
    a034:	447a      	add	r2, pc
    a036:	f7fd ebcc 	blx	77d0 <_ZN7android22QualcommCameraHardware18filterPictureSizesEv-0x51c>
    a03a:	4620      	mov	r0, r4
    a03c:	f7fe f9b8 	bl	83b0 <_ZN7android22QualcommCameraHardware17deinitRawSnapshotEv>
    a040:	e03b      	b.n	a0ba <_ZN7android22QualcommCameraHardware18receiveRawSnapshotEv+0x12a>
    a042:	6ce0      	ldr	r0, [r4, #76]
    a044:	6985      	ldr	r5, [r0, #24]
    a046:	682a      	ldr	r2, [r5, #0]
    a048:	f852 6c0c 	ldr.w	r6, [r2, #-12]
    a04c:	19a8      	adds	r0, r5, r6
    a04e:	f7fd fe33 	bl	7cb8 <_ZN7android22QualcommCameraHardware18filterPictureSizesEv-0x34>
    a052:	6ca3      	ldr	r3, [r4, #72]
    a054:	699d      	ldr	r5, [r3, #24]
    a056:	6829      	ldr	r1, [r5, #0]
    a058:	4606      	mov	r6, r0
    a05a:	f851 0c0c 	ldr.w	r0, [r1, #-12]
    a05e:	1828      	adds	r0, r5, r0
    a060:	f7fd fe2a 	bl	7cb8 <_ZN7android22QualcommCameraHardware18filterPictureSizesEv-0x34>
    a064:	6ca2      	ldr	r2, [r4, #72]
    a066:	4605      	mov	r5, r0
    a068:	6990      	ldr	r0, [r2, #24]
    a06a:	6801      	ldr	r1, [r0, #0]
    a06c:	690b      	ldr	r3, [r1, #16]
    a06e:	4798      	blx	r3
    a070:	4629      	mov	r1, r5
    a072:	4602      	mov	r2, r0
    a074:	4630      	mov	r0, r6
    a076:	f7fd ebbe 	blx	77f4 <_ZN7android22QualcommCameraHardware18filterPictureSizesEv-0x4f8>
    a07a:	f8d4 61f0 	ldr.w	r6, [r4, #496]
    a07e:	b196      	cbz	r6, a0a6 <_ZN7android22QualcommCameraHardware18receiveRawSnapshotEv+0x116>
    a080:	f8d4 31e8 	ldr.w	r3, [r4, #488]
    a084:	05d9      	lsls	r1, r3, #23
    a086:	d50e      	bpl.n	a0a6 <_ZN7android22QualcommCameraHardware18receiveRawSnapshotEv+0x116>
    a088:	6ce2      	ldr	r2, [r4, #76]
    a08a:	ad03      	add	r5, sp, #12
    a08c:	4628      	mov	r0, r5
    a08e:	69d1      	ldr	r1, [r2, #28]
    a090:	f7fe f814 	bl	80bc <_ZN7android2spINS_7IMemoryEEC1INS_10MemoryBaseEEERKNS0_IT_EE>
    a094:	f44f 7080 	mov.w	r0, #256	; 0x100
    a098:	4629      	mov	r1, r5
    a09a:	f8d4 21f8 	ldr.w	r2, [r4, #504]
    a09e:	47b0      	blx	r6
    a0a0:	4628      	mov	r0, r5
    a0a2:	f7fe f90b 	bl	82bc <_ZN7android2spINS_7IMemoryEED1Ev>
    a0a6:	4620      	mov	r0, r4
    a0a8:	f7fe f982 	bl	83b0 <_ZN7android22QualcommCameraHardware17deinitRawSnapshotEv>
    a0ac:	490d      	ldr	r1, [pc, #52]	(a0e4 <_ZN7android22QualcommCameraHardware18receiveRawSnapshotEv+0x154>)
    a0ae:	4a0e      	ldr	r2, [pc, #56]	(a0e8 <_ZN7android22QualcommCameraHardware18receiveRawSnapshotEv+0x158>)
    a0b0:	2002      	movs	r0, #2
    a0b2:	4479      	add	r1, pc
    a0b4:	447a      	add	r2, pc
    a0b6:	f7fd eb8c 	blx	77d0 <_ZN7android22QualcommCameraHardware18filterPictureSizesEv-0x51c>
    a0ba:	f104 00ac 	add.w	r0, r4, #172	; 0xac
    a0be:	f7fd eba6 	blx	780c <_ZN7android22QualcommCameraHardware18filterPictureSizesEv-0x4e0>
    a0c2:	e8bd 81ff 	ldmia.w	sp!, {r0, r1, r2, r3, r4, r5, r6, r7, r8, pc}
    a0c6:	bf00      	nop
    a0c8:	63f5      	str	r5, [r6, #60]
    a0ca:	0000      	lsls	r0, r0, #0
    a0cc:	7038      	strb	r0, [r7, #0]
    a0ce:	0000      	lsls	r0, r0, #0
    a0d0:	7017      	strb	r7, [r2, #0]
    a0d2:	0000      	lsls	r0, r0, #0
    a0d4:	7032      	strb	r2, [r6, #0]
    a0d6:	0000      	lsls	r0, r0, #0
    a0d8:	7047      	strb	r7, [r0, #1]
    a0da:	0000      	lsls	r0, r0, #0
    a0dc:	635d      	str	r5, [r3, #52]
    a0de:	0000      	lsls	r0, r0, #0
    a0e0:	703c      	strb	r4, [r7, #0]
    a0e2:	0000      	lsls	r0, r0, #0
    a0e4:	62dd      	str	r5, [r3, #44]
    a0e6:	0000      	lsls	r0, r0, #0
    a0e8:	6ff6      	ldr	r6, [r6, #124]
	...

0000a0ec <_ZN7android22QualcommCameraHardware10AshmemPoolC2EiiiPKc>:
    a0ec:	e92d 41ff 	stmdb	sp!, {r0, r1, r2, r3, r4, r5, r6, r7, r8, lr}
    a0f0:	4604      	mov	r4, r0
    a0f2:	980a      	ldr	r0, [sp, #40]
    a0f4:	460f      	mov	r7, r1
    a0f6:	4d1c      	ldr	r5, [pc, #112]	(a168 <_ZN7android22QualcommCameraHardware10AshmemPoolC2EiiiPKc+0x7c>)
    a0f8:	4616      	mov	r6, r2
    a0fa:	4698      	mov	r8, r3
    a0fc:	9000      	str	r0, [sp, #0]
    a0fe:	4620      	mov	r0, r4
    a100:	f7ff fb64 	bl	97cc <_ZN7android22QualcommCameraHardware7MemPoolC2EiiiPKc>
    a104:	f8df c064 	ldr.w	ip, [pc, #100]	; a16c <_ZN7android22QualcommCameraHardware10AshmemPoolC2EiiiPKc+0x80>
    a108:	447d      	add	r5, pc
    a10a:	4919      	ldr	r1, [pc, #100]	(a170 <_ZN7android22QualcommCameraHardware10AshmemPoolC2EiiiPKc+0x84>)
    a10c:	2002      	movs	r0, #2
    a10e:	9600      	str	r6, [sp, #0]
    a110:	f855 300c 	ldr.w	r3, [r5, ip]
    a114:	4479      	add	r1, pc
    a116:	f8cd 8004 	str.w	r8, [sp, #4]
    a11a:	f113 0208 	adds.w	r2, r3, #8	; 0x8
    a11e:	6022      	str	r2, [r4, #0]
    a120:	4a14      	ldr	r2, [pc, #80]	(a174 <_ZN7android22QualcommCameraHardware10AshmemPoolC2EiiiPKc+0x88>)
    a122:	6a23      	ldr	r3, [r4, #32]
    a124:	447a      	add	r2, pc
    a126:	9702      	str	r7, [sp, #8]
    a128:	f7fd eb52 	blx	77d0 <_ZN7android22QualcommCameraHardware18filterPictureSizesEv-0x51c>
    a12c:	4912      	ldr	r1, [pc, #72]	(a178 <_ZN7android22QualcommCameraHardware10AshmemPoolC2EiiiPKc+0x8c>)
    a12e:	5868      	ldr	r0, [r5, r1]
    a130:	6803      	ldr	r3, [r0, #0]
    a132:	2034      	movs	r0, #52
    a134:	f103 38ff 	add.w	r8, r3, #4294967295	; 0xffffffff
    a138:	f7fd ebb6 	blx	78a8 <_ZN7android22QualcommCameraHardware18filterPictureSizesEv-0x444>
    a13c:	2200      	movs	r2, #0
    a13e:	fb07 8606 	mla	r6, r7, r6, r8
    a142:	4613      	mov	r3, r2
    a144:	ea26 0108 	bic.w	r1, r6, r8
    a148:	4605      	mov	r5, r0
    a14a:	f7fd ebd2 	blx	78f0 <_ZN7android22QualcommCameraHardware18filterPictureSizesEv-0x3fc>
    a14e:	4629      	mov	r1, r5
    a150:	f104 0018 	add.w	r0, r4, #24	; 0x18
    a154:	f7fe f882 	bl	825c <_ZN7android2spINS_14MemoryHeapBaseEEaSEPS1_>
    a158:	4620      	mov	r0, r4
    a15a:	f7ff fac5 	bl	96e8 <_ZN7android22QualcommCameraHardware7MemPool22completeInitializationEv>
    a15e:	4620      	mov	r0, r4
    a160:	b004      	add	sp, #16
    a162:	e8bd 81f0 	ldmia.w	sp!, {r4, r5, r6, r7, r8, pc}
    a166:	bf00      	nop
    a168:	a5ec      	add	r5, pc, #944	(adr r5, a51c <_ZN7android22QualcommCameraHardware17setLensshadeValueERKNS_16CameraParametersE+0x80>)
    a16a:	0000      	lsls	r0, r0, #0
    a16c:	fe88 ffff 	mcr2	15, 4, pc, cr8, cr15, {7}
    a170:	627b      	str	r3, [r7, #36]
    a172:	0000      	lsls	r0, r0, #0
    a174:	6e60      	ldr	r0, [r4, #100]
    a176:	0000      	lsls	r0, r0, #0
    a178:	fe98 ffff 	mrc2	15, 4, pc, cr8, cr15, {7}

0000a17c <_ZN7android22QualcommCameraHardware16setPictureFormatERKNS_16CameraParametersE>:
    a17c:	4b13      	ldr	r3, [pc, #76]	(a1cc <_ZN7android22QualcommCameraHardware16setPictureFormatERKNS_16CameraParametersE+0x50>)
    a17e:	4a14      	ldr	r2, [pc, #80]	(a1d0 <_ZN7android22QualcommCameraHardware16setPictureFormatERKNS_16CameraParametersE+0x54>)
    a180:	447b      	add	r3, pc
    a182:	b570      	push	{r4, r5, r6, lr}
    a184:	589d      	ldr	r5, [r3, r2]
    a186:	4606      	mov	r6, r0
    a188:	4608      	mov	r0, r1
    a18a:	4629      	mov	r1, r5
    a18c:	f7fd ebb6 	blx	78fc <_ZN7android22QualcommCameraHardware18filterPictureSizesEv-0x3f0>
    a190:	4604      	mov	r4, r0
    a192:	b1d4      	cbz	r4, a1ca <_ZN7android22QualcommCameraHardware16setPictureFormatERKNS_16CameraParametersE+0x4e>
    a194:	480f      	ldr	r0, [pc, #60]	(a1d4 <_ZN7android22QualcommCameraHardware16setPictureFormatERKNS_16CameraParametersE+0x58>)
    a196:	2102      	movs	r1, #2
    a198:	4622      	mov	r2, r4
    a19a:	4478      	add	r0, pc
    a19c:	f7fe fc72 	bl	8a84 <_ZN7android22QualcommCameraHardware7MemPoolD2Ev+0xd4>
    a1a0:	f1b0 3fff 	cmp.w	r0, #4294967295	; 0xffffffff
    a1a4:	d007      	beq.n	a1b6 <_ZN7android22QualcommCameraHardware16setPictureFormatERKNS_16CameraParametersE+0x3a>
    a1a6:	f106 0008 	add.w	r0, r6, #8	; 0x8
    a1aa:	4629      	mov	r1, r5
    a1ac:	4622      	mov	r2, r4
    a1ae:	f7fd ebac 	blx	7908 <_ZN7android22QualcommCameraHardware18filterPictureSizesEv-0x3e4>
    a1b2:	2000      	movs	r0, #0
    a1b4:	e009      	b.n	a1ca <_ZN7android22QualcommCameraHardware16setPictureFormatERKNS_16CameraParametersE+0x4e>
    a1b6:	4908      	ldr	r1, [pc, #32]	(a1d8 <_ZN7android22QualcommCameraHardware16setPictureFormatERKNS_16CameraParametersE+0x5c>)
    a1b8:	2006      	movs	r0, #6
    a1ba:	4a08      	ldr	r2, [pc, #32]	(a1dc <_ZN7android22QualcommCameraHardware16setPictureFormatERKNS_16CameraParametersE+0x60>)
    a1bc:	4623      	mov	r3, r4
    a1be:	4479      	add	r1, pc
    a1c0:	447a      	add	r2, pc
    a1c2:	f7fd eb06 	blx	77d0 <_ZN7android22QualcommCameraHardware18filterPictureSizesEv-0x51c>
    a1c6:	f06f 0015 	mvn.w	r0, #21	; 0x15
    a1ca:	bd70      	pop	{r4, r5, r6, pc}
    a1cc:	a574      	add	r5, pc, #464	(adr r5, a3a0 <_ZN7android22QualcommCameraHardware14setGpsLocationERKNS_16CameraParametersE+0xe4>)
    a1ce:	0000      	lsls	r0, r0, #0
    a1d0:	fe9c ffff 	mrc2	15, 4, pc, cr12, cr15, {7}
    a1d4:	9fe2      	ldr	r7, [sp, #904]
    a1d6:	0000      	lsls	r0, r0, #0
    a1d8:	61d1      	str	r1, [r2, #28]
    a1da:	0000      	lsls	r0, r0, #0
    a1dc:	6eff      	ldr	r7, [r7, #108]
	...

0000a1e0 <_ZN7android22QualcommCameraHardware14setOrientationERKNS_16CameraParametersE>:
    a1e0:	4b14      	ldr	r3, [pc, #80]	(a234 <_ZN7android22QualcommCameraHardware14setOrientationERKNS_16CameraParametersE+0x54>)
    a1e2:	b570      	push	{r4, r5, r6, lr}
    a1e4:	447b      	add	r3, pc
    a1e6:	4605      	mov	r5, r0
    a1e8:	4608      	mov	r0, r1
    a1ea:	4619      	mov	r1, r3
    a1ec:	f7fd eb86 	blx	78fc <_ZN7android22QualcommCameraHardware18filterPictureSizesEv-0x3f0>
    a1f0:	4604      	mov	r4, r0
    a1f2:	b1f4      	cbz	r4, a232 <_ZN7android22QualcommCameraHardware14setOrientationERKNS_16CameraParametersE+0x52>
    a1f4:	4910      	ldr	r1, [pc, #64]	(a238 <_ZN7android22QualcommCameraHardware14setOrientationERKNS_16CameraParametersE+0x58>)
    a1f6:	4620      	mov	r0, r4
    a1f8:	4479      	add	r1, pc
    a1fa:	f7fd eb32 	blx	7860 <_ZN7android22QualcommCameraHardware18filterPictureSizesEv-0x48c>
    a1fe:	b128      	cbz	r0, a20c <_ZN7android22QualcommCameraHardware14setOrientationERKNS_16CameraParametersE+0x2c>
    a200:	490e      	ldr	r1, [pc, #56]	(a23c <_ZN7android22QualcommCameraHardware14setOrientationERKNS_16CameraParametersE+0x5c>)
    a202:	4620      	mov	r0, r4
    a204:	4479      	add	r1, pc
    a206:	f7fd eb2c 	blx	7860 <_ZN7android22QualcommCameraHardware18filterPictureSizesEv-0x48c>
    a20a:	b940      	cbnz	r0, a21e <_ZN7android22QualcommCameraHardware14setOrientationERKNS_16CameraParametersE+0x3e>
    a20c:	490c      	ldr	r1, [pc, #48]	(a240 <_ZN7android22QualcommCameraHardware14setOrientationERKNS_16CameraParametersE+0x60>)
    a20e:	f105 0008 	add.w	r0, r5, #8	; 0x8
    a212:	4622      	mov	r2, r4
    a214:	4479      	add	r1, pc
    a216:	f7fd eb78 	blx	7908 <_ZN7android22QualcommCameraHardware18filterPictureSizesEv-0x3e4>
    a21a:	2000      	movs	r0, #0
    a21c:	e009      	b.n	a232 <_ZN7android22QualcommCameraHardware14setOrientationERKNS_16CameraParametersE+0x52>
    a21e:	4909      	ldr	r1, [pc, #36]	(a244 <_ZN7android22QualcommCameraHardware14setOrientationERKNS_16CameraParametersE+0x64>)
    a220:	2006      	movs	r0, #6
    a222:	4a09      	ldr	r2, [pc, #36]	(a248 <_ZN7android22QualcommCameraHardware14setOrientationERKNS_16CameraParametersE+0x68>)
    a224:	4623      	mov	r3, r4
    a226:	4479      	add	r1, pc
    a228:	447a      	add	r2, pc
    a22a:	f7fd ead2 	blx	77d0 <_ZN7android22QualcommCameraHardware18filterPictureSizesEv-0x51c>
    a22e:	f06f 0015 	mvn.w	r0, #21	; 0x15
    a232:	bd70      	pop	{r4, r5, r6, pc}
    a234:	6efc      	ldr	r4, [r7, #108]
    a236:	0000      	lsls	r0, r0, #0
    a238:	6ef4      	ldr	r4, [r6, #108]
    a23a:	0000      	lsls	r0, r0, #0
    a23c:	6ef1      	ldr	r1, [r6, #108]
    a23e:	0000      	lsls	r0, r0, #0
    a240:	6ecc      	ldr	r4, [r1, #108]
    a242:	0000      	lsls	r0, r0, #0
    a244:	6169      	str	r1, [r5, #20]
    a246:	0000      	lsls	r0, r0, #0
    a248:	6ed7      	ldr	r7, [r2, #108]
	...

0000a24c <_ZN7android22QualcommCameraHardware12setFocusModeERKNS_16CameraParametersE>:
    a24c:	4b15      	ldr	r3, [pc, #84]	(a2a4 <_ZN7android22QualcommCameraHardware12setFocusModeERKNS_16CameraParametersE+0x58>)
    a24e:	4a16      	ldr	r2, [pc, #88]	(a2a8 <_ZN7android22QualcommCameraHardware12setFocusModeERKNS_16CameraParametersE+0x5c>)
    a250:	447b      	add	r3, pc
    a252:	b570      	push	{r4, r5, r6, lr}
    a254:	589d      	ldr	r5, [r3, r2]
    a256:	4606      	mov	r6, r0
    a258:	4608      	mov	r0, r1
    a25a:	4629      	mov	r1, r5
    a25c:	f7fd eb4e 	blx	78fc <_ZN7android22QualcommCameraHardware18filterPictureSizesEv-0x3f0>
    a260:	4604      	mov	r4, r0
    a262:	b188      	cbz	r0, a288 <_ZN7android22QualcommCameraHardware12setFocusModeERKNS_16CameraParametersE+0x3c>
    a264:	4811      	ldr	r0, [pc, #68]	(a2ac <_ZN7android22QualcommCameraHardware12setFocusModeERKNS_16CameraParametersE+0x60>)
    a266:	2104      	movs	r1, #4
    a268:	4622      	mov	r2, r4
    a26a:	4478      	add	r0, pc
    a26c:	3010      	adds	r0, #16
    a26e:	f7fe fc09 	bl	8a84 <_ZN7android22QualcommCameraHardware7MemPoolD2Ev+0xd4>
    a272:	f1b0 3fff 	cmp.w	r0, #4294967295	; 0xffffffff
    a276:	d009      	beq.n	a28c <_ZN7android22QualcommCameraHardware12setFocusModeERKNS_16CameraParametersE+0x40>
    a278:	f106 0008 	add.w	r0, r6, #8	; 0x8
    a27c:	4629      	mov	r1, r5
    a27e:	4622      	mov	r2, r4
    a280:	f7fd eb42 	blx	7908 <_ZN7android22QualcommCameraHardware18filterPictureSizesEv-0x3e4>
    a284:	2000      	movs	r0, #0
    a286:	e00b      	b.n	a2a0 <_ZN7android22QualcommCameraHardware12setFocusModeERKNS_16CameraParametersE+0x54>
    a288:	4c09      	ldr	r4, [pc, #36]	(a2b0 <_ZN7android22QualcommCameraHardware12setFocusModeERKNS_16CameraParametersE+0x64>)
    a28a:	447c      	add	r4, pc
    a28c:	4909      	ldr	r1, [pc, #36]	(a2b4 <_ZN7android22QualcommCameraHardware12setFocusModeERKNS_16CameraParametersE+0x68>)
    a28e:	2006      	movs	r0, #6
    a290:	4a09      	ldr	r2, [pc, #36]	(a2b8 <_ZN7android22QualcommCameraHardware12setFocusModeERKNS_16CameraParametersE+0x6c>)
    a292:	4623      	mov	r3, r4
    a294:	4479      	add	r1, pc
    a296:	447a      	add	r2, pc
    a298:	f7fd ea9a 	blx	77d0 <_ZN7android22QualcommCameraHardware18filterPictureSizesEv-0x51c>
    a29c:	f06f 0015 	mvn.w	r0, #21	; 0x15
    a2a0:	bd70      	pop	{r4, r5, r6, pc}
    a2a2:	bf00      	nop
    a2a4:	a4a4      	add	r4, pc, #656	(adr r4, a538 <_ZN7android22QualcommCameraHardware17setLensshadeValueERKNS_16CameraParametersE+0x9c>)
    a2a6:	0000      	lsls	r0, r0, #0
    a2a8:	fea0 ffff 	mcr2	15, 5, pc, cr0, cr15, {7}
    a2ac:	9f12      	ldr	r7, [sp, #72]
    a2ae:	0000      	lsls	r0, r0, #0
    a2b0:	6e93      	ldr	r3, [r2, #104]
    a2b2:	0000      	lsls	r0, r0, #0
    a2b4:	60fb      	str	r3, [r7, #12]
    a2b6:	0000      	lsls	r0, r0, #0
    a2b8:	6e8c      	ldr	r4, [r1, #104]
	...

0000a2bc <_ZN7android22QualcommCameraHardware14setGpsLocationERKNS_16CameraParametersE>:
    a2bc:	e92d 41f0 	stmdb	sp!, {r4, r5, r6, r7, r8, lr}
    a2c0:	4c3f      	ldr	r4, [pc, #252]	(a3c0 <_ZN7android22QualcommCameraHardware14setGpsLocationERKNS_16CameraParametersE+0x104>)
    a2c2:	4b40      	ldr	r3, [pc, #256]	(a3c4 <_ZN7android22QualcommCameraHardware14setGpsLocationERKNS_16CameraParametersE+0x108>)
    a2c4:	4605      	mov	r5, r0
    a2c6:	447c      	add	r4, pc
    a2c8:	4608      	mov	r0, r1
    a2ca:	460e      	mov	r6, r1
    a2cc:	58e7      	ldr	r7, [r4, r3]
    a2ce:	4639      	mov	r1, r7
    a2d0:	f7fd eb14 	blx	78fc <_ZN7android22QualcommCameraHardware18filterPictureSizesEv-0x3f0>
    a2d4:	4602      	mov	r2, r0
    a2d6:	b120      	cbz	r0, a2e2 <_ZN7android22QualcommCameraHardware14setGpsLocationERKNS_16CameraParametersE+0x26>
    a2d8:	f105 0008 	add.w	r0, r5, #8	; 0x8
    a2dc:	4639      	mov	r1, r7
    a2de:	f7fd eb14 	blx	7908 <_ZN7android22QualcommCameraHardware18filterPictureSizesEv-0x3e4>
    a2e2:	4839      	ldr	r0, [pc, #228]	(a3c8 <_ZN7android22QualcommCameraHardware14setGpsLocationERKNS_16CameraParametersE+0x10c>)
    a2e4:	5827      	ldr	r7, [r4, r0]
    a2e6:	4630      	mov	r0, r6
    a2e8:	4639      	mov	r1, r7
    a2ea:	f7fd eb08 	blx	78fc <_ZN7android22QualcommCameraHardware18filterPictureSizesEv-0x3f0>
    a2ee:	4602      	mov	r2, r0
    a2f0:	b120      	cbz	r0, a2fc <_ZN7android22QualcommCameraHardware14setGpsLocationERKNS_16CameraParametersE+0x40>
    a2f2:	f105 0008 	add.w	r0, r5, #8	; 0x8
    a2f6:	4639      	mov	r1, r7
    a2f8:	f7fd eb06 	blx	7908 <_ZN7android22QualcommCameraHardware18filterPictureSizesEv-0x3e4>
    a2fc:	4933      	ldr	r1, [pc, #204]	(a3cc <_ZN7android22QualcommCameraHardware14setGpsLocationERKNS_16CameraParametersE+0x110>)
    a2fe:	4630      	mov	r0, r6
    a300:	5867      	ldr	r7, [r4, r1]
    a302:	4639      	mov	r1, r7
    a304:	f7fd eafa 	blx	78fc <_ZN7android22QualcommCameraHardware18filterPictureSizesEv-0x3f0>
    a308:	4602      	mov	r2, r0
    a30a:	b120      	cbz	r0, a316 <_ZN7android22QualcommCameraHardware14setGpsLocationERKNS_16CameraParametersE+0x5a>
    a30c:	f105 0008 	add.w	r0, r5, #8	; 0x8
    a310:	4639      	mov	r1, r7
    a312:	f7fd eafa 	blx	7908 <_ZN7android22QualcommCameraHardware18filterPictureSizesEv-0x3e4>
    a316:	4a2e      	ldr	r2, [pc, #184]	(a3d0 <_ZN7android22QualcommCameraHardware14setGpsLocationERKNS_16CameraParametersE+0x114>)
    a318:	4630      	mov	r0, r6
    a31a:	58a7      	ldr	r7, [r4, r2]
    a31c:	4639      	mov	r1, r7
    a31e:	f7fd eaee 	blx	78fc <_ZN7android22QualcommCameraHardware18filterPictureSizesEv-0x3f0>
    a322:	4602      	mov	r2, r0
    a324:	b120      	cbz	r0, a330 <_ZN7android22QualcommCameraHardware14setGpsLocationERKNS_16CameraParametersE+0x74>
    a326:	f105 0008 	add.w	r0, r5, #8	; 0x8
    a32a:	4639      	mov	r1, r7
    a32c:	f7fd eaec 	blx	7908 <_ZN7android22QualcommCameraHardware18filterPictureSizesEv-0x3e4>
    a330:	f8df c0a0 	ldr.w	ip, [pc, #160]	; a3d4 <_ZN7android22QualcommCameraHardware14setGpsLocationERKNS_16CameraParametersE+0x118>
    a334:	4630      	mov	r0, r6
    a336:	f854 700c 	ldr.w	r7, [r4, ip]
    a33a:	4639      	mov	r1, r7
    a33c:	f7fd eade 	blx	78fc <_ZN7android22QualcommCameraHardware18filterPictureSizesEv-0x3f0>
    a340:	4602      	mov	r2, r0
    a342:	b120      	cbz	r0, a34e <_ZN7android22QualcommCameraHardware14setGpsLocationERKNS_16CameraParametersE+0x92>
    a344:	f105 0008 	add.w	r0, r5, #8	; 0x8
    a348:	4639      	mov	r1, r7
    a34a:	f7fd eade 	blx	7908 <_ZN7android22QualcommCameraHardware18filterPictureSizesEv-0x3e4>
    a34e:	f8df e088 	ldr.w	lr, [pc, #136]	; a3d8 <_ZN7android22QualcommCameraHardware14setGpsLocationERKNS_16CameraParametersE+0x11c>
    a352:	4630      	mov	r0, r6
    a354:	f854 700e 	ldr.w	r7, [r4, lr]
    a358:	4639      	mov	r1, r7
    a35a:	f7fd ead0 	blx	78fc <_ZN7android22QualcommCameraHardware18filterPictureSizesEv-0x3f0>
    a35e:	4602      	mov	r2, r0
    a360:	b120      	cbz	r0, a36c <_ZN7android22QualcommCameraHardware14setGpsLocationERKNS_16CameraParametersE+0xb0>
    a362:	f105 0008 	add.w	r0, r5, #8	; 0x8
    a366:	4639      	mov	r1, r7
    a368:	f7fd eace 	blx	7908 <_ZN7android22QualcommCameraHardware18filterPictureSizesEv-0x3e4>
    a36c:	4b1b      	ldr	r3, [pc, #108]	(a3dc <_ZN7android22QualcommCameraHardware14setGpsLocationERKNS_16CameraParametersE+0x120>)
    a36e:	4630      	mov	r0, r6
    a370:	58e7      	ldr	r7, [r4, r3]
    a372:	4639      	mov	r1, r7
    a374:	f7fd eac2 	blx	78fc <_ZN7android22QualcommCameraHardware18filterPictureSizesEv-0x3f0>
    a378:	4602      	mov	r2, r0
    a37a:	b120      	cbz	r0, a386 <_ZN7android22QualcommCameraHardware14setGpsLocationERKNS_16CameraParametersE+0xca>
    a37c:	f105 0008 	add.w	r0, r5, #8	; 0x8
    a380:	4639      	mov	r1, r7
    a382:	f7fd eac2 	blx	7908 <_ZN7android22QualcommCameraHardware18filterPictureSizesEv-0x3e4>
    a386:	4816      	ldr	r0, [pc, #88]	(a3e0 <_ZN7android22QualcommCameraHardware14setGpsLocationERKNS_16CameraParametersE+0x124>)
    a388:	5827      	ldr	r7, [r4, r0]
    a38a:	4630      	mov	r0, r6
    a38c:	4639      	mov	r1, r7
    a38e:	f7fd eab6 	blx	78fc <_ZN7android22QualcommCameraHardware18filterPictureSizesEv-0x3f0>
    a392:	4602      	mov	r2, r0
    a394:	b120      	cbz	r0, a3a0 <_ZN7android22QualcommCameraHardware14setGpsLocationERKNS_16CameraParametersE+0xe4>
    a396:	f105 0008 	add.w	r0, r5, #8	; 0x8
    a39a:	4639      	mov	r1, r7
    a39c:	f7fd eab4 	blx	7908 <_ZN7android22QualcommCameraHardware18filterPictureSizesEv-0x3e4>
    a3a0:	4910      	ldr	r1, [pc, #64]	(a3e4 <_ZN7android22QualcommCameraHardware14setGpsLocationERKNS_16CameraParametersE+0x128>)
    a3a2:	4630      	mov	r0, r6
    a3a4:	5864      	ldr	r4, [r4, r1]
    a3a6:	4621      	mov	r1, r4
    a3a8:	f7fd eaa8 	blx	78fc <_ZN7android22QualcommCameraHardware18filterPictureSizesEv-0x3f0>
    a3ac:	4602      	mov	r2, r0
    a3ae:	b120      	cbz	r0, a3ba <_ZN7android22QualcommCameraHardware14setGpsLocationERKNS_16CameraParametersE+0xfe>
    a3b0:	f105 0008 	add.w	r0, r5, #8	; 0x8
    a3b4:	4621      	mov	r1, r4
    a3b6:	f7fd eaa8 	blx	7908 <_ZN7android22QualcommCameraHardware18filterPictureSizesEv-0x3e4>
    a3ba:	2000      	movs	r0, #0
    a3bc:	e8bd 81f0 	ldmia.w	sp!, {r4, r5, r6, r7, r8, pc}
    a3c0:	a42e      	add	r4, pc, #184	(adr r4, a47c <_ZN7android22QualcommCameraHardware11setISOValueERKNS_16CameraParametersE+0x94>)
    a3c2:	0000      	lsls	r0, r0, #0
    a3c4:	fea4 ffff 	mcr2	15, 5, pc, cr4, cr15, {7}
    a3c8:	fea8 ffff 	mcr2	15, 5, pc, cr8, cr15, {7}
    a3cc:	feac ffff 	mcr2	15, 5, pc, cr12, cr15, {7}
    a3d0:	feb0 ffff 	mrc2	15, 5, pc, cr0, cr15, {7}
    a3d4:	feb4 ffff 	mrc2	15, 5, pc, cr4, cr15, {7}
    a3d8:	feb8 ffff 	mrc2	15, 5, pc, cr8, cr15, {7}
    a3dc:	febc ffff 	mrc2	15, 5, pc, cr12, cr15, {7}
    a3e0:	fec0 ffff 	mcr2	15, 6, pc, cr0, cr15, {7}
    a3e4:	fec4 ffff 	mcr2	15, 6, pc, cr4, cr15, {7}

0000a3e8 <_ZN7android22QualcommCameraHardware11setISOValueERKNS_16CameraParametersE>:
    a3e8:	b5f7      	push	{r0, r1, r2, r4, r5, r6, r7, lr}
    a3ea:	4f26      	ldr	r7, [pc, #152]	(a484 <_ZN7android22QualcommCameraHardware11setISOValueERKNS_16CameraParametersE+0x9c>)
    a3ec:	4605      	mov	r5, r0
    a3ee:	4826      	ldr	r0, [pc, #152]	(a488 <_ZN7android22QualcommCameraHardware11setISOValueERKNS_16CameraParametersE+0xa0>)
    a3f0:	447f      	add	r7, pc
    a3f2:	583b      	ldr	r3, [r7, r0]
    a3f4:	4608      	mov	r0, r1
    a3f6:	4619      	mov	r1, r3
    a3f8:	f7fd ea80 	blx	78fc <_ZN7android22QualcommCameraHardware18filterPictureSizesEv-0x3f0>
    a3fc:	4604      	mov	r4, r0
    a3fe:	2800      	cmp	r0, #0
    a400:	d032      	beq.n	a468 <_ZN7android22QualcommCameraHardware11setISOValueERKNS_16CameraParametersE+0x80>
    a402:	4922      	ldr	r1, [pc, #136]	(a48c <_ZN7android22QualcommCameraHardware11setISOValueERKNS_16CameraParametersE+0xa4>)
    a404:	4622      	mov	r2, r4
    a406:	4479      	add	r1, pc
    a408:	f111 0030 	adds.w	r0, r1, #48	; 0x30
    a40c:	2106      	movs	r1, #6
    a40e:	f7fe fb39 	bl	8a84 <_ZN7android22QualcommCameraHardware7MemPoolD2Ev+0xd4>
    a412:	f1b0 3fff 	cmp.w	r0, #4294967295	; 0xffffffff
    a416:	4606      	mov	r6, r0
    a418:	d028      	beq.n	a46c <_ZN7android22QualcommCameraHardware11setISOValueERKNS_16CameraParametersE+0x84>
    a41a:	2801      	cmp	r0, #1
    a41c:	9000      	str	r0, [sp, #0]
    a41e:	d106      	bne.n	a42e <_ZN7android22QualcommCameraHardware11setISOValueERKNS_16CameraParametersE+0x46>
    a420:	ab02      	add	r3, sp, #8
    a422:	2124      	movs	r1, #36
    a424:	4632      	mov	r2, r6
    a426:	f803 0d01 	strb.w	r0, [r3, #-1]!
    a42a:	4628      	mov	r0, r5
    a42c:	e009      	b.n	a442 <_ZN7android22QualcommCameraHardware11setISOValueERKNS_16CameraParametersE+0x5a>
    a42e:	f8d5 2168 	ldr.w	r2, [r5, #360]
    a432:	2a01      	cmp	r2, #1
    a434:	d109      	bne.n	a44a <_ZN7android22QualcommCameraHardware11setISOValueERKNS_16CameraParametersE+0x62>
    a436:	ab02      	add	r3, sp, #8
    a438:	2100      	movs	r1, #0
    a43a:	4628      	mov	r0, r5
    a43c:	f803 1d01 	strb.w	r1, [r3, #-1]!
    a440:	3124      	adds	r1, #36
    a442:	f7ff f8b9 	bl	95b8 <_ZN7android22QualcommCameraHardware15native_set_parmEhtPv>
    a446:	f8c5 6168 	str.w	r6, [r5, #360]
    a44a:	4a0f      	ldr	r2, [pc, #60]	(a488 <_ZN7android22QualcommCameraHardware11setISOValueERKNS_16CameraParametersE+0xa0>)
    a44c:	f105 0008 	add.w	r0, r5, #8	; 0x8
    a450:	58b9      	ldr	r1, [r7, r2]
    a452:	4622      	mov	r2, r4
    a454:	f7fd ea58 	blx	7908 <_ZN7android22QualcommCameraHardware18filterPictureSizesEv-0x3e4>
    a458:	4628      	mov	r0, r5
    a45a:	211a      	movs	r1, #26
    a45c:	2204      	movs	r2, #4
    a45e:	466b      	mov	r3, sp
    a460:	f7ff f8aa 	bl	95b8 <_ZN7android22QualcommCameraHardware15native_set_parmEhtPv>
    a464:	2000      	movs	r0, #0
    a466:	e00b      	b.n	a480 <_ZN7android22QualcommCameraHardware11setISOValueERKNS_16CameraParametersE+0x98>
    a468:	4c09      	ldr	r4, [pc, #36]	(a490 <_ZN7android22QualcommCameraHardware11setISOValueERKNS_16CameraParametersE+0xa8>)
    a46a:	447c      	add	r4, pc
    a46c:	4909      	ldr	r1, [pc, #36]	(a494 <_ZN7android22QualcommCameraHardware11setISOValueERKNS_16CameraParametersE+0xac>)
    a46e:	2006      	movs	r0, #6
    a470:	4a09      	ldr	r2, [pc, #36]	(a498 <_ZN7android22QualcommCameraHardware11setISOValueERKNS_16CameraParametersE+0xb0>)
    a472:	4623      	mov	r3, r4
    a474:	4479      	add	r1, pc
    a476:	447a      	add	r2, pc
    a478:	f7fd e9aa 	blx	77d0 <_ZN7android22QualcommCameraHardware18filterPictureSizesEv-0x51c>
    a47c:	f06f 0015 	mvn.w	r0, #21	; 0x15
    a480:	bdfe      	pop	{r1, r2, r3, r4, r5, r6, r7, pc}
    a482:	bf00      	nop
    a484:	a304      	add	r3, pc, #16	(adr r3, a498 <_ZN7android22QualcommCameraHardware11setISOValueERKNS_16CameraParametersE+0xb0>)
    a486:	0000      	lsls	r0, r0, #0
    a488:	fec8 ffff 	mcr2	15, 6, pc, cr8, cr15, {7}
    a48c:	9d76      	ldr	r5, [sp, #472]
    a48e:	0000      	lsls	r0, r0, #0
    a490:	6cb3      	ldr	r3, [r6, #72]
    a492:	0000      	lsls	r0, r0, #0
    a494:	5f1b      	ldrsh	r3, [r3, r4]
    a496:	0000      	lsls	r0, r0, #0
    a498:	6cc9      	ldr	r1, [r1, #76]
	...

0000a49c <_ZN7android22QualcommCameraHardware17setLensshadeValueERKNS_16CameraParametersE>:
    a49c:	4b2e      	ldr	r3, [pc, #184]	(a558 <_ZN7android22QualcommCameraHardware17setLensshadeValueERKNS_16CameraParametersE+0xbc>)
    a49e:	e92d 41f3 	stmdb	sp!, {r0, r1, r4, r5, r6, r7, r8, lr}
    a4a2:	4688      	mov	r8, r1
    a4a4:	447b      	add	r3, pc
    a4a6:	681b      	ldr	r3, [r3, #0]
    a4a8:	492c      	ldr	r1, [pc, #176]	(a55c <_ZN7android22QualcommCameraHardware17setLensshadeValueERKNS_16CameraParametersE+0xc0>)
    a4aa:	4c2d      	ldr	r4, [pc, #180]	(a560 <_ZN7android22QualcommCameraHardware17setLensshadeValueERKNS_16CameraParametersE+0xc4>)
    a4ac:	4606      	mov	r6, r0
    a4ae:	4479      	add	r1, pc
    a4b0:	6818      	ldr	r0, [r3, #0]
    a4b2:	447c      	add	r4, pc
    a4b4:	f7fd e9d4 	blx	7860 <_ZN7android22QualcommCameraHardware18filterPictureSizesEv-0x48c>
    a4b8:	b198      	cbz	r0, a4e2 <_ZN7android22QualcommCameraHardware17setLensshadeValueERKNS_16CameraParametersE+0x46>
    a4ba:	492a      	ldr	r1, [pc, #168]	(a564 <_ZN7android22QualcommCameraHardware17setLensshadeValueERKNS_16CameraParametersE+0xc8>)
    a4bc:	f106 05e0 	add.w	r5, r6, #224	; 0xe0
    a4c0:	4628      	mov	r0, r5
    a4c2:	4479      	add	r1, pc
    a4c4:	f7fd e9cc 	blx	7860 <_ZN7android22QualcommCameraHardware18filterPictureSizesEv-0x48c>
    a4c8:	b158      	cbz	r0, a4e2 <_ZN7android22QualcommCameraHardware17setLensshadeValueERKNS_16CameraParametersE+0x46>
    a4ca:	4927      	ldr	r1, [pc, #156]	(a568 <_ZN7android22QualcommCameraHardware17setLensshadeValueERKNS_16CameraParametersE+0xcc>)
    a4cc:	4628      	mov	r0, r5
    a4ce:	4479      	add	r1, pc
    a4d0:	f7fd e9c6 	blx	7860 <_ZN7android22QualcommCameraHardware18filterPictureSizesEv-0x48c>
    a4d4:	b128      	cbz	r0, a4e2 <_ZN7android22QualcommCameraHardware17setLensshadeValueERKNS_16CameraParametersE+0x46>
    a4d6:	4925      	ldr	r1, [pc, #148]	(a56c <_ZN7android22QualcommCameraHardware17setLensshadeValueERKNS_16CameraParametersE+0xd0>)
    a4d8:	4628      	mov	r0, r5
    a4da:	4479      	add	r1, pc
    a4dc:	f7fd e9c0 	blx	7860 <_ZN7android22QualcommCameraHardware18filterPictureSizesEv-0x48c>
    a4e0:	b938      	cbnz	r0, a4f2 <_ZN7android22QualcommCameraHardware17setLensshadeValueERKNS_16CameraParametersE+0x56>
    a4e2:	4923      	ldr	r1, [pc, #140]	(a570 <_ZN7android22QualcommCameraHardware17setLensshadeValueERKNS_16CameraParametersE+0xd4>)
    a4e4:	2004      	movs	r0, #4
    a4e6:	4a23      	ldr	r2, [pc, #140]	(a574 <_ZN7android22QualcommCameraHardware17setLensshadeValueERKNS_16CameraParametersE+0xd8>)
    a4e8:	4479      	add	r1, pc
    a4ea:	447a      	add	r2, pc
    a4ec:	f7fd e970 	blx	77d0 <_ZN7android22QualcommCameraHardware18filterPictureSizesEv-0x51c>
    a4f0:	e021      	b.n	a536 <_ZN7android22QualcommCameraHardware17setLensshadeValueERKNS_16CameraParametersE+0x9a>
    a4f2:	4821      	ldr	r0, [pc, #132]	(a578 <_ZN7android22QualcommCameraHardware17setLensshadeValueERKNS_16CameraParametersE+0xdc>)
    a4f4:	5827      	ldr	r7, [r4, r0]
    a4f6:	4640      	mov	r0, r8
    a4f8:	4639      	mov	r1, r7
    a4fa:	f7fd ea00 	blx	78fc <_ZN7android22QualcommCameraHardware18filterPictureSizesEv-0x3f0>
    a4fe:	4604      	mov	r4, r0
    a500:	b1d8      	cbz	r0, a53a <_ZN7android22QualcommCameraHardware17setLensshadeValueERKNS_16CameraParametersE+0x9e>
    a502:	491e      	ldr	r1, [pc, #120]	(a57c <_ZN7android22QualcommCameraHardware17setLensshadeValueERKNS_16CameraParametersE+0xe0>)
    a504:	4622      	mov	r2, r4
    a506:	4479      	add	r1, pc
    a508:	f111 0060 	adds.w	r0, r1, #96	; 0x60
    a50c:	2102      	movs	r1, #2
    a50e:	f7fe fab9 	bl	8a84 <_ZN7android22QualcommCameraHardware7MemPoolD2Ev+0xd4>
    a512:	f1b0 3fff 	cmp.w	r0, #4294967295	; 0xffffffff
    a516:	d012      	beq.n	a53e <_ZN7android22QualcommCameraHardware17setLensshadeValueERKNS_16CameraParametersE+0xa2>
    a518:	ad02      	add	r5, sp, #8
    a51a:	4639      	mov	r1, r7
    a51c:	4622      	mov	r2, r4
    a51e:	f805 0d01 	strb.w	r0, [r5, #-1]!
    a522:	f106 0008 	add.w	r0, r6, #8	; 0x8
    a526:	f7fd e9f0 	blx	7908 <_ZN7android22QualcommCameraHardware18filterPictureSizesEv-0x3e4>
    a52a:	4630      	mov	r0, r6
    a52c:	2125      	movs	r1, #37
    a52e:	2201      	movs	r2, #1
    a530:	462b      	mov	r3, r5
    a532:	f7ff f841 	bl	95b8 <_ZN7android22QualcommCameraHardware15native_set_parmEhtPv>
    a536:	2000      	movs	r0, #0
    a538:	e00b      	b.n	a552 <_ZN7android22QualcommCameraHardware17setLensshadeValueERKNS_16CameraParametersE+0xb6>
    a53a:	4c11      	ldr	r4, [pc, #68]	(a580 <_ZN7android22QualcommCameraHardware17setLensshadeValueERKNS_16CameraParametersE+0xe4>)
    a53c:	447c      	add	r4, pc
    a53e:	4911      	ldr	r1, [pc, #68]	(a584 <_ZN7android22QualcommCameraHardware17setLensshadeValueERKNS_16CameraParametersE+0xe8>)
    a540:	2006      	movs	r0, #6
    a542:	4a11      	ldr	r2, [pc, #68]	(a588 <_ZN7android22QualcommCameraHardware17setLensshadeValueERKNS_16CameraParametersE+0xec>)
    a544:	4623      	mov	r3, r4
    a546:	4479      	add	r1, pc
    a548:	447a      	add	r2, pc
    a54a:	f7fd e942 	blx	77d0 <_ZN7android22QualcommCameraHardware18filterPictureSizesEv-0x51c>
    a54e:	f06f 0015 	mvn.w	r0, #21	; 0x15
    a552:	e8bd 81fc 	ldmia.w	sp!, {r2, r3, r4, r5, r6, r7, r8, pc}
    a556:	bf00      	nop
    a558:	a4b8      	add	r4, pc, #736	(adr r4, a83c <_ZN7android22QualcommCameraHardware9setEffectERKNS_16CameraParametersE+0x5c>)
    a55a:	0000      	lsls	r0, r0, #0
    a55c:	62b9      	str	r1, [r7, #40]
    a55e:	0000      	lsls	r0, r0, #0
    a560:	a242      	add	r2, pc, #264	(adr r2, a66c <_ZN7android22QualcommCameraHardware15setWhiteBalanceERKNS_16CameraParametersE+0x30>)
    a562:	0000      	lsls	r0, r0, #0
    a564:	6c93      	ldr	r3, [r2, #72]
    a566:	0000      	lsls	r0, r0, #0
    a568:	629d      	str	r5, [r3, #40]
    a56a:	0000      	lsls	r0, r0, #0
    a56c:	6c82      	ldr	r2, [r0, #72]
    a56e:	0000      	lsls	r0, r0, #0
    a570:	5ea7      	ldrsh	r7, [r4, r2]
    a572:	0000      	lsls	r0, r0, #0
    a574:	6c79      	ldr	r1, [r7, #68]
    a576:	0000      	lsls	r0, r0, #0
    a578:	fecc ffff 	mcr2	15, 6, pc, cr12, cr15, {7}
    a57c:	9c76      	ldr	r4, [sp, #472]
    a57e:	0000      	lsls	r0, r0, #0
    a580:	6be1      	ldr	r1, [r4, #60]
    a582:	0000      	lsls	r0, r0, #0
    a584:	5e49      	ldrsh	r1, [r1, r1]
    a586:	0000      	lsls	r0, r0, #0
    a588:	6c4e      	ldr	r6, [r1, #68]
	...

0000a58c <_ZN7android22QualcommCameraHardware8setFlashERKNS_16CameraParametersE>:
    a58c:	b573      	push	{r0, r1, r4, r5, r6, lr}
    a58e:	4b22      	ldr	r3, [pc, #136]	(a618 <_ZN7android22QualcommCameraHardware8setFlashERKNS_16CameraParametersE+0x8c>)
    a590:	f890 4100 	ldrb.w	r4, [r0, #256]
    a594:	4605      	mov	r5, r0
    a596:	447b      	add	r3, pc
    a598:	b95c      	cbnz	r4, a5b2 <_ZN7android22QualcommCameraHardware8setFlashERKNS_16CameraParametersE+0x26>
    a59a:	4b20      	ldr	r3, [pc, #128]	(a61c <_ZN7android22QualcommCameraHardware8setFlashERKNS_16CameraParametersE+0x90>)
    a59c:	2002      	movs	r0, #2
    a59e:	4920      	ldr	r1, [pc, #128]	(a620 <_ZN7android22QualcommCameraHardware8setFlashERKNS_16CameraParametersE+0x94>)
    a5a0:	4a20      	ldr	r2, [pc, #128]	(a624 <_ZN7android22QualcommCameraHardware8setFlashERKNS_16CameraParametersE+0x98>)
    a5a2:	447b      	add	r3, pc
    a5a4:	4479      	add	r1, pc
    a5a6:	33f8      	adds	r3, #248
    a5a8:	447a      	add	r2, pc
    a5aa:	f7fd e912 	blx	77d0 <_ZN7android22QualcommCameraHardware18filterPictureSizesEv-0x51c>
    a5ae:	4620      	mov	r0, r4
    a5b0:	e031      	b.n	a616 <_ZN7android22QualcommCameraHardware8setFlashERKNS_16CameraParametersE+0x8a>
    a5b2:	4a1d      	ldr	r2, [pc, #116]	(a628 <_ZN7android22QualcommCameraHardware8setFlashERKNS_16CameraParametersE+0x9c>)
    a5b4:	4608      	mov	r0, r1
    a5b6:	589e      	ldr	r6, [r3, r2]
    a5b8:	4631      	mov	r1, r6
    a5ba:	f7fd e9a0 	blx	78fc <_ZN7android22QualcommCameraHardware18filterPictureSizesEv-0x3f0>
    a5be:	4604      	mov	r4, r0
    a5c0:	b1e8      	cbz	r0, a5fe <_ZN7android22QualcommCameraHardware8setFlashERKNS_16CameraParametersE+0x72>
    a5c2:	481a      	ldr	r0, [pc, #104]	(a62c <_ZN7android22QualcommCameraHardware8setFlashERKNS_16CameraParametersE+0xa0>)
    a5c4:	2104      	movs	r1, #4
    a5c6:	4622      	mov	r2, r4
    a5c8:	4478      	add	r0, pc
    a5ca:	3070      	adds	r0, #112
    a5cc:	f7fe fa5a 	bl	8a84 <_ZN7android22QualcommCameraHardware7MemPoolD2Ev+0xd4>
    a5d0:	f1b0 3fff 	cmp.w	r0, #4294967295	; 0xffffffff
    a5d4:	9001      	str	r0, [sp, #4]
    a5d6:	d014      	beq.n	a602 <_ZN7android22QualcommCameraHardware8setFlashERKNS_16CameraParametersE+0x76>
    a5d8:	f105 0008 	add.w	r0, r5, #8	; 0x8
    a5dc:	4631      	mov	r1, r6
    a5de:	4622      	mov	r2, r4
    a5e0:	f7fd e992 	blx	7908 <_ZN7android22QualcommCameraHardware18filterPictureSizesEv-0x3e4>
    a5e4:	2204      	movs	r2, #4
    a5e6:	4628      	mov	r0, r5
    a5e8:	2131      	movs	r1, #49
    a5ea:	eb0d 0302 	add.w	r3, sp, r2
    a5ee:	f7fe ffe3 	bl	95b8 <_ZN7android22QualcommCameraHardware15native_set_parmEhtPv>
    a5f2:	2800      	cmp	r0, #0
    a5f4:	bf0c      	ite	eq
    a5f6:	f04f 4000 	moveq.w	r0, #2147483648	; 0x80000000
    a5fa:	2000      	movne	r0, #0
    a5fc:	e00b      	b.n	a616 <_ZN7android22QualcommCameraHardware8setFlashERKNS_16CameraParametersE+0x8a>
    a5fe:	4c0c      	ldr	r4, [pc, #48]	(a630 <_ZN7android22QualcommCameraHardware8setFlashERKNS_16CameraParametersE+0xa4>)
    a600:	447c      	add	r4, pc
    a602:	490c      	ldr	r1, [pc, #48]	(a634 <_ZN7android22QualcommCameraHardware8setFlashERKNS_16CameraParametersE+0xa8>)
    a604:	2006      	movs	r0, #6
    a606:	4a0c      	ldr	r2, [pc, #48]	(a638 <_ZN7android22QualcommCameraHardware8setFlashERKNS_16CameraParametersE+0xac>)
    a608:	4623      	mov	r3, r4
    a60a:	4479      	add	r1, pc
    a60c:	447a      	add	r2, pc
    a60e:	f7fd e8e0 	blx	77d0 <_ZN7android22QualcommCameraHardware18filterPictureSizesEv-0x51c>
    a612:	f06f 0015 	mvn.w	r0, #21	; 0x15
    a616:	bd7c      	pop	{r2, r3, r4, r5, r6, pc}
    a618:	a15e      	add	r1, pc, #376	(adr r1, a794 <_ZN7android22QualcommCameraHardware15setAutoExposureERKNS_16CameraParametersE+0x74>)
    a61a:	0000      	lsls	r0, r0, #0
    a61c:	5c8a      	ldrb	r2, [r1, r2]
    a61e:	0000      	lsls	r0, r0, #0
    a620:	5deb      	ldrb	r3, [r5, r7]
    a622:	0000      	lsls	r0, r0, #0
    a624:	6c0a      	ldr	r2, [r1, #64]
    a626:	0000      	lsls	r0, r0, #0
    a628:	fed0 ffff 	mrc2	15, 6, pc, cr0, cr15, {7}
    a62c:	9bb4      	ldr	r3, [sp, #720]
    a62e:	0000      	lsls	r0, r0, #0
    a630:	6b1d      	ldr	r5, [r3, #48]
    a632:	0000      	lsls	r0, r0, #0
    a634:	5d85      	ldrb	r5, [r0, r6]
    a636:	0000      	lsls	r0, r0, #0
    a638:	6bbe      	ldr	r6, [r7, #56]
	...

0000a63c <_ZN7android22QualcommCameraHardware15setWhiteBalanceERKNS_16CameraParametersE>:
    a63c:	e92d 43f7 	stmdb	sp!, {r0, r1, r2, r4, r5, r6, r7, r8, r9, lr}
    a640:	4c2e      	ldr	r4, [pc, #184]	(a6fc <_ZN7android22QualcommCameraHardware15setWhiteBalanceERKNS_16CameraParametersE+0xc0>)
    a642:	f100 0808 	add.w	r8, r0, #8	; 0x8
    a646:	4607      	mov	r7, r0
    a648:	482d      	ldr	r0, [pc, #180]	(a700 <_ZN7android22QualcommCameraHardware15setWhiteBalanceERKNS_16CameraParametersE+0xc4>)
    a64a:	447c      	add	r4, pc
    a64c:	4689      	mov	r9, r1
    a64e:	4d2d      	ldr	r5, [pc, #180]	(a704 <_ZN7android22QualcommCameraHardware15setWhiteBalanceERKNS_16CameraParametersE+0xc8>)
    a650:	5821      	ldr	r1, [r4, r0]
    a652:	4640      	mov	r0, r8
    a654:	f7fd e952 	blx	78fc <_ZN7android22QualcommCameraHardware18filterPictureSizesEv-0x3f0>
    a658:	447d      	add	r5, pc
    a65a:	2109      	movs	r1, #9
    a65c:	4606      	mov	r6, r0
    a65e:	f105 0090 	add.w	r0, r5, #144	; 0x90
    a662:	4632      	mov	r2, r6
    a664:	f7fe fa0e 	bl	8a84 <_ZN7android22QualcommCameraHardware7MemPoolD2Ev+0xd4>
    a668:	1e42      	subs	r2, r0, #1
    a66a:	f1b0 0308 	subs.w	r3, r0, #8	; 0x8
    a66e:	bf18      	it	ne
    a670:	2301      	movne	r3, #1
    a672:	2a01      	cmp	r2, #1
    a674:	bf94      	ite	ls
    a676:	2300      	movls	r3, #0
    a678:	f003 0301 	andhi.w	r3, r3, #1	; 0x1
    a67c:	2b00      	cmp	r3, #0
    a67e:	d032      	beq.n	a6e6 <_ZN7android22QualcommCameraHardware15setWhiteBalanceERKNS_16CameraParametersE+0xaa>
    a680:	2804      	cmp	r0, #4
    a682:	d030      	beq.n	a6e6 <_ZN7android22QualcommCameraHardware15setWhiteBalanceERKNS_16CameraParametersE+0xaa>
    a684:	4920      	ldr	r1, [pc, #128]	(a708 <_ZN7android22QualcommCameraHardware15setWhiteBalanceERKNS_16CameraParametersE+0xcc>)
    a686:	4648      	mov	r0, r9
    a688:	5866      	ldr	r6, [r4, r1]
    a68a:	4631      	mov	r1, r6
    a68c:	f7fd e936 	blx	78fc <_ZN7android22QualcommCameraHardware18filterPictureSizesEv-0x3f0>
    a690:	4604      	mov	r4, r0
    a692:	b1d8      	cbz	r0, a6cc <_ZN7android22QualcommCameraHardware15setWhiteBalanceERKNS_16CameraParametersE+0x90>
    a694:	2105      	movs	r1, #5
    a696:	f105 00d8 	add.w	r0, r5, #216	; 0xd8
    a69a:	4622      	mov	r2, r4
    a69c:	f7fe f9f2 	bl	8a84 <_ZN7android22QualcommCameraHardware7MemPoolD2Ev+0xd4>
    a6a0:	f1b0 3fff 	cmp.w	r0, #4294967295	; 0xffffffff
    a6a4:	9001      	str	r0, [sp, #4]
    a6a6:	d013      	beq.n	a6d0 <_ZN7android22QualcommCameraHardware15setWhiteBalanceERKNS_16CameraParametersE+0x94>
    a6a8:	4640      	mov	r0, r8
    a6aa:	4631      	mov	r1, r6
    a6ac:	4622      	mov	r2, r4
    a6ae:	f7fd e92c 	blx	7908 <_ZN7android22QualcommCameraHardware18filterPictureSizesEv-0x3e4>
    a6b2:	2204      	movs	r2, #4
    a6b4:	4638      	mov	r0, r7
    a6b6:	210e      	movs	r1, #14
    a6b8:	eb0d 0302 	add.w	r3, sp, r2
    a6bc:	f7fe ff7c 	bl	95b8 <_ZN7android22QualcommCameraHardware15native_set_parmEhtPv>
    a6c0:	2800      	cmp	r0, #0
    a6c2:	bf0c      	ite	eq
    a6c4:	f04f 4000 	moveq.w	r0, #2147483648	; 0x80000000
    a6c8:	2000      	movne	r0, #0
    a6ca:	e015      	b.n	a6f8 <_ZN7android22QualcommCameraHardware15setWhiteBalanceERKNS_16CameraParametersE+0xbc>
    a6cc:	4c0f      	ldr	r4, [pc, #60]	(a70c <_ZN7android22QualcommCameraHardware15setWhiteBalanceERKNS_16CameraParametersE+0xd0>)
    a6ce:	447c      	add	r4, pc
    a6d0:	490f      	ldr	r1, [pc, #60]	(a710 <_ZN7android22QualcommCameraHardware15setWhiteBalanceERKNS_16CameraParametersE+0xd4>)
    a6d2:	2006      	movs	r0, #6
    a6d4:	4a0f      	ldr	r2, [pc, #60]	(a714 <_ZN7android22QualcommCameraHardware15setWhiteBalanceERKNS_16CameraParametersE+0xd8>)
    a6d6:	4623      	mov	r3, r4
    a6d8:	4479      	add	r1, pc
    a6da:	447a      	add	r2, pc
    a6dc:	f7fd e878 	blx	77d0 <_ZN7android22QualcommCameraHardware18filterPictureSizesEv-0x51c>
    a6e0:	f06f 0015 	mvn.w	r0, #21	; 0x15
    a6e4:	e008      	b.n	a6f8 <_ZN7android22QualcommCameraHardware15setWhiteBalanceERKNS_16CameraParametersE+0xbc>
    a6e6:	490c      	ldr	r1, [pc, #48]	(a718 <_ZN7android22QualcommCameraHardware15setWhiteBalanceERKNS_16CameraParametersE+0xdc>)
    a6e8:	2006      	movs	r0, #6
    a6ea:	4a0c      	ldr	r2, [pc, #48]	(a71c <_ZN7android22QualcommCameraHardware15setWhiteBalanceERKNS_16CameraParametersE+0xe0>)
    a6ec:	4633      	mov	r3, r6
    a6ee:	4479      	add	r1, pc
    a6f0:	447a      	add	r2, pc
    a6f2:	f7fd e86e 	blx	77d0 <_ZN7android22QualcommCameraHardware18filterPictureSizesEv-0x51c>
    a6f6:	2000      	movs	r0, #0
    a6f8:	e8bd 83fe 	ldmia.w	sp!, {r1, r2, r3, r4, r5, r6, r7, r8, r9, pc}
    a6fc:	a0aa      	add	r0, pc, #680	(adr r0, a9a8 <_ZN7android22QualcommCameraHardware13setBrightnessERKNS_16CameraParametersE+0x24>)
    a6fe:	0000      	lsls	r0, r0, #0
    a700:	fed4 ffff 	mrc2	15, 6, pc, cr4, cr15, {7}
    a704:	9b24      	ldr	r3, [sp, #144]
    a706:	0000      	lsls	r0, r0, #0
    a708:	fed8 ffff 	mrc2	15, 6, pc, cr8, cr15, {7}
    a70c:	6a4f      	ldr	r7, [r1, #36]
    a70e:	0000      	lsls	r0, r0, #0
    a710:	5cb7      	ldrb	r7, [r6, r2]
    a712:	0000      	lsls	r0, r0, #0
    a714:	6b0d      	ldr	r5, [r1, #48]
    a716:	0000      	lsls	r0, r0, #0
    a718:	5ca1      	ldrb	r1, [r4, r2]
    a71a:	0000      	lsls	r0, r0, #0
    a71c:	6b16      	ldr	r6, [r2, #48]
	...

0000a720 <_ZN7android22QualcommCameraHardware15setAutoExposureERKNS_16CameraParametersE>:
    a720:	4b25      	ldr	r3, [pc, #148]	(a7b8 <_ZN7android22QualcommCameraHardware15setAutoExposureERKNS_16CameraParametersE+0x98>)
    a722:	b5f7      	push	{r0, r1, r2, r4, r5, r6, r7, lr}
    a724:	460f      	mov	r7, r1
    a726:	447b      	add	r3, pc
    a728:	681b      	ldr	r3, [r3, #0]
    a72a:	4924      	ldr	r1, [pc, #144]	(a7bc <_ZN7android22QualcommCameraHardware15setAutoExposureERKNS_16CameraParametersE+0x9c>)
    a72c:	4605      	mov	r5, r0
    a72e:	4e24      	ldr	r6, [pc, #144]	(a7c0 <_ZN7android22QualcommCameraHardware15setAutoExposureERKNS_16CameraParametersE+0xa0>)
    a730:	4479      	add	r1, pc
    a732:	6818      	ldr	r0, [r3, #0]
    a734:	f7fd e894 	blx	7860 <_ZN7android22QualcommCameraHardware18filterPictureSizesEv-0x48c>
    a738:	447e      	add	r6, pc
    a73a:	4604      	mov	r4, r0
    a73c:	b940      	cbnz	r0, a750 <_ZN7android22QualcommCameraHardware15setAutoExposureERKNS_16CameraParametersE+0x30>
    a73e:	4921      	ldr	r1, [pc, #132]	(a7c4 <_ZN7android22QualcommCameraHardware15setAutoExposureERKNS_16CameraParametersE+0xa4>)
    a740:	2006      	movs	r0, #6
    a742:	4a21      	ldr	r2, [pc, #132]	(a7c8 <_ZN7android22QualcommCameraHardware15setAutoExposureERKNS_16CameraParametersE+0xa8>)
    a744:	4479      	add	r1, pc
    a746:	447a      	add	r2, pc
    a748:	f7fd e842 	blx	77d0 <_ZN7android22QualcommCameraHardware18filterPictureSizesEv-0x51c>
    a74c:	4620      	mov	r0, r4
    a74e:	e032      	b.n	a7b6 <_ZN7android22QualcommCameraHardware15setAutoExposureERKNS_16CameraParametersE+0x96>
    a750:	481e      	ldr	r0, [pc, #120]	(a7cc <_ZN7android22QualcommCameraHardware15setAutoExposureERKNS_16CameraParametersE+0xac>)
    a752:	5836      	ldr	r6, [r6, r0]
    a754:	4638      	mov	r0, r7
    a756:	4631      	mov	r1, r6
    a758:	f7fd e8d0 	blx	78fc <_ZN7android22QualcommCameraHardware18filterPictureSizesEv-0x3f0>
    a75c:	4604      	mov	r4, r0
    a75e:	b1f0      	cbz	r0, a79e <_ZN7android22QualcommCameraHardware15setAutoExposureERKNS_16CameraParametersE+0x7e>
    a760:	491b      	ldr	r1, [pc, #108]	(a7d0 <_ZN7android22QualcommCameraHardware15setAutoExposureERKNS_16CameraParametersE+0xb0>)
    a762:	4622      	mov	r2, r4
    a764:	4479      	add	r1, pc
    a766:	f501 7080 	add.w	r0, r1, #256	; 0x100
    a76a:	2103      	movs	r1, #3
    a76c:	f7fe f98a 	bl	8a84 <_ZN7android22QualcommCameraHardware7MemPoolD2Ev+0xd4>
    a770:	f1b0 3fff 	cmp.w	r0, #4294967295	; 0xffffffff
    a774:	9001      	str	r0, [sp, #4]
    a776:	d014      	beq.n	a7a2 <_ZN7android22QualcommCameraHardware15setAutoExposureERKNS_16CameraParametersE+0x82>
    a778:	f105 0008 	add.w	r0, r5, #8	; 0x8
    a77c:	4631      	mov	r1, r6
    a77e:	4622      	mov	r2, r4
    a780:	f7fd e8c2 	blx	7908 <_ZN7android22QualcommCameraHardware18filterPictureSizesEv-0x3e4>
    a784:	2204      	movs	r2, #4
    a786:	4628      	mov	r0, r5
    a788:	210c      	movs	r1, #12
    a78a:	eb0d 0302 	add.w	r3, sp, r2
    a78e:	f7fe ff13 	bl	95b8 <_ZN7android22QualcommCameraHardware15native_set_parmEhtPv>
    a792:	2800      	cmp	r0, #0
    a794:	bf0c      	ite	eq
    a796:	f04f 4000 	moveq.w	r0, #2147483648	; 0x80000000
    a79a:	2000      	movne	r0, #0
    a79c:	e00b      	b.n	a7b6 <_ZN7android22QualcommCameraHardware15setAutoExposureERKNS_16CameraParametersE+0x96>
    a79e:	4c0d      	ldr	r4, [pc, #52]	(a7d4 <_ZN7android22QualcommCameraHardware15setAutoExposureERKNS_16CameraParametersE+0xb4>)
    a7a0:	447c      	add	r4, pc
    a7a2:	490d      	ldr	r1, [pc, #52]	(a7d8 <_ZN7android22QualcommCameraHardware15setAutoExposureERKNS_16CameraParametersE+0xb8>)
    a7a4:	2006      	movs	r0, #6
    a7a6:	4a0d      	ldr	r2, [pc, #52]	(a7dc <_ZN7android22QualcommCameraHardware15setAutoExposureERKNS_16CameraParametersE+0xbc>)
    a7a8:	4623      	mov	r3, r4
    a7aa:	4479      	add	r1, pc
    a7ac:	447a      	add	r2, pc
    a7ae:	f7fd e810 	blx	77d0 <_ZN7android22QualcommCameraHardware18filterPictureSizesEv-0x51c>
    a7b2:	f06f 0015 	mvn.w	r0, #21	; 0x15
    a7b6:	bdfe      	pop	{r1, r2, r3, r4, r5, r6, r7, pc}
    a7b8:	a236      	add	r2, pc, #216	(adr r2, a894 <_ZN7android22QualcommCameraHardware9setEffectERKNS_16CameraParametersE+0xb4>)
    a7ba:	0000      	lsls	r0, r0, #0
    a7bc:	6037      	str	r7, [r6, #0]
    a7be:	0000      	lsls	r0, r0, #0
    a7c0:	9fbc      	ldr	r7, [sp, #752]
    a7c2:	0000      	lsls	r0, r0, #0
    a7c4:	5c4b      	ldrb	r3, [r1, r1]
    a7c6:	0000      	lsls	r0, r0, #0
    a7c8:	6b02      	ldr	r2, [r0, #48]
    a7ca:	0000      	lsls	r0, r0, #0
    a7cc:	fedc ffff 	mrc2	15, 6, pc, cr12, cr15, {7}
    a7d0:	9a18      	ldr	r2, [sp, #96]
    a7d2:	0000      	lsls	r0, r0, #0
    a7d4:	697d      	ldr	r5, [r7, #20]
    a7d6:	0000      	lsls	r0, r0, #0
    a7d8:	5be5      	ldrh	r5, [r4, r7]
    a7da:	0000      	lsls	r0, r0, #0
    a7dc:	6ac8      	ldr	r0, [r1, #44]
	...

0000a7e0 <_ZN7android22QualcommCameraHardware9setEffectERKNS_16CameraParametersE>:
    a7e0:	e92d 47f3 	stmdb	sp!, {r0, r1, r4, r5, r6, r7, r8, r9, sl, lr}
    a7e4:	4d47      	ldr	r5, [pc, #284]	(a904 <_ZN7android22QualcommCameraHardware9setEffectERKNS_16CameraParametersE+0x124>)
    a7e6:	f100 0808 	add.w	r8, r0, #8	; 0x8
    a7ea:	4607      	mov	r7, r0
    a7ec:	4846      	ldr	r0, [pc, #280]	(a908 <_ZN7android22QualcommCameraHardware9setEffectERKNS_16CameraParametersE+0x128>)
    a7ee:	447d      	add	r5, pc
    a7f0:	460c      	mov	r4, r1
    a7f2:	4e46      	ldr	r6, [pc, #280]	(a90c <_ZN7android22QualcommCameraHardware9setEffectERKNS_16CameraParametersE+0x12c>)
    a7f4:	5829      	ldr	r1, [r5, r0]
    a7f6:	4640      	mov	r0, r8
    a7f8:	f7fd e880 	blx	78fc <_ZN7android22QualcommCameraHardware18filterPictureSizesEv-0x3f0>
    a7fc:	447e      	add	r6, pc
    a7fe:	2105      	movs	r1, #5
    a800:	4681      	mov	r9, r0
    a802:	f106 00d8 	add.w	r0, r6, #216	; 0xd8
    a806:	464a      	mov	r2, r9
    a808:	f7fe f93c 	bl	8a84 <_ZN7android22QualcommCameraHardware7MemPoolD2Ev+0xd4>
    a80c:	4b40      	ldr	r3, [pc, #256]	(a910 <_ZN7android22QualcommCameraHardware9setEffectERKNS_16CameraParametersE+0x130>)
    a80e:	58e9      	ldr	r1, [r5, r3]
    a810:	4682      	mov	sl, r0
    a812:	4620      	mov	r0, r4
    a814:	f7fd e872 	blx	78fc <_ZN7android22QualcommCameraHardware18filterPictureSizesEv-0x3f0>
    a818:	4604      	mov	r4, r0
    a81a:	2800      	cmp	r0, #0
    a81c:	d063      	beq.n	a8e6 <_ZN7android22QualcommCameraHardware9setEffectERKNS_16CameraParametersE+0x106>
    a81e:	f106 0090 	add.w	r0, r6, #144	; 0x90
    a822:	2109      	movs	r1, #9
    a824:	4622      	mov	r2, r4
    a826:	f7fe f92d 	bl	8a84 <_ZN7android22QualcommCameraHardware7MemPoolD2Ev+0xd4>
    a82a:	f1b0 3fff 	cmp.w	r0, #4294967295	; 0xffffffff
    a82e:	4606      	mov	r6, r0
    a830:	9001      	str	r0, [sp, #4]
    a832:	d05a      	beq.n	a8ea <_ZN7android22QualcommCameraHardware9setEffectERKNS_16CameraParametersE+0x10a>
    a834:	4b37      	ldr	r3, [pc, #220]	(a914 <_ZN7android22QualcommCameraHardware9setEffectERKNS_16CameraParametersE+0x134>)
    a836:	4938      	ldr	r1, [pc, #224]	(a918 <_ZN7android22QualcommCameraHardware9setEffectERKNS_16CameraParametersE+0x138>)
    a838:	447b      	add	r3, pc
    a83a:	681b      	ldr	r3, [r3, #0]
    a83c:	4479      	add	r1, pc
    a83e:	6818      	ldr	r0, [r3, #0]
    a840:	f7fd e80e 	blx	7860 <_ZN7android22QualcommCameraHardware18filterPictureSizesEv-0x48c>
    a844:	1e32      	subs	r2, r6, #0
    a846:	bf18      	it	ne
    a848:	2201      	movne	r2, #1
    a84a:	2800      	cmp	r0, #0
    a84c:	bf14      	ite	ne
    a84e:	2100      	movne	r1, #0
    a850:	f002 0101 	andeq.w	r1, r2, #1	; 0x1
    a854:	b1c9      	cbz	r1, a88a <_ZN7android22QualcommCameraHardware9setEffectERKNS_16CameraParametersE+0xaa>
    a856:	1e70      	subs	r0, r6, #1
    a858:	bf18      	it	ne
    a85a:	2001      	movne	r0, #1
    a85c:	2e02      	cmp	r6, #2
    a85e:	bf0c      	ite	eq
    a860:	2000      	moveq	r0, #0
    a862:	f000 0001 	andne.w	r0, r0, #1	; 0x1
    a866:	b180      	cbz	r0, a88a <_ZN7android22QualcommCameraHardware9setEffectERKNS_16CameraParametersE+0xaa>
    a868:	1ef1      	subs	r1, r6, #3
    a86a:	bf18      	it	ne
    a86c:	2101      	movne	r1, #1
    a86e:	2e04      	cmp	r6, #4
    a870:	bf0c      	ite	eq
    a872:	2100      	moveq	r1, #0
    a874:	f001 0101 	andne.w	r1, r1, #1	; 0x1
    a878:	b139      	cbz	r1, a88a <_ZN7android22QualcommCameraHardware9setEffectERKNS_16CameraParametersE+0xaa>
    a87a:	4928      	ldr	r1, [pc, #160]	(a91c <_ZN7android22QualcommCameraHardware9setEffectERKNS_16CameraParametersE+0x13c>)
    a87c:	2006      	movs	r0, #6
    a87e:	4a28      	ldr	r2, [pc, #160]	(a920 <_ZN7android22QualcommCameraHardware9setEffectERKNS_16CameraParametersE+0x140>)
    a880:	4479      	add	r1, pc
    a882:	447a      	add	r2, pc
    a884:	f7fc efa4 	blx	77d0 <_ZN7android22QualcommCameraHardware18filterPictureSizesEv-0x51c>
    a888:	e016      	b.n	a8b8 <_ZN7android22QualcommCameraHardware9setEffectERKNS_16CameraParametersE+0xd8>
    a88a:	1e72      	subs	r2, r6, #1
    a88c:	2e08      	cmp	r6, #8
    a88e:	bf14      	ite	ne
    a890:	2300      	movne	r3, #0
    a892:	2301      	moveq	r3, #1
    a894:	2a01      	cmp	r2, #1
    a896:	bf98      	it	ls
    a898:	f043 0301 	orrls.w	r3, r3, #1	; 0x1
    a89c:	b90b      	cbnz	r3, a8a2 <_ZN7android22QualcommCameraHardware9setEffectERKNS_16CameraParametersE+0xc2>
    a89e:	2e04      	cmp	r6, #4
    a8a0:	d10c      	bne.n	a8bc <_ZN7android22QualcommCameraHardware9setEffectERKNS_16CameraParametersE+0xdc>
    a8a2:	f1ba 0f01 	cmp.w	sl, #1	; 0x1
    a8a6:	d009      	beq.n	a8bc <_ZN7android22QualcommCameraHardware9setEffectERKNS_16CameraParametersE+0xdc>
    a8a8:	491e      	ldr	r1, [pc, #120]	(a924 <_ZN7android22QualcommCameraHardware9setEffectERKNS_16CameraParametersE+0x144>)
    a8aa:	2006      	movs	r0, #6
    a8ac:	4a1e      	ldr	r2, [pc, #120]	(a928 <_ZN7android22QualcommCameraHardware9setEffectERKNS_16CameraParametersE+0x148>)
    a8ae:	464b      	mov	r3, r9
    a8b0:	4479      	add	r1, pc
    a8b2:	447a      	add	r2, pc
    a8b4:	f7fc ef8c 	blx	77d0 <_ZN7android22QualcommCameraHardware18filterPictureSizesEv-0x51c>
    a8b8:	2000      	movs	r0, #0
    a8ba:	e020      	b.n	a8fe <_ZN7android22QualcommCameraHardware9setEffectERKNS_16CameraParametersE+0x11e>
    a8bc:	f8df c050 	ldr.w	ip, [pc, #80]	; a910 <_ZN7android22QualcommCameraHardware9setEffectERKNS_16CameraParametersE+0x130>
    a8c0:	4640      	mov	r0, r8
    a8c2:	4622      	mov	r2, r4
    a8c4:	f855 100c 	ldr.w	r1, [r5, ip]
    a8c8:	f7fd e81e 	blx	7908 <_ZN7android22QualcommCameraHardware18filterPictureSizesEv-0x3e4>
    a8cc:	2204      	movs	r2, #4
    a8ce:	4638      	mov	r0, r7
    a8d0:	210f      	movs	r1, #15
    a8d2:	eb0d 0302 	add.w	r3, sp, r2
    a8d6:	f7fe fe6f 	bl	95b8 <_ZN7android22QualcommCameraHardware15native_set_parmEhtPv>
    a8da:	2800      	cmp	r0, #0
    a8dc:	bf0c      	ite	eq
    a8de:	f04f 4000 	moveq.w	r0, #2147483648	; 0x80000000
    a8e2:	2000      	movne	r0, #0
    a8e4:	e00b      	b.n	a8fe <_ZN7android22QualcommCameraHardware9setEffectERKNS_16CameraParametersE+0x11e>
    a8e6:	4c11      	ldr	r4, [pc, #68]	(a92c <_ZN7android22QualcommCameraHardware9setEffectERKNS_16CameraParametersE+0x14c>)
    a8e8:	447c      	add	r4, pc
    a8ea:	4911      	ldr	r1, [pc, #68]	(a930 <_ZN7android22QualcommCameraHardware9setEffectERKNS_16CameraParametersE+0x150>)
    a8ec:	2006      	movs	r0, #6
    a8ee:	4a11      	ldr	r2, [pc, #68]	(a934 <_ZN7android22QualcommCameraHardware9setEffectERKNS_16CameraParametersE+0x154>)
    a8f0:	4623      	mov	r3, r4
    a8f2:	4479      	add	r1, pc
    a8f4:	447a      	add	r2, pc
    a8f6:	f7fc ef6c 	blx	77d0 <_ZN7android22QualcommCameraHardware18filterPictureSizesEv-0x51c>
    a8fa:	f06f 0015 	mvn.w	r0, #21	; 0x15
    a8fe:	e8bd 87fc 	ldmia.w	sp!, {r2, r3, r4, r5, r6, r7, r8, r9, sl, pc}
    a902:	bf00      	nop
    a904:	9f06      	ldr	r7, [sp, #24]
    a906:	0000      	lsls	r0, r0, #0
    a908:	fed8 ffff 	mrc2	15, 6, pc, cr8, cr15, {7}
    a90c:	9980      	ldr	r1, [sp, #512]
    a90e:	0000      	lsls	r0, r0, #0
    a910:	fed4 ffff 	mrc2	15, 6, pc, cr4, cr15, {7}
    a914:	a124      	add	r1, pc, #144	(adr r1, a9a8 <_ZN7android22QualcommCameraHardware13setBrightnessERKNS_16CameraParametersE+0x24>)
    a916:	0000      	lsls	r0, r0, #0
    a918:	5f2b      	ldrsh	r3, [r5, r4]
    a91a:	0000      	lsls	r0, r0, #0
    a91c:	5b0f      	ldrh	r7, [r1, r4]
    a91e:	0000      	lsls	r0, r0, #0
    a920:	6a12      	ldr	r2, [r2, #32]
    a922:	0000      	lsls	r0, r0, #0
    a924:	5adf      	ldrh	r7, [r3, r3]
    a926:	0000      	lsls	r0, r0, #0
    a928:	6a1c      	ldr	r4, [r3, #32]
    a92a:	0000      	lsls	r0, r0, #0
    a92c:	6835      	ldr	r5, [r6, #0]
    a92e:	0000      	lsls	r0, r0, #0
    a930:	5a9d      	ldrh	r5, [r3, r2]
    a932:	0000      	lsls	r0, r0, #0
    a934:	6a22      	ldr	r2, [r4, #32]
	...

0000a938 <_ZN7android22QualcommCameraHardware7setZoomERKNS_16CameraParametersE>:
    a938:	4a0d      	ldr	r2, [pc, #52]	(a970 <_ZN7android22QualcommCameraHardware7setZoomERKNS_16CameraParametersE+0x38>)
    a93a:	4608      	mov	r0, r1
    a93c:	b510      	push	{r4, lr}
    a93e:	447a      	add	r2, pc
    a940:	4611      	mov	r1, r2
    a942:	4c0c      	ldr	r4, [pc, #48]	(a974 <_ZN7android22QualcommCameraHardware7setZoomERKNS_16CameraParametersE+0x3c>)
    a944:	f7fc efe6 	blx	7914 <_ZN7android22QualcommCameraHardware18filterPictureSizesEv-0x3d8>
    a948:	4a0b      	ldr	r2, [pc, #44]	(a978 <_ZN7android22QualcommCameraHardware7setZoomERKNS_16CameraParametersE+0x40>)
    a94a:	447c      	add	r4, pc
    a94c:	4621      	mov	r1, r4
    a94e:	447a      	add	r2, pc
    a950:	4603      	mov	r3, r0
    a952:	2002      	movs	r0, #2
    a954:	f7fc ef3c 	blx	77d0 <_ZN7android22QualcommCameraHardware18filterPictureSizesEv-0x51c>
    a958:	4b08      	ldr	r3, [pc, #32]	(a97c <_ZN7android22QualcommCameraHardware7setZoomERKNS_16CameraParametersE+0x44>)
    a95a:	4a09      	ldr	r2, [pc, #36]	(a980 <_ZN7android22QualcommCameraHardware7setZoomERKNS_16CameraParametersE+0x48>)
    a95c:	2002      	movs	r0, #2
    a95e:	447b      	add	r3, pc
    a960:	4621      	mov	r1, r4
    a962:	447a      	add	r2, pc
    a964:	6f5b      	ldr	r3, [r3, #116]
    a966:	f7fc ef34 	blx	77d0 <_ZN7android22QualcommCameraHardware18filterPictureSizesEv-0x51c>
    a96a:	f06f 0015 	mvn.w	r0, #21	; 0x15
    a96e:	bd10      	pop	{r4, pc}
    a970:	69f1      	ldr	r1, [r6, #28]
    a972:	0000      	lsls	r0, r0, #0
    a974:	5a45      	ldrh	r5, [r0, r1]
    a976:	0000      	lsls	r0, r0, #0
    a978:	69e6      	ldr	r6, [r4, #28]
    a97a:	0000      	lsls	r0, r0, #0
    a97c:	9ffe      	ldr	r7, [sp, #1016]
    a97e:	0000      	lsls	r0, r0, #0
    a980:	69de      	ldr	r6, [r3, #28]
	...

0000a984 <_ZN7android22QualcommCameraHardware13setBrightnessERKNS_16CameraParametersE>:
    a984:	4a11      	ldr	r2, [pc, #68]	(a9cc <_ZN7android22QualcommCameraHardware13setBrightnessERKNS_16CameraParametersE+0x48>)
    a986:	b570      	push	{r4, r5, r6, lr}
    a988:	447a      	add	r2, pc
    a98a:	4604      	mov	r4, r0
    a98c:	4608      	mov	r0, r1
    a98e:	4611      	mov	r1, r2
    a990:	f7fc efc0 	blx	7914 <_ZN7android22QualcommCameraHardware18filterPictureSizesEv-0x3d8>
    a994:	f8d4 3164 	ldr.w	r3, [r4, #356]
    a998:	4283      	cmp	r3, r0
    a99a:	4605      	mov	r5, r0
    a99c:	d014      	beq.n	a9c8 <_ZN7android22QualcommCameraHardware13setBrightnessERKNS_16CameraParametersE+0x44>
    a99e:	490c      	ldr	r1, [pc, #48]	(a9d0 <_ZN7android22QualcommCameraHardware13setBrightnessERKNS_16CameraParametersE+0x4c>)
    a9a0:	462b      	mov	r3, r5
    a9a2:	4a0c      	ldr	r2, [pc, #48]	(a9d4 <_ZN7android22QualcommCameraHardware13setBrightnessERKNS_16CameraParametersE+0x50>)
    a9a4:	2002      	movs	r0, #2
    a9a6:	4479      	add	r1, pc
    a9a8:	447a      	add	r2, pc
    a9aa:	f7fc ef12 	blx	77d0 <_ZN7android22QualcommCameraHardware18filterPictureSizesEv-0x51c>
    a9ae:	f8c4 5164 	str.w	r5, [r4, #356]
    a9b2:	f504 73b2 	add.w	r3, r4, #356	; 0x164
    a9b6:	4620      	mov	r0, r4
    a9b8:	2107      	movs	r1, #7
    a9ba:	2204      	movs	r2, #4
    a9bc:	f7fe fdfc 	bl	95b8 <_ZN7android22QualcommCameraHardware15native_set_parmEhtPv>
    a9c0:	b910      	cbnz	r0, a9c8 <_ZN7android22QualcommCameraHardware13setBrightnessERKNS_16CameraParametersE+0x44>
    a9c2:	f100 4000 	add.w	r0, r0, #2147483648	; 0x80000000
    a9c6:	e000      	b.n	a9ca <_ZN7android22QualcommCameraHardware13setBrightnessERKNS_16CameraParametersE+0x46>
    a9c8:	2000      	movs	r0, #0
    a9ca:	bd70      	pop	{r4, r5, r6, pc}
    a9cc:	69c3      	ldr	r3, [r0, #28]
    a9ce:	0000      	lsls	r0, r0, #0
    a9d0:	59e9      	ldr	r1, [r5, r7]
    a9d2:	0000      	lsls	r0, r0, #0
    a9d4:	69b3      	ldr	r3, [r6, #24]
	...

0000a9d8 <_ZN7android22QualcommCameraHardware11setRotationERKNS_16CameraParametersE>:
    a9d8:	b570      	push	{r4, r5, r6, lr}
    a9da:	4c1a      	ldr	r4, [pc, #104]	(aa44 <_ZN7android22QualcommCameraHardware11setRotationERKNS_16CameraParametersE+0x6c>)
    a9dc:	4605      	mov	r5, r0
    a9de:	481a      	ldr	r0, [pc, #104]	(aa48 <_ZN7android22QualcommCameraHardware11setRotationERKNS_16CameraParametersE+0x70>)
    a9e0:	447c      	add	r4, pc
    a9e2:	5823      	ldr	r3, [r4, r0]
    a9e4:	4608      	mov	r0, r1
    a9e6:	4619      	mov	r1, r3
    a9e8:	f7fc ef94 	blx	7914 <_ZN7android22QualcommCameraHardware18filterPictureSizesEv-0x3d8>
    a9ec:	f1b0 3fff 	cmp.w	r0, #4294967295	; 0xffffffff
    a9f0:	4603      	mov	r3, r0
    a9f2:	d01b      	beq.n	aa2c <_ZN7android22QualcommCameraHardware11setRotationERKNS_16CameraParametersE+0x54>
    a9f4:	f1d0 0201 	rsbs	r2, r0, #1	; 0x1
    a9f8:	bf38      	it	cc
    a9fa:	2200      	movcc	r2, #0
    a9fc:	285a      	cmp	r0, #90
    a9fe:	bf08      	it	eq
    aa00:	f042 0201 	orreq.w	r2, r2, #1	; 0x1
    aa04:	b94a      	cbnz	r2, aa1a <_ZN7android22QualcommCameraHardware11setRotationERKNS_16CameraParametersE+0x42>
    aa06:	28b4      	cmp	r0, #180
    aa08:	bf14      	ite	ne
    aa0a:	2100      	movne	r1, #0
    aa0c:	2101      	moveq	r1, #1
    aa0e:	f5b0 7f87 	cmp.w	r0, #270	; 0x10e
    aa12:	bf08      	it	eq
    aa14:	f041 0101 	orreq.w	r1, r1, #1	; 0x1
    aa18:	b151      	cbz	r1, aa30 <_ZN7android22QualcommCameraHardware11setRotationERKNS_16CameraParametersE+0x58>
    aa1a:	f8df c02c 	ldr.w	ip, [pc, #44]	; aa48 <_ZN7android22QualcommCameraHardware11setRotationERKNS_16CameraParametersE+0x70>
    aa1e:	f105 0008 	add.w	r0, r5, #8	; 0x8
    aa22:	461a      	mov	r2, r3
    aa24:	f854 100c 	ldr.w	r1, [r4, ip]
    aa28:	f7fc ef7a 	blx	7920 <_ZN7android22QualcommCameraHardware18filterPictureSizesEv-0x3cc>
    aa2c:	2000      	movs	r0, #0
    aa2e:	e008      	b.n	aa42 <_ZN7android22QualcommCameraHardware11setRotationERKNS_16CameraParametersE+0x6a>
    aa30:	4906      	ldr	r1, [pc, #24]	(aa4c <_ZN7android22QualcommCameraHardware11setRotationERKNS_16CameraParametersE+0x74>)
    aa32:	2006      	movs	r0, #6
    aa34:	4a06      	ldr	r2, [pc, #24]	(aa50 <_ZN7android22QualcommCameraHardware11setRotationERKNS_16CameraParametersE+0x78>)
    aa36:	4479      	add	r1, pc
    aa38:	447a      	add	r2, pc
    aa3a:	f7fc eeca 	blx	77d0 <_ZN7android22QualcommCameraHardware18filterPictureSizesEv-0x51c>
    aa3e:	f06f 0015 	mvn.w	r0, #21	; 0x15
    aa42:	bd70      	pop	{r4, r5, r6, pc}
    aa44:	9d14      	ldr	r5, [sp, #80]
    aa46:	0000      	lsls	r0, r0, #0
    aa48:	fee0 ffff 	mcr2	15, 7, pc, cr0, cr15, {7}
    aa4c:	5959      	ldr	r1, [r3, r5]
    aa4e:	0000      	lsls	r0, r0, #0
    aa50:	693f      	ldr	r7, [r7, #16]
	...

0000aa54 <_ZN7android22QualcommCameraHardware23setExposureCompensationERKNS_16CameraParametersE>:
    aa54:	f8df c044 	ldr.w	ip, [pc, #68]	; aa9c <_ZN7android22QualcommCameraHardware23setExposureCompensationERKNS_16CameraParametersE+0x48>
    aa58:	b537      	push	{r0, r1, r2, r4, r5, lr}
    aa5a:	44fc      	add	ip, pc
    aa5c:	4604      	mov	r4, r0
    aa5e:	4608      	mov	r0, r1
    aa60:	4661      	mov	r1, ip
    aa62:	4d0f      	ldr	r5, [pc, #60]	(aaa0 <_ZN7android22QualcommCameraHardware23setExposureCompensationERKNS_16CameraParametersE+0x4c>)
    aa64:	f7fc ef56 	blx	7914 <_ZN7android22QualcommCameraHardware18filterPictureSizesEv-0x3d8>
    aa68:	4b0e      	ldr	r3, [pc, #56]	(aaa4 <_ZN7android22QualcommCameraHardware23setExposureCompensationERKNS_16CameraParametersE+0x50>)
    aa6a:	447d      	add	r5, pc
    aa6c:	58e9      	ldr	r1, [r5, r3]
    aa6e:	4602      	mov	r2, r0
    aa70:	9001      	str	r0, [sp, #4]
    aa72:	f104 0008 	add.w	r0, r4, #8	; 0x8
    aa76:	f7fc ef54 	blx	7920 <_ZN7android22QualcommCameraHardware18filterPictureSizesEv-0x3cc>
    aa7a:	9801      	ldr	r0, [sp, #4]
    aa7c:	ab02      	add	r3, sp, #8
    aa7e:	2108      	movs	r1, #8
    aa80:	1c82      	adds	r2, r0, #2
    aa82:	4620      	mov	r0, r4
    aa84:	f843 2d04 	str.w	r2, [r3, #-4]!
    aa88:	2204      	movs	r2, #4
    aa8a:	f7fe fd95 	bl	95b8 <_ZN7android22QualcommCameraHardware15native_set_parmEhtPv>
    aa8e:	2800      	cmp	r0, #0
    aa90:	bf0c      	ite	eq
    aa92:	f04f 4000 	moveq.w	r0, #2147483648	; 0x80000000
    aa96:	2000      	movne	r0, #0
    aa98:	bd3e      	pop	{r1, r2, r3, r4, r5, pc}
    aa9a:	bf00      	nop
    aa9c:	6938      	ldr	r0, [r7, #16]
    aa9e:	0000      	lsls	r0, r0, #0
    aaa0:	9c8a      	ldr	r4, [sp, #552]
    aaa2:	0000      	lsls	r0, r0, #0
    aaa4:	fee4 ffff 	mcr2	15, 7, pc, cr4, cr15, {7}

0000aaa8 <_ZN7android22QualcommCameraHardware13setSaturationERKNS_16CameraParametersE>:
    aaa8:	4b32      	ldr	r3, [pc, #200]	(ab74 <_ZN7android22QualcommCameraHardware13setSaturationERKNS_16CameraParametersE+0xcc>)
    aaaa:	b5f7      	push	{r0, r1, r2, r4, r5, r6, r7, lr}
    aaac:	460f      	mov	r7, r1
    aaae:	447b      	add	r3, pc
    aab0:	681b      	ldr	r3, [r3, #0]
    aab2:	4931      	ldr	r1, [pc, #196]	(ab78 <_ZN7android22QualcommCameraHardware13setSaturationERKNS_16CameraParametersE+0xd0>)
    aab4:	4604      	mov	r4, r0
    aab6:	4d31      	ldr	r5, [pc, #196]	(ab7c <_ZN7android22QualcommCameraHardware13setSaturationERKNS_16CameraParametersE+0xd4>)
    aab8:	4479      	add	r1, pc
    aaba:	6818      	ldr	r0, [r3, #0]
    aabc:	f7fc eed0 	blx	7860 <_ZN7android22QualcommCameraHardware18filterPictureSizesEv-0x48c>
    aac0:	447d      	add	r5, pc
    aac2:	4606      	mov	r6, r0
    aac4:	b940      	cbnz	r0, aad8 <_ZN7android22QualcommCameraHardware13setSaturationERKNS_16CameraParametersE+0x30>
    aac6:	492e      	ldr	r1, [pc, #184]	(ab80 <_ZN7android22QualcommCameraHardware13setSaturationERKNS_16CameraParametersE+0xd8>)
    aac8:	2006      	movs	r0, #6
    aaca:	4a2e      	ldr	r2, [pc, #184]	(ab84 <_ZN7android22QualcommCameraHardware13setSaturationERKNS_16CameraParametersE+0xdc>)
    aacc:	4479      	add	r1, pc
    aace:	447a      	add	r2, pc
    aad0:	f7fc ee7e 	blx	77d0 <_ZN7android22QualcommCameraHardware18filterPictureSizesEv-0x51c>
    aad4:	4630      	mov	r0, r6
    aad6:	e04c      	b.n	ab72 <_ZN7android22QualcommCameraHardware13setSaturationERKNS_16CameraParametersE+0xca>
    aad8:	4e2b      	ldr	r6, [pc, #172]	(ab88 <_ZN7android22QualcommCameraHardware13setSaturationERKNS_16CameraParametersE+0xe0>)
    aada:	4638      	mov	r0, r7
    aadc:	59a9      	ldr	r1, [r5, r6]
    aade:	f7fc ef0e 	blx	78fc <_ZN7android22QualcommCameraHardware18filterPictureSizesEv-0x3f0>
    aae2:	2109      	movs	r1, #9
    aae4:	4606      	mov	r6, r0
    aae6:	4829      	ldr	r0, [pc, #164]	(ab8c <_ZN7android22QualcommCameraHardware13setSaturationERKNS_16CameraParametersE+0xe4>)
    aae8:	4632      	mov	r2, r6
    aaea:	4478      	add	r0, pc
    aaec:	3090      	adds	r0, #144
    aaee:	f7fd ffc9 	bl	8a84 <_ZN7android22QualcommCameraHardware7MemPoolD2Ev+0xd4>
    aaf2:	1e42      	subs	r2, r0, #1
    aaf4:	f1b0 0108 	subs.w	r1, r0, #8	; 0x8
    aaf8:	bf18      	it	ne
    aafa:	2101      	movne	r1, #1
    aafc:	2a01      	cmp	r2, #1
    aafe:	bf94      	ite	ls
    ab00:	2100      	movls	r1, #0
    ab02:	f001 0101 	andhi.w	r1, r1, #1	; 0x1
    ab06:	b359      	cbz	r1, ab60 <_ZN7android22QualcommCameraHardware13setSaturationERKNS_16CameraParametersE+0xb8>
    ab08:	2804      	cmp	r0, #4
    ab0a:	d029      	beq.n	ab60 <_ZN7android22QualcommCameraHardware13setSaturationERKNS_16CameraParametersE+0xb8>
    ab0c:	f8df c080 	ldr.w	ip, [pc, #128]	; ab90 <_ZN7android22QualcommCameraHardware13setSaturationERKNS_16CameraParametersE+0xe8>
    ab10:	4638      	mov	r0, r7
    ab12:	f855 500c 	ldr.w	r5, [r5, ip]
    ab16:	4629      	mov	r1, r5
    ab18:	f7fc eefc 	blx	7914 <_ZN7android22QualcommCameraHardware18filterPictureSizesEv-0x3d8>
    ab1c:	280a      	cmp	r0, #10
    ab1e:	4603      	mov	r3, r0
    ab20:	bf88      	it	hi
    ab22:	f04f 4000 	movhi.w	r0, #2147483648	; 0x80000000
    ab26:	d824      	bhi.n	ab72 <_ZN7android22QualcommCameraHardware13setSaturationERKNS_16CameraParametersE+0xca>
    ab28:	491a      	ldr	r1, [pc, #104]	(ab94 <_ZN7android22QualcommCameraHardware13setSaturationERKNS_16CameraParametersE+0xec>)
    ab2a:	2002      	movs	r0, #2
    ab2c:	4a1a      	ldr	r2, [pc, #104]	(ab98 <_ZN7android22QualcommCameraHardware13setSaturationERKNS_16CameraParametersE+0xf0>)
    ab2e:	4479      	add	r1, pc
    ab30:	9301      	str	r3, [sp, #4]
    ab32:	447a      	add	r2, pc
    ab34:	f7fc ee4c 	blx	77d0 <_ZN7android22QualcommCameraHardware18filterPictureSizesEv-0x51c>
    ab38:	4629      	mov	r1, r5
    ab3a:	ad02      	add	r5, sp, #8
    ab3c:	f104 0008 	add.w	r0, r4, #8	; 0x8
    ab40:	f855 2d04 	ldr.w	r2, [r5, #-4]!
    ab44:	f7fc eeec 	blx	7920 <_ZN7android22QualcommCameraHardware18filterPictureSizesEv-0x3cc>
    ab48:	4620      	mov	r0, r4
    ab4a:	210b      	movs	r1, #11
    ab4c:	2204      	movs	r2, #4
    ab4e:	462b      	mov	r3, r5
    ab50:	f7fe fd32 	bl	95b8 <_ZN7android22QualcommCameraHardware15native_set_parmEhtPv>
    ab54:	2800      	cmp	r0, #0
    ab56:	bf0c      	ite	eq
    ab58:	f04f 4000 	moveq.w	r0, #2147483648	; 0x80000000
    ab5c:	2000      	movne	r0, #0
    ab5e:	e008      	b.n	ab72 <_ZN7android22QualcommCameraHardware13setSaturationERKNS_16CameraParametersE+0xca>
    ab60:	490e      	ldr	r1, [pc, #56]	(ab9c <_ZN7android22QualcommCameraHardware13setSaturationERKNS_16CameraParametersE+0xf4>)
    ab62:	2006      	movs	r0, #6
    ab64:	4a0e      	ldr	r2, [pc, #56]	(aba0 <_ZN7android22QualcommCameraHardware13setSaturationERKNS_16CameraParametersE+0xf8>)
    ab66:	4633      	mov	r3, r6
    ab68:	4479      	add	r1, pc
    ab6a:	447a      	add	r2, pc
    ab6c:	f7fc ee30 	blx	77d0 <_ZN7android22QualcommCameraHardware18filterPictureSizesEv-0x51c>
    ab70:	2000      	movs	r0, #0
    ab72:	bdfe      	pop	{r1, r2, r3, r4, r5, r6, r7, pc}
    ab74:	9eae      	ldr	r6, [sp, #696]
    ab76:	0000      	lsls	r0, r0, #0
    ab78:	5caf      	ldrb	r7, [r5, r2]
    ab7a:	0000      	lsls	r0, r0, #0
    ab7c:	9c34      	ldr	r4, [sp, #208]
    ab7e:	0000      	lsls	r0, r0, #0
    ab80:	58c3      	ldr	r3, [r0, r3]
    ab82:	0000      	lsls	r0, r0, #0
    ab84:	68da      	ldr	r2, [r3, #12]
    ab86:	0000      	lsls	r0, r0, #0
    ab88:	fed4 ffff 	mrc2	15, 6, pc, cr4, cr15, {7}
    ab8c:	9692      	str	r6, [sp, #584]
    ab8e:	0000      	lsls	r0, r0, #0
    ab90:	fee8 ffff 	mcr2	15, 7, pc, cr8, cr15, {7}
    ab94:	5861      	ldr	r1, [r4, r1]
    ab96:	0000      	lsls	r0, r0, #0
    ab98:	689f      	ldr	r7, [r3, #8]
    ab9a:	0000      	lsls	r0, r0, #0
    ab9c:	5827      	ldr	r7, [r4, r0]
    ab9e:	0000      	lsls	r0, r0, #0
    aba0:	687d      	ldr	r5, [r7, #4]
	...

0000aba4 <_ZN7android22QualcommCameraHardware11setContrastERKNS_16CameraParametersE>:
    aba4:	4b1f      	ldr	r3, [pc, #124]	(ac24 <_ZN7android22QualcommCameraHardware11setContrastERKNS_16CameraParametersE+0x80>)
    aba6:	b5f7      	push	{r0, r1, r2, r4, r5, r6, r7, lr}
    aba8:	460f      	mov	r7, r1
    abaa:	447b      	add	r3, pc
    abac:	681b      	ldr	r3, [r3, #0]
    abae:	491e      	ldr	r1, [pc, #120]	(ac28 <_ZN7android22QualcommCameraHardware11setContrastERKNS_16CameraParametersE+0x84>)
    abb0:	4604      	mov	r4, r0
    abb2:	4e1e      	ldr	r6, [pc, #120]	(ac2c <_ZN7android22QualcommCameraHardware11setContrastERKNS_16CameraParametersE+0x88>)
    abb4:	4479      	add	r1, pc
    abb6:	6818      	ldr	r0, [r3, #0]
    abb8:	f7fc ee52 	blx	7860 <_ZN7android22QualcommCameraHardware18filterPictureSizesEv-0x48c>
    abbc:	447e      	add	r6, pc
    abbe:	4605      	mov	r5, r0
    abc0:	b940      	cbnz	r0, abd4 <_ZN7android22QualcommCameraHardware11setContrastERKNS_16CameraParametersE+0x30>
    abc2:	491b      	ldr	r1, [pc, #108]	(ac30 <_ZN7android22QualcommCameraHardware11setContrastERKNS_16CameraParametersE+0x8c>)
    abc4:	2006      	movs	r0, #6
    abc6:	4a1b      	ldr	r2, [pc, #108]	(ac34 <_ZN7android22QualcommCameraHardware11setContrastERKNS_16CameraParametersE+0x90>)
    abc8:	4479      	add	r1, pc
    abca:	447a      	add	r2, pc
    abcc:	f7fc ee00 	blx	77d0 <_ZN7android22QualcommCameraHardware18filterPictureSizesEv-0x51c>
    abd0:	4628      	mov	r0, r5
    abd2:	e026      	b.n	ac22 <_ZN7android22QualcommCameraHardware11setContrastERKNS_16CameraParametersE+0x7e>
    abd4:	4818      	ldr	r0, [pc, #96]	(ac38 <_ZN7android22QualcommCameraHardware11setContrastERKNS_16CameraParametersE+0x94>)
    abd6:	5835      	ldr	r5, [r6, r0]
    abd8:	4638      	mov	r0, r7
    abda:	4629      	mov	r1, r5
    abdc:	f7fc ee9a 	blx	7914 <_ZN7android22QualcommCameraHardware18filterPictureSizesEv-0x3d8>
    abe0:	2806      	cmp	r0, #6
    abe2:	4603      	mov	r3, r0
    abe4:	bf88      	it	hi
    abe6:	f04f 4000 	movhi.w	r0, #2147483648	; 0x80000000
    abea:	d81a      	bhi.n	ac22 <_ZN7android22QualcommCameraHardware11setContrastERKNS_16CameraParametersE+0x7e>
    abec:	4913      	ldr	r1, [pc, #76]	(ac3c <_ZN7android22QualcommCameraHardware11setContrastERKNS_16CameraParametersE+0x98>)
    abee:	2002      	movs	r0, #2
    abf0:	4a13      	ldr	r2, [pc, #76]	(ac40 <_ZN7android22QualcommCameraHardware11setContrastERKNS_16CameraParametersE+0x9c>)
    abf2:	4479      	add	r1, pc
    abf4:	9301      	str	r3, [sp, #4]
    abf6:	447a      	add	r2, pc
    abf8:	f7fc edea 	blx	77d0 <_ZN7android22QualcommCameraHardware18filterPictureSizesEv-0x51c>
    abfc:	4629      	mov	r1, r5
    abfe:	ad02      	add	r5, sp, #8
    ac00:	f104 0008 	add.w	r0, r4, #8	; 0x8
    ac04:	f855 2d04 	ldr.w	r2, [r5, #-4]!
    ac08:	f7fc ee8a 	blx	7920 <_ZN7android22QualcommCameraHardware18filterPictureSizesEv-0x3cc>
    ac0c:	4620      	mov	r0, r4
    ac0e:	2106      	movs	r1, #6
    ac10:	2204      	movs	r2, #4
    ac12:	462b      	mov	r3, r5
    ac14:	f7fe fcd0 	bl	95b8 <_ZN7android22QualcommCameraHardware15native_set_parmEhtPv>
    ac18:	2800      	cmp	r0, #0
    ac1a:	bf0c      	ite	eq
    ac1c:	f04f 4000 	moveq.w	r0, #2147483648	; 0x80000000
    ac20:	2000      	movne	r0, #0
    ac22:	bdfe      	pop	{r1, r2, r3, r4, r5, r6, r7, pc}
    ac24:	9db2      	ldr	r5, [sp, #712]
    ac26:	0000      	lsls	r0, r0, #0
    ac28:	5bb3      	ldrh	r3, [r6, r6]
    ac2a:	0000      	lsls	r0, r0, #0
    ac2c:	9b38      	ldr	r3, [sp, #224]
    ac2e:	0000      	lsls	r0, r0, #0
    ac30:	57c7      	ldrsb	r7, [r0, r7]
    ac32:	0000      	lsls	r0, r0, #0
    ac34:	685e      	ldr	r6, [r3, #4]
    ac36:	0000      	lsls	r0, r0, #0
    ac38:	feec ffff 	mcr2	15, 7, pc, cr12, cr15, {7}
    ac3c:	579d      	ldrsb	r5, [r3, r6]
    ac3e:	0000      	lsls	r0, r0, #0
    ac40:	6859      	ldr	r1, [r3, #4]
	...

0000ac44 <_ZN7android22QualcommCameraHardware12setSharpnessERKNS_16CameraParametersE>:
    ac44:	4b1f      	ldr	r3, [pc, #124]	(acc4 <_ZN7android22QualcommCameraHardware12setSharpnessERKNS_16CameraParametersE+0x80>)
    ac46:	b5f7      	push	{r0, r1, r2, r4, r5, r6, r7, lr}
    ac48:	460f      	mov	r7, r1
    ac4a:	447b      	add	r3, pc
    ac4c:	681b      	ldr	r3, [r3, #0]
    ac4e:	491e      	ldr	r1, [pc, #120]	(acc8 <_ZN7android22QualcommCameraHardware12setSharpnessERKNS_16CameraParametersE+0x84>)
    ac50:	4604      	mov	r4, r0
    ac52:	4e1e      	ldr	r6, [pc, #120]	(accc <_ZN7android22QualcommCameraHardware12setSharpnessERKNS_16CameraParametersE+0x88>)
    ac54:	4479      	add	r1, pc
    ac56:	6818      	ldr	r0, [r3, #0]
    ac58:	f7fc ee02 	blx	7860 <_ZN7android22QualcommCameraHardware18filterPictureSizesEv-0x48c>
    ac5c:	447e      	add	r6, pc
    ac5e:	4605      	mov	r5, r0
    ac60:	b940      	cbnz	r0, ac74 <_ZN7android22QualcommCameraHardware12setSharpnessERKNS_16CameraParametersE+0x30>
    ac62:	491b      	ldr	r1, [pc, #108]	(acd0 <_ZN7android22QualcommCameraHardware12setSharpnessERKNS_16CameraParametersE+0x8c>)
    ac64:	2006      	movs	r0, #6
    ac66:	4a1b      	ldr	r2, [pc, #108]	(acd4 <_ZN7android22QualcommCameraHardware12setSharpnessERKNS_16CameraParametersE+0x90>)
    ac68:	4479      	add	r1, pc
    ac6a:	447a      	add	r2, pc
    ac6c:	f7fc edb0 	blx	77d0 <_ZN7android22QualcommCameraHardware18filterPictureSizesEv-0x51c>
    ac70:	4628      	mov	r0, r5
    ac72:	e026      	b.n	acc2 <_ZN7android22QualcommCameraHardware12setSharpnessERKNS_16CameraParametersE+0x7e>
    ac74:	4818      	ldr	r0, [pc, #96]	(acd8 <_ZN7android22QualcommCameraHardware12setSharpnessERKNS_16CameraParametersE+0x94>)
    ac76:	5835      	ldr	r5, [r6, r0]
    ac78:	4638      	mov	r0, r7
    ac7a:	4629      	mov	r1, r5
    ac7c:	f7fc ee4a 	blx	7914 <_ZN7android22QualcommCameraHardware18filterPictureSizesEv-0x3d8>
    ac80:	280a      	cmp	r0, #10
    ac82:	4603      	mov	r3, r0
    ac84:	bf88      	it	hi
    ac86:	f04f 4000 	movhi.w	r0, #2147483648	; 0x80000000
    ac8a:	d81a      	bhi.n	acc2 <_ZN7android22QualcommCameraHardware12setSharpnessERKNS_16CameraParametersE+0x7e>
    ac8c:	4913      	ldr	r1, [pc, #76]	(acdc <_ZN7android22QualcommCameraHardware12setSharpnessERKNS_16CameraParametersE+0x98>)
    ac8e:	2002      	movs	r0, #2
    ac90:	4a13      	ldr	r2, [pc, #76]	(ace0 <_ZN7android22QualcommCameraHardware12setSharpnessERKNS_16CameraParametersE+0x9c>)
    ac92:	4479      	add	r1, pc
    ac94:	9301      	str	r3, [sp, #4]
    ac96:	447a      	add	r2, pc
    ac98:	f7fc ed9a 	blx	77d0 <_ZN7android22QualcommCameraHardware18filterPictureSizesEv-0x51c>
    ac9c:	4629      	mov	r1, r5
    ac9e:	ad02      	add	r5, sp, #8
    aca0:	f104 0008 	add.w	r0, r4, #8	; 0x8
    aca4:	f855 2d04 	ldr.w	r2, [r5, #-4]!
    aca8:	f7fc ee3a 	blx	7920 <_ZN7android22QualcommCameraHardware18filterPictureSizesEv-0x3cc>
    acac:	4620      	mov	r0, r4
    acae:	2109      	movs	r1, #9
    acb0:	2204      	movs	r2, #4
    acb2:	462b      	mov	r3, r5
    acb4:	f7fe fc80 	bl	95b8 <_ZN7android22QualcommCameraHardware15native_set_parmEhtPv>
    acb8:	2800      	cmp	r0, #0
    acba:	bf0c      	ite	eq
    acbc:	f04f 4000 	moveq.w	r0, #2147483648	; 0x80000000
    acc0:	2000      	movne	r0, #0
    acc2:	bdfe      	pop	{r1, r2, r3, r4, r5, r6, r7, pc}
    acc4:	9d12      	ldr	r5, [sp, #72]
    acc6:	0000      	lsls	r0, r0, #0
    acc8:	5b13      	ldrh	r3, [r2, r4]
    acca:	0000      	lsls	r0, r0, #0
    accc:	9a98      	ldr	r2, [sp, #608]
    acce:	0000      	lsls	r0, r0, #0
    acd0:	5727      	ldrsb	r7, [r4, r4]
    acd2:	0000      	lsls	r0, r0, #0
    acd4:	67f9      	str	r1, [r7, #124]
    acd6:	0000      	lsls	r0, r0, #0
    acd8:	fef0 ffff 	mrc2	15, 7, pc, cr0, cr15, {7}
    acdc:	56fd      	ldrsb	r5, [r7, r3]
    acde:	0000      	lsls	r0, r0, #0
    ace0:	67f5      	str	r5, [r6, #124]
	...

0000ace4 <_ZN7android22QualcommCameraHardware14setJpegQualityERKNS_16CameraParametersE>:
    ace4:	e92d 41f0 	stmdb	sp!, {r4, r5, r6, r7, r8, lr}
    ace8:	4c1d      	ldr	r4, [pc, #116]	(ad60 <_ZN7android22QualcommCameraHardware14setJpegQualityERKNS_16CameraParametersE+0x7c>)
    acea:	4b1e      	ldr	r3, [pc, #120]	(ad64 <_ZN7android22QualcommCameraHardware14setJpegQualityERKNS_16CameraParametersE+0x80>)
    acec:	4605      	mov	r5, r0
    acee:	447c      	add	r4, pc
    acf0:	4608      	mov	r0, r1
    acf2:	460e      	mov	r6, r1
    acf4:	58e7      	ldr	r7, [r4, r3]
    acf6:	4639      	mov	r1, r7
    acf8:	f7fc ee0c 	blx	7914 <_ZN7android22QualcommCameraHardware18filterPictureSizesEv-0x3d8>
    acfc:	1e42      	subs	r2, r0, #1
    acfe:	4603      	mov	r3, r0
    ad00:	2a63      	cmp	r2, #99
    ad02:	d807      	bhi.n	ad14 <_ZN7android22QualcommCameraHardware14setJpegQualityERKNS_16CameraParametersE+0x30>
    ad04:	4639      	mov	r1, r7
    ad06:	f105 0008 	add.w	r0, r5, #8	; 0x8
    ad0a:	461a      	mov	r2, r3
    ad0c:	2700      	movs	r7, #0
    ad0e:	f7fc ee08 	blx	7920 <_ZN7android22QualcommCameraHardware18filterPictureSizesEv-0x3cc>
    ad12:	e008      	b.n	ad26 <_ZN7android22QualcommCameraHardware14setJpegQualityERKNS_16CameraParametersE+0x42>
    ad14:	4914      	ldr	r1, [pc, #80]	(ad68 <_ZN7android22QualcommCameraHardware14setJpegQualityERKNS_16CameraParametersE+0x84>)
    ad16:	2006      	movs	r0, #6
    ad18:	4a14      	ldr	r2, [pc, #80]	(ad6c <_ZN7android22QualcommCameraHardware14setJpegQualityERKNS_16CameraParametersE+0x88>)
    ad1a:	f06f 0715 	mvn.w	r7, #21	; 0x15
    ad1e:	4479      	add	r1, pc
    ad20:	447a      	add	r2, pc
    ad22:	f7fc ed56 	blx	77d0 <_ZN7android22QualcommCameraHardware18filterPictureSizesEv-0x51c>
    ad26:	4912      	ldr	r1, [pc, #72]	(ad70 <_ZN7android22QualcommCameraHardware14setJpegQualityERKNS_16CameraParametersE+0x8c>)
    ad28:	4630      	mov	r0, r6
    ad2a:	5864      	ldr	r4, [r4, r1]
    ad2c:	4621      	mov	r1, r4
    ad2e:	f7fc edf2 	blx	7914 <_ZN7android22QualcommCameraHardware18filterPictureSizesEv-0x3d8>
    ad32:	4603      	mov	r3, r0
    ad34:	3801      	subs	r0, #1
    ad36:	2863      	cmp	r0, #99
    ad38:	d806      	bhi.n	ad48 <_ZN7android22QualcommCameraHardware14setJpegQualityERKNS_16CameraParametersE+0x64>
    ad3a:	f105 0008 	add.w	r0, r5, #8	; 0x8
    ad3e:	4621      	mov	r1, r4
    ad40:	461a      	mov	r2, r3
    ad42:	f7fc edee 	blx	7920 <_ZN7android22QualcommCameraHardware18filterPictureSizesEv-0x3cc>
    ad46:	e008      	b.n	ad5a <_ZN7android22QualcommCameraHardware14setJpegQualityERKNS_16CameraParametersE+0x76>
    ad48:	490a      	ldr	r1, [pc, #40]	(ad74 <_ZN7android22QualcommCameraHardware14setJpegQualityERKNS_16CameraParametersE+0x90>)
    ad4a:	2006      	movs	r0, #6
    ad4c:	4a0a      	ldr	r2, [pc, #40]	(ad78 <_ZN7android22QualcommCameraHardware14setJpegQualityERKNS_16CameraParametersE+0x94>)
    ad4e:	f06f 0715 	mvn.w	r7, #21	; 0x15
    ad52:	4479      	add	r1, pc
    ad54:	447a      	add	r2, pc
    ad56:	f7fc ed3c 	blx	77d0 <_ZN7android22QualcommCameraHardware18filterPictureSizesEv-0x51c>
    ad5a:	4638      	mov	r0, r7
    ad5c:	e8bd 81f0 	ldmia.w	sp!, {r4, r5, r6, r7, r8, pc}
    ad60:	9a06      	ldr	r2, [sp, #24]
    ad62:	0000      	lsls	r0, r0, #0
    ad64:	fef4 ffff 	mrc2	15, 7, pc, cr4, cr15, {7}
    ad68:	5671      	ldrsb	r1, [r6, r1]
    ad6a:	0000      	lsls	r0, r0, #0
    ad6c:	6780      	str	r0, [r0, #120]
    ad6e:	0000      	lsls	r0, r0, #0
    ad70:	fef8 ffff 	mrc2	15, 7, pc, cr8, cr15, {7}
    ad74:	563d      	ldrsb	r5, [r7, r0]
    ad76:	0000      	lsls	r0, r0, #0
    ad78:	6764      	str	r4, [r4, #116]
	...

0000ad7c <_ZN7android22QualcommCameraHardware7initRawEb>:
    ad7c:	e92d 4ff0 	stmdb	sp!, {r4, r5, r6, r7, r8, r9, sl, fp, lr}
    ad80:	b08b      	sub	sp, #44
    ad82:	aa08      	add	r2, sp, #32
    ad84:	4604      	mov	r4, r0
    ad86:	468b      	mov	fp, r1
    ad88:	f100 0008 	add.w	r0, r0, #8	; 0x8
    ad8c:	a909      	add	r1, sp, #36
    ad8e:	f7fc edce 	blx	792c <_ZN7android22QualcommCameraHardware18filterPictureSizesEv-0x3c0>
    ad92:	9b08      	ldr	r3, [sp, #32]
    ad94:	49b0      	ldr	r1, [pc, #704]	(b058 <_ZN7android22QualcommCameraHardware7initRawEb+0x2dc>)
    ad96:	2002      	movs	r0, #2
    ad98:	4ab0      	ldr	r2, [pc, #704]	(b05c <_ZN7android22QualcommCameraHardware7initRawEb+0x2e0>)
    ad9a:	4479      	add	r1, pc
    ad9c:	9300      	str	r3, [sp, #0]
    ad9e:	447a      	add	r2, pc
    ada0:	9b09      	ldr	r3, [sp, #36]
    ada2:	f7fc ed16 	blx	77d0 <_ZN7android22QualcommCameraHardware18filterPictureSizesEv-0x51c>
    ada6:	9908      	ldr	r1, [sp, #32]
    ada8:	9809      	ldr	r0, [sp, #36]
    adaa:	f5b1 7f90 	cmp.w	r1, #288	; 0x120
    adae:	dd34      	ble.n	ae1a <_ZN7android22QualcommCameraHardware7initRawEb+0x9e>
    adb0:	f44f 7290 	mov.w	r2, #288	; 0x120
    adb4:	0300      	lsls	r0, r0, #12
    adb6:	f44f 75d8 	mov.w	r5, #432	; 0x1b0
    adba:	f8a4 2112 	strh.w	r2, [r4, #274]
    adbe:	f8a4 5114 	strh.w	r5, [r4, #276]
    adc2:	f7fc ecca 	blx	7758 <_ZN7android22QualcommCameraHardware18filterPictureSizesEv-0x594>
    adc6:	f641 4171 	movw	r1, #7281	; 0x1c71
    adca:	4288      	cmp	r0, r1
    adcc:	d101      	bne.n	add2 <_ZN7android22QualcommCameraHardware7initRawEb+0x56>
    adce:	2300      	movs	r3, #0
    add0:	e015      	b.n	adfe <_ZN7android22QualcommCameraHardware7initRawEb+0x82>
    add2:	f641 26aa 	movw	r6, #6826	; 0x1aaa
    add6:	42b0      	cmp	r0, r6
    add8:	d101      	bne.n	adde <_ZN7android22QualcommCameraHardware7initRawEb+0x62>
    adda:	2301      	movs	r3, #1
    addc:	e00f      	b.n	adfe <_ZN7android22QualcommCameraHardware7initRawEb+0x82>
    adde:	f5b0 5fc0 	cmp.w	r0, #6144	; 0x1800
    ade2:	d101      	bne.n	ade8 <_ZN7android22QualcommCameraHardware7initRawEb+0x6c>
    ade4:	2302      	movs	r3, #2
    ade6:	e00a      	b.n	adfe <_ZN7android22QualcommCameraHardware7initRawEb+0x82>
    ade8:	f241 5a55 	movw	sl, #5461	; 0x1555
    adec:	4550      	cmp	r0, sl
    adee:	d101      	bne.n	adf4 <_ZN7android22QualcommCameraHardware7initRawEb+0x78>
    adf0:	2303      	movs	r3, #3
    adf2:	e004      	b.n	adfe <_ZN7android22QualcommCameraHardware7initRawEb+0x82>
    adf4:	f241 3c8e 	movw	ip, #5006	; 0x138e
    adf8:	4560      	cmp	r0, ip
    adfa:	d117      	bne.n	ae2c <_ZN7android22QualcommCameraHardware7initRawEb+0xb0>
    adfc:	2304      	movs	r3, #4
    adfe:	4a98      	ldr	r2, [pc, #608]	(b060 <_ZN7android22QualcommCameraHardware7initRawEb+0x2e4>)
    ae00:	250c      	movs	r5, #12
    ae02:	447a      	add	r2, pc
    ae04:	fb05 2e03 	mla	lr, r5, r3, r2
    ae08:	f8be 1108 	ldrh.w	r1, [lr, #264]
    ae0c:	f8be 010c 	ldrh.w	r0, [lr, #268]
    ae10:	f8a4 1114 	strh.w	r1, [r4, #276]
    ae14:	f8a4 0112 	strh.w	r0, [r4, #274]
    ae18:	e008      	b.n	ae2c <_ZN7android22QualcommCameraHardware7initRawEb+0xb0>
    ae1a:	2390      	movs	r3, #144
    ae1c:	f8a4 3112 	strh.w	r3, [r4, #274]
    ae20:	fb03 f000 	mul.w	r0, r3, r0
    ae24:	f7fc ec98 	blx	7758 <_ZN7android22QualcommCameraHardware18filterPictureSizesEv-0x594>
    ae28:	f8a4 0114 	strh.w	r0, [r4, #276]
    ae2c:	f8b4 1112 	ldrh.w	r1, [r4, #274]
    ae30:	2002      	movs	r0, #2
    ae32:	4d8c      	ldr	r5, [pc, #560]	(b064 <_ZN7android22QualcommCameraHardware7initRawEb+0x2e8>)
    ae34:	4a8c      	ldr	r2, [pc, #560]	(b068 <_ZN7android22QualcommCameraHardware7initRawEb+0x2ec>)
    ae36:	447d      	add	r5, pc
    ae38:	f8b4 3114 	ldrh.w	r3, [r4, #276]
    ae3c:	447a      	add	r2, pc
    ae3e:	9100      	str	r1, [sp, #0]
    ae40:	4629      	mov	r1, r5
    ae42:	f7fc ecc6 	blx	77d0 <_ZN7android22QualcommCameraHardware18filterPictureSizesEv-0x51c>
    ae46:	f8b4 0114 	ldrh.w	r0, [r4, #276]
    ae4a:	f504 7381 	add.w	r3, r4, #258	; 0x102
    ae4e:	2101      	movs	r1, #1
    ae50:	2220      	movs	r2, #32
    ae52:	9007      	str	r0, [sp, #28]
    ae54:	4620      	mov	r0, r4
    ae56:	f8b4 6112 	ldrh.w	r6, [r4, #274]
    ae5a:	9606      	str	r6, [sp, #24]
    ae5c:	f7fe fbac 	bl	95b8 <_ZN7android22QualcommCameraHardware15native_set_parmEhtPv>
    ae60:	4606      	mov	r6, r0
    ae62:	b938      	cbnz	r0, ae74 <_ZN7android22QualcommCameraHardware7initRawEb+0xf8>
    ae64:	4a81      	ldr	r2, [pc, #516]	(b06c <_ZN7android22QualcommCameraHardware7initRawEb+0x2f0>)
    ae66:	2006      	movs	r0, #6
    ae68:	4629      	mov	r1, r5
    ae6a:	46b2      	mov	sl, r6
    ae6c:	447a      	add	r2, pc
    ae6e:	f7fc ecb0 	blx	77d0 <_ZN7android22QualcommCameraHardware18filterPictureSizesEv-0x51c>
    ae72:	e0ec      	b.n	b04e <_ZN7android22QualcommCameraHardware7initRawEb+0x2d2>
    ae74:	6c67      	ldr	r7, [r4, #68]
    ae76:	b14f      	cbz	r7, ae8c <_ZN7android22QualcommCameraHardware7initRawEb+0x110>
    ae78:	4a7d      	ldr	r2, [pc, #500]	(b070 <_ZN7android22QualcommCameraHardware7initRawEb+0x2f4>)
    ae7a:	2002      	movs	r0, #2
    ae7c:	4629      	mov	r1, r5
    ae7e:	447a      	add	r2, pc
    ae80:	f7fc eca6 	blx	77d0 <_ZN7android22QualcommCameraHardware18filterPictureSizesEv-0x51c>
    ae84:	f104 0044 	add.w	r0, r4, #68	; 0x44
    ae88:	f7fd fa26 	bl	82d8 <_ZN7android2spINS_22QualcommCameraHardware10AshmemPoolEE5clearEv>
    ae8c:	9809      	ldr	r0, [sp, #36]
    ae8e:	2203      	movs	r2, #3
    ae90:	9908      	ldr	r1, [sp, #32]
    ae92:	4d78      	ldr	r5, [pc, #480]	(b074 <_ZN7android22QualcommCameraHardware7initRawEb+0x2f8>)
    ae94:	fb01 f900 	mul.w	r9, r1, r0
    ae98:	fb02 f809 	mul.w	r8, r2, r9
    ae9c:	eb08 76d8 	add.w	r6, r8, r8, lsr #31
    aea0:	1073      	asrs	r3, r6, #1
    aea2:	f8c4 30d0 	str.w	r3, [r4, #208]
    aea6:	447d      	add	r5, pc
    aea8:	682d      	ldr	r5, [r5, #0]
    aeaa:	2d01      	cmp	r5, #1
    aeac:	bf18      	it	ne
    aeae:	f8c4 30d4 	strne.w	r3, [r4, #212]
    aeb2:	d10a      	bne.n	aeca <_ZN7android22QualcommCameraHardware7initRawEb+0x14e>
    aeb4:	f020 0e0f 	bic.w	lr, r0, #15	; 0xf
    aeb8:	f021 0c0f 	bic.w	ip, r1, #15	; 0xf
    aebc:	fb0c fa0e 	mul.w	sl, ip, lr
    aec0:	fb02 f00a 	mul.w	r0, r2, sl
    aec4:	0842      	lsrs	r2, r0, #1
    aec6:	f8c4 20d4 	str.w	r2, [r4, #212]
    aeca:	4d6b      	ldr	r5, [pc, #428]	(b078 <_ZN7android22QualcommCameraHardware7initRawEb+0x2fc>)
    aecc:	2002      	movs	r0, #2
    aece:	4a6b      	ldr	r2, [pc, #428]	(b07c <_ZN7android22QualcommCameraHardware7initRawEb+0x300>)
    aed0:	f04f 0801 	mov.w	r8, #1	; 0x1
    aed4:	447d      	add	r5, pc
    aed6:	4f6a      	ldr	r7, [pc, #424]	(b080 <_ZN7android22QualcommCameraHardware7initRawEb+0x304>)
    aed8:	447a      	add	r2, pc
    aeda:	4629      	mov	r1, r5
    aedc:	f7fc ec78 	blx	77d0 <_ZN7android22QualcommCameraHardware18filterPictureSizesEv-0x51c>
    aee0:	203c      	movs	r0, #60
    aee2:	f7fc ece2 	blx	78a8 <_ZN7android22QualcommCameraHardware18filterPictureSizesEv-0x444>
    aee6:	4967      	ldr	r1, [pc, #412]	(b084 <_ZN7android22QualcommCameraHardware7initRawEb+0x308>)
    aee8:	447f      	add	r7, pc
    aeea:	f104 063c 	add.w	r6, r4, #60	; 0x3c
    aeee:	4479      	add	r1, pc
    aef0:	4681      	mov	r9, r0
    aef2:	2004      	movs	r0, #4
    aef4:	9000      	str	r0, [sp, #0]
    aef6:	4648      	mov	r0, r9
    aef8:	f8d4 20d4 	ldr.w	r2, [r4, #212]
    aefc:	f8cd 8008 	str.w	r8, [sp, #8]
    af00:	9201      	str	r2, [sp, #4]
    af02:	f240 2201 	movw	r2, #513	; 0x201
    af06:	f8d4 30d0 	ldr.w	r3, [r4, #208]
    af0a:	9104      	str	r1, [sp, #16]
    af0c:	4639      	mov	r1, r7
    af0e:	9303      	str	r3, [sp, #12]
    af10:	f8d4 30dc 	ldr.w	r3, [r4, #220]
    af14:	f7fe fc88 	bl	9828 <_ZN7android22QualcommCameraHardware8PmemPoolC1EPKciiiiiiS3_>
    af18:	4649      	mov	r1, r9
    af1a:	4630      	mov	r0, r6
    af1c:	f7fd fa06 	bl	832c <_ZN7android2spINS_22QualcommCameraHardware8PmemPoolEEaSEPS2_>
    af20:	6be0      	ldr	r0, [r4, #60]
    af22:	f7fc fed5 	bl	7cd0 <_ZN7android22QualcommCameraHardware18filterPictureSizesEv-0x1c>
    af26:	4682      	mov	sl, r0
    af28:	b958      	cbnz	r0, af42 <_ZN7android22QualcommCameraHardware7initRawEb+0x1c6>
    af2a:	4a57      	ldr	r2, [pc, #348]	(b088 <_ZN7android22QualcommCameraHardware7initRawEb+0x30c>)
    af2c:	4629      	mov	r1, r5
    af2e:	2006      	movs	r0, #6
    af30:	447a      	add	r2, pc
    af32:	f7fc ec4e 	blx	77d0 <_ZN7android22QualcommCameraHardware18filterPictureSizesEv-0x51c>
    af36:	4630      	mov	r0, r6
    af38:	f7fd fa08 	bl	834c <_ZN7android2spINS_22QualcommCameraHardware8PmemPoolEE5clearEv>
    af3c:	4a53      	ldr	r2, [pc, #332]	(b08c <_ZN7android22QualcommCameraHardware7initRawEb+0x310>)
    af3e:	447a      	add	r2, pc
    af40:	e03f      	b.n	afc2 <_ZN7android22QualcommCameraHardware7initRawEb+0x246>
    af42:	6be3      	ldr	r3, [r4, #60]
    af44:	6999      	ldr	r1, [r3, #24]
    af46:	680a      	ldr	r2, [r1, #0]
    af48:	f852 0c0c 	ldr.w	r0, [r2, #-12]
    af4c:	1808      	adds	r0, r1, r0
    af4e:	f7fc feb3 	bl	7cb8 <_ZN7android22QualcommCameraHardware18filterPictureSizesEv-0x34>
    af52:	6be2      	ldr	r2, [r4, #60]
    af54:	4681      	mov	r9, r0
    af56:	6990      	ldr	r0, [r2, #24]
    af58:	6803      	ldr	r3, [r0, #0]
    af5a:	6899      	ldr	r1, [r3, #8]
    af5c:	4788      	blx	r1
    af5e:	4a4c      	ldr	r2, [pc, #304]	(b090 <_ZN7android22QualcommCameraHardware7initRawEb+0x314>)
    af60:	4629      	mov	r1, r5
    af62:	464b      	mov	r3, r9
    af64:	447a      	add	r2, pc
    af66:	9000      	str	r0, [sp, #0]
    af68:	2002      	movs	r0, #2
    af6a:	f7fc ec32 	blx	77d0 <_ZN7android22QualcommCameraHardware18filterPictureSizesEv-0x51c>
    af6e:	f1bb 0f00 	cmp.w	fp, #0	; 0x0
    af72:	d063      	beq.n	b03c <_ZN7android22QualcommCameraHardware7initRawEb+0x2c0>
    af74:	4a47      	ldr	r2, [pc, #284]	(b094 <_ZN7android22QualcommCameraHardware7initRawEb+0x318>)
    af76:	4629      	mov	r1, r5
    af78:	2002      	movs	r0, #2
    af7a:	f104 0944 	add.w	r9, r4, #68	; 0x44
    af7e:	447a      	add	r2, pc
    af80:	f7fc ec26 	blx	77d0 <_ZN7android22QualcommCameraHardware18filterPictureSizesEv-0x51c>
    af84:	2024      	movs	r0, #36
    af86:	f7fc ec90 	blx	78a8 <_ZN7android22QualcommCameraHardware18filterPictureSizesEv-0x444>
    af8a:	4642      	mov	r2, r8
    af8c:	2300      	movs	r3, #0
    af8e:	4682      	mov	sl, r0
    af90:	4841      	ldr	r0, [pc, #260]	(b098 <_ZN7android22QualcommCameraHardware7initRawEb+0x31c>)
    af92:	4478      	add	r0, pc
    af94:	9000      	str	r0, [sp, #0]
    af96:	4650      	mov	r0, sl
    af98:	f8d4 10d4 	ldr.w	r1, [r4, #212]
    af9c:	f7fe ffb0 	bl	9f00 <_ZN7android22QualcommCameraHardware10AshmemPoolC1EiiiPKc>
    afa0:	4651      	mov	r1, sl
    afa2:	4648      	mov	r0, r9
    afa4:	f7fd f9a2 	bl	82ec <_ZN7android2spINS_22QualcommCameraHardware10AshmemPoolEEaSEPS2_>
    afa8:	6c60      	ldr	r0, [r4, #68]
    afaa:	f7fc fe91 	bl	7cd0 <_ZN7android22QualcommCameraHardware18filterPictureSizesEv-0x1c>
    afae:	4682      	mov	sl, r0
    afb0:	b960      	cbnz	r0, afcc <_ZN7android22QualcommCameraHardware7initRawEb+0x250>
    afb2:	4648      	mov	r0, r9
    afb4:	f7fd f990 	bl	82d8 <_ZN7android2spINS_22QualcommCameraHardware10AshmemPoolEE5clearEv>
    afb8:	4630      	mov	r0, r6
    afba:	f7fd f9c7 	bl	834c <_ZN7android2spINS_22QualcommCameraHardware8PmemPoolEE5clearEv>
    afbe:	4a37      	ldr	r2, [pc, #220]	(b09c <_ZN7android22QualcommCameraHardware7initRawEb+0x320>)
    afc0:	447a      	add	r2, pc
    afc2:	2006      	movs	r0, #6
    afc4:	4629      	mov	r1, r5
    afc6:	f7fc ec04 	blx	77d0 <_ZN7android22QualcommCameraHardware18filterPictureSizesEv-0x51c>
    afca:	e040      	b.n	b04e <_ZN7android22QualcommCameraHardware7initRawEb+0x2d2>
    afcc:	203c      	movs	r0, #60
    afce:	f104 0b38 	add.w	fp, r4, #56	; 0x38
    afd2:	f7fc ec6a 	blx	78a8 <_ZN7android22QualcommCameraHardware18filterPictureSizesEv-0x444>
    afd6:	9906      	ldr	r1, [sp, #24]
    afd8:	9a07      	ldr	r2, [sp, #28]
    afda:	f8cd 8008 	str.w	r8, [sp, #8]
    afde:	fb01 fc02 	mul.w	ip, r1, r2
    afe2:	2203      	movs	r2, #3
    afe4:	492e      	ldr	r1, [pc, #184]	(b0a0 <_ZN7android22QualcommCameraHardware7initRawEb+0x324>)
    afe6:	9200      	str	r2, [sp, #0]
    afe8:	4479      	add	r1, pc
    afea:	9104      	str	r1, [sp, #16]
    afec:	4639      	mov	r1, r7
    afee:	4682      	mov	sl, r0
    aff0:	fb02 f00c 	mul.w	r0, r2, ip
    aff4:	f502 72ff 	add.w	r2, r2, #510	; 0x1fe
    aff8:	1043      	asrs	r3, r0, #1
    affa:	4650      	mov	r0, sl
    affc:	9301      	str	r3, [sp, #4]
    affe:	9303      	str	r3, [sp, #12]
    b000:	f8d4 30dc 	ldr.w	r3, [r4, #220]
    b004:	f7fe fc10 	bl	9828 <_ZN7android22QualcommCameraHardware8PmemPoolC1EPKciiiiiiS3_>
    b008:	4651      	mov	r1, sl
    b00a:	4658      	mov	r0, fp
    b00c:	f7fd f98e 	bl	832c <_ZN7android2spINS_22QualcommCameraHardware8PmemPoolEEaSEPS2_>
    b010:	6ba0      	ldr	r0, [r4, #56]
    b012:	f7fc fe5d 	bl	7cd0 <_ZN7android22QualcommCameraHardware18filterPictureSizesEv-0x1c>
    b016:	4604      	mov	r4, r0
    b018:	b980      	cbnz	r0, b03c <_ZN7android22QualcommCameraHardware7initRawEb+0x2c0>
    b01a:	4658      	mov	r0, fp
    b01c:	46a2      	mov	sl, r4
    b01e:	f7fd f995 	bl	834c <_ZN7android2spINS_22QualcommCameraHardware8PmemPoolEE5clearEv>
    b022:	4648      	mov	r0, r9
    b024:	f7fd f958 	bl	82d8 <_ZN7android2spINS_22QualcommCameraHardware10AshmemPoolEE5clearEv>
    b028:	4630      	mov	r0, r6
    b02a:	f7fd f98f 	bl	834c <_ZN7android2spINS_22QualcommCameraHardware8PmemPoolEE5clearEv>
    b02e:	4a1d      	ldr	r2, [pc, #116]	(b0a4 <_ZN7android22QualcommCameraHardware7initRawEb+0x328>)
    b030:	2006      	movs	r0, #6
    b032:	4629      	mov	r1, r5
    b034:	447a      	add	r2, pc
    b036:	f7fc ebcc 	blx	77d0 <_ZN7android22QualcommCameraHardware18filterPictureSizesEv-0x51c>
    b03a:	e008      	b.n	b04e <_ZN7android22QualcommCameraHardware7initRawEb+0x2d2>
    b03c:	491a      	ldr	r1, [pc, #104]	(b0a8 <_ZN7android22QualcommCameraHardware7initRawEb+0x32c>)
    b03e:	2002      	movs	r0, #2
    b040:	4a1a      	ldr	r2, [pc, #104]	(b0ac <_ZN7android22QualcommCameraHardware7initRawEb+0x330>)
    b042:	f04f 0a01 	mov.w	sl, #1	; 0x1
    b046:	4479      	add	r1, pc
    b048:	447a      	add	r2, pc
    b04a:	f7fc ebc2 	blx	77d0 <_ZN7android22QualcommCameraHardware18filterPictureSizesEv-0x51c>
    b04e:	4650      	mov	r0, sl
    b050:	b00b      	add	sp, #44
    b052:	e8bd 8ff0 	ldmia.w	sp!, {r4, r5, r6, r7, r8, r9, sl, fp, pc}
    b056:	bf00      	nop
    b058:	55f5      	strb	r5, [r6, r7]
    b05a:	0000      	lsls	r0, r0, #0
    b05c:	673c      	str	r4, [r7, #112]
    b05e:	0000      	lsls	r0, r0, #0
    b060:	542a      	strb	r2, [r5, r0]
    b062:	0000      	lsls	r0, r0, #0
    b064:	5559      	strb	r1, [r3, r5]
    b066:	0000      	lsls	r0, r0, #0
    b068:	66bc      	str	r4, [r7, #104]
    b06a:	0000      	lsls	r0, r0, #0
    b06c:	66ae      	str	r6, [r5, #104]
    b06e:	0000      	lsls	r0, r0, #0
    b070:	66bf      	str	r7, [r7, #104]
    b072:	0000      	lsls	r0, r0, #0
    b074:	9a1e      	ldr	r2, [sp, #120]
    b076:	0000      	lsls	r0, r0, #0
    b078:	54bb      	strb	r3, [r7, r2]
    b07a:	0000      	lsls	r0, r0, #0
    b07c:	6686      	str	r6, [r0, #104]
    b07e:	0000      	lsls	r0, r0, #0
    b080:	602b      	str	r3, [r5, #0]
    b082:	0000      	lsls	r0, r0, #0
    b084:	6690      	str	r0, [r2, #104]
    b086:	0000      	lsls	r0, r0, #0
    b088:	665e      	str	r6, [r3, #100]
    b08a:	0000      	lsls	r0, r0, #0
    b08c:	6662      	str	r2, [r4, #100]
    b08e:	0000      	lsls	r0, r0, #0
    b090:	6663      	str	r3, [r4, #100]
    b092:	0000      	lsls	r0, r0, #0
    b094:	6672      	str	r2, [r6, #100]
    b096:	0000      	lsls	r0, r0, #0
    b098:	667f      	str	r7, [r7, #100]
    b09a:	0000      	lsls	r0, r0, #0
    b09c:	6656      	str	r6, [r2, #100]
    b09e:	0000      	lsls	r0, r0, #0
    b0a0:	665e      	str	r6, [r3, #100]
    b0a2:	0000      	lsls	r0, r0, #0
    b0a4:	661c      	str	r4, [r3, #96]
    b0a6:	0000      	lsls	r0, r0, #0
    b0a8:	5349      	strh	r1, [r1, r5]
    b0aa:	0000      	lsls	r0, r0, #0
    b0ac:	663d      	str	r5, [r7, #96]
	...

0000b0b0 <_ZN7android22QualcommCameraHardware14setPictureSizeERKNS_16CameraParametersE>:
    b0b0:	b5f0      	push	{r4, r5, r6, r7, lr}
    b0b2:	b085      	sub	sp, #20
    b0b4:	aa02      	add	r2, sp, #8
    b0b6:	4604      	mov	r4, r0
    b0b8:	4608      	mov	r0, r1
    b0ba:	a903      	add	r1, sp, #12
    b0bc:	f7fc ec36 	blx	792c <_ZN7android22QualcommCameraHardware18filterPictureSizesEv-0x3c0>
    b0c0:	9802      	ldr	r0, [sp, #8]
    b0c2:	4928      	ldr	r1, [pc, #160]	(b164 <_ZN7android22QualcommCameraHardware14setPictureSizeERKNS_16CameraParametersE+0xb4>)
    b0c4:	4a28      	ldr	r2, [pc, #160]	(b168 <_ZN7android22QualcommCameraHardware14setPictureSizeERKNS_16CameraParametersE+0xb8>)
    b0c6:	4479      	add	r1, pc
    b0c8:	9000      	str	r0, [sp, #0]
    b0ca:	447a      	add	r2, pc
    b0cc:	9b03      	ldr	r3, [sp, #12]
    b0ce:	2002      	movs	r0, #2
    b0d0:	f7fc eb7e 	blx	77d0 <_ZN7android22QualcommCameraHardware18filterPictureSizesEv-0x51c>
    b0d4:	4b25      	ldr	r3, [pc, #148]	(b16c <_ZN7android22QualcommCameraHardware14setPictureSizeERKNS_16CameraParametersE+0xbc>)
    b0d6:	9d03      	ldr	r5, [sp, #12]
    b0d8:	447b      	add	r3, pc
    b0da:	9a02      	ldr	r2, [sp, #8]
    b0dc:	689e      	ldr	r6, [r3, #8]
    b0de:	6858      	ldr	r0, [r3, #4]
    b0e0:	2300      	movs	r3, #0
    b0e2:	4619      	mov	r1, r3
    b0e4:	e019      	b.n	b11a <_ZN7android22QualcommCameraHardware14setPictureSizeERKNS_16CameraParametersE+0x6a>
    b0e6:	58c7      	ldr	r7, [r0, r3]
    b0e8:	42bd      	cmp	r5, r7
    b0ea:	d114      	bne.n	b116 <_ZN7android22QualcommCameraHardware14setPictureSizeERKNS_16CameraParametersE+0x66>
    b0ec:	18c7      	adds	r7, r0, r3
    b0ee:	687f      	ldr	r7, [r7, #4]
    b0f0:	42ba      	cmp	r2, r7
    b0f2:	d110      	bne.n	b116 <_ZN7android22QualcommCameraHardware14setPictureSizeERKNS_16CameraParametersE+0x66>
    b0f4:	491e      	ldr	r1, [pc, #120]	(b170 <_ZN7android22QualcommCameraHardware14setPictureSizeERKNS_16CameraParametersE+0xc0>)
    b0f6:	f104 00e0 	add.w	r0, r4, #224	; 0xe0
    b0fa:	4479      	add	r1, pc
    b0fc:	f7fc ebb0 	blx	7860 <_ZN7android22QualcommCameraHardware18filterPictureSizesEv-0x48c>
    b100:	b990      	cbnz	r0, b128 <_ZN7android22QualcommCameraHardware14setPictureSizeERKNS_16CameraParametersE+0x78>
    b102:	f5b5 6f22 	cmp.w	r5, #2592	; 0xa20
    b106:	d10f      	bne.n	b128 <_ZN7android22QualcommCameraHardware14setPictureSizeERKNS_16CameraParametersE+0x78>
    b108:	f44f 6220 	mov.w	r2, #2560	; 0xa00
    b10c:	9203      	str	r2, [sp, #12]
    b10e:	f5a2 7120 	sub.w	r1, r2, #640	; 0x280
    b112:	9102      	str	r1, [sp, #8]
    b114:	e008      	b.n	b128 <_ZN7android22QualcommCameraHardware14setPictureSizeERKNS_16CameraParametersE+0x78>
    b116:	3101      	adds	r1, #1
    b118:	3308      	adds	r3, #8
    b11a:	42b1      	cmp	r1, r6
    b11c:	dbe3      	blt.n	b0e6 <_ZN7android22QualcommCameraHardware14setPictureSizeERKNS_16CameraParametersE+0x36>
    b11e:	4620      	mov	r0, r4
    b120:	4629      	mov	r1, r5
    b122:	f7fc fe3f 	bl	7da4 <_ZN7android22QualcommCameraHardware16isValidDimensionEii>
    b126:	b178      	cbz	r0, b148 <_ZN7android22QualcommCameraHardware14setPictureSizeERKNS_16CameraParametersE+0x98>
    b128:	f104 0008 	add.w	r0, r4, #8	; 0x8
    b12c:	9903      	ldr	r1, [sp, #12]
    b12e:	9a02      	ldr	r2, [sp, #8]
    b130:	f7fc ec02 	blx	7938 <_ZN7android22QualcommCameraHardware18filterPictureSizesEv-0x3b4>
    b134:	f8bd 300c 	ldrh.w	r3, [sp, #12]
    b138:	f8bd c008 	ldrh.w	ip, [sp, #8]
    b13c:	2000      	movs	r0, #0
    b13e:	f8a4 3106 	strh.w	r3, [r4, #262]
    b142:	f8a4 c108 	strh.w	ip, [r4, #264]
    b146:	e00b      	b.n	b160 <_ZN7android22QualcommCameraHardware14setPictureSizeERKNS_16CameraParametersE+0xb0>
    b148:	9802      	ldr	r0, [sp, #8]
    b14a:	490a      	ldr	r1, [pc, #40]	(b174 <_ZN7android22QualcommCameraHardware14setPictureSizeERKNS_16CameraParametersE+0xc4>)
    b14c:	4a0a      	ldr	r2, [pc, #40]	(b178 <_ZN7android22QualcommCameraHardware14setPictureSizeERKNS_16CameraParametersE+0xc8>)
    b14e:	9000      	str	r0, [sp, #0]
    b150:	4479      	add	r1, pc
    b152:	447a      	add	r2, pc
    b154:	2006      	movs	r0, #6
    b156:	9b03      	ldr	r3, [sp, #12]
    b158:	f7fc eb3a 	blx	77d0 <_ZN7android22QualcommCameraHardware18filterPictureSizesEv-0x51c>
    b15c:	f06f 0015 	mvn.w	r0, #21	; 0x15
    b160:	b005      	add	sp, #20
    b162:	bdf0      	pop	{r4, r5, r6, r7, pc}
    b164:	52c9      	strh	r1, [r1, r3]
    b166:	0000      	lsls	r0, r0, #0
    b168:	65c5      	str	r5, [r0, #92]
    b16a:	0000      	lsls	r0, r0, #0
    b16c:	9884      	ldr	r0, [sp, #528]
    b16e:	0000      	lsls	r0, r0, #0
    b170:	5671      	ldrsb	r1, [r6, r1]
    b172:	0000      	lsls	r0, r0, #0
    b174:	523f      	strh	r7, [r7, r0]
    b176:	0000      	lsls	r0, r0, #0
    b178:	655c      	str	r4, [r3, #84]
	...

0000b17c <_ZN7android22QualcommCameraHardware19setPreviewFrameRateERKNS_16CameraParametersE>:
    b17c:	e92d 41f3 	stmdb	sp!, {r0, r1, r4, r5, r6, r7, r8, lr}
    b180:	4688      	mov	r8, r1
    b182:	492f      	ldr	r1, [pc, #188]	(b240 <_ZN7android22QualcommCameraHardware19setPreviewFrameRateERKNS_16CameraParametersE+0xc4>)
    b184:	f100 05e0 	add.w	r5, r0, #224	; 0xe0
    b188:	4604      	mov	r4, r0
    b18a:	4628      	mov	r0, r5
    b18c:	4479      	add	r1, pc
    b18e:	f7fc eb68 	blx	7860 <_ZN7android22QualcommCameraHardware18filterPictureSizesEv-0x48c>
    b192:	b170      	cbz	r0, b1b2 <_ZN7android22QualcommCameraHardware19setPreviewFrameRateERKNS_16CameraParametersE+0x36>
    b194:	492b      	ldr	r1, [pc, #172]	(b244 <_ZN7android22QualcommCameraHardware19setPreviewFrameRateERKNS_16CameraParametersE+0xc8>)
    b196:	4628      	mov	r0, r5
    b198:	4479      	add	r1, pc
    b19a:	f7fc eb62 	blx	7860 <_ZN7android22QualcommCameraHardware18filterPictureSizesEv-0x48c>
    b19e:	b140      	cbz	r0, b1b2 <_ZN7android22QualcommCameraHardware19setPreviewFrameRateERKNS_16CameraParametersE+0x36>
    b1a0:	4b29      	ldr	r3, [pc, #164]	(b248 <_ZN7android22QualcommCameraHardware19setPreviewFrameRateERKNS_16CameraParametersE+0xcc>)
    b1a2:	492a      	ldr	r1, [pc, #168]	(b24c <_ZN7android22QualcommCameraHardware19setPreviewFrameRateERKNS_16CameraParametersE+0xd0>)
    b1a4:	447b      	add	r3, pc
    b1a6:	681b      	ldr	r3, [r3, #0]
    b1a8:	4479      	add	r1, pc
    b1aa:	6818      	ldr	r0, [r3, #0]
    b1ac:	f7fc eb58 	blx	7860 <_ZN7android22QualcommCameraHardware18filterPictureSizesEv-0x48c>
    b1b0:	b928      	cbnz	r0, b1be <_ZN7android22QualcommCameraHardware19setPreviewFrameRateERKNS_16CameraParametersE+0x42>
    b1b2:	4927      	ldr	r1, [pc, #156]	(b250 <_ZN7android22QualcommCameraHardware19setPreviewFrameRateERKNS_16CameraParametersE+0xd4>)
    b1b4:	2004      	movs	r0, #4
    b1b6:	4a27      	ldr	r2, [pc, #156]	(b254 <_ZN7android22QualcommCameraHardware19setPreviewFrameRateERKNS_16CameraParametersE+0xd8>)
    b1b8:	4479      	add	r1, pc
    b1ba:	447a      	add	r2, pc
    b1bc:	e01f      	b.n	b1fe <_ZN7android22QualcommCameraHardware19setPreviewFrameRateERKNS_16CameraParametersE+0x82>
    b1be:	f104 0608 	add.w	r6, r4, #8	; 0x8
    b1c2:	4d25      	ldr	r5, [pc, #148]	(b258 <_ZN7android22QualcommCameraHardware19setPreviewFrameRateERKNS_16CameraParametersE+0xdc>)
    b1c4:	4630      	mov	r0, r6
    b1c6:	f7fc ebbe 	blx	7944 <_ZN7android22QualcommCameraHardware18filterPictureSizesEv-0x3a8>
    b1ca:	447d      	add	r5, pc
    b1cc:	4607      	mov	r7, r0
    b1ce:	4640      	mov	r0, r8
    b1d0:	f7fc ebb8 	blx	7944 <_ZN7android22QualcommCameraHardware18filterPictureSizesEv-0x3a8>
    b1d4:	4a21      	ldr	r2, [pc, #132]	(b25c <_ZN7android22QualcommCameraHardware19setPreviewFrameRateERKNS_16CameraParametersE+0xe0>)
    b1d6:	4629      	mov	r1, r5
    b1d8:	447a      	add	r2, pc
    b1da:	b283      	uxth	r3, r0
    b1dc:	2002      	movs	r0, #2
    b1de:	f8ad 3006 	strh.w	r3, [sp, #6]
    b1e2:	f7fc eaf6 	blx	77d0 <_ZN7android22QualcommCameraHardware18filterPictureSizesEv-0x51c>
    b1e6:	f894 1160 	ldrb.w	r1, [r4, #352]
    b1ea:	b161      	cbz	r1, b206 <_ZN7android22QualcommCameraHardware19setPreviewFrameRateERKNS_16CameraParametersE+0x8a>
    b1ec:	f8bd 2006 	ldrh.w	r2, [sp, #6]
    b1f0:	b2bf      	uxth	r7, r7
    b1f2:	42ba      	cmp	r2, r7
    b1f4:	d107      	bne.n	b206 <_ZN7android22QualcommCameraHardware19setPreviewFrameRateERKNS_16CameraParametersE+0x8a>
    b1f6:	4a1a      	ldr	r2, [pc, #104]	(b260 <_ZN7android22QualcommCameraHardware19setPreviewFrameRateERKNS_16CameraParametersE+0xe4>)
    b1f8:	2002      	movs	r0, #2
    b1fa:	4629      	mov	r1, r5
    b1fc:	447a      	add	r2, pc
    b1fe:	f7fc eae8 	blx	77d0 <_ZN7android22QualcommCameraHardware18filterPictureSizesEv-0x51c>
    b202:	2000      	movs	r0, #0
    b204:	e01a      	b.n	b23c <_ZN7android22QualcommCameraHardware19setPreviewFrameRateERKNS_16CameraParametersE+0xc0>
    b206:	f8bd 1006 	ldrh.w	r1, [sp, #6]
    b20a:	f1a1 0e0a 	sub.w	lr, r1, #10	; 0xa
    b20e:	fa1f fc8e 	uxth.w	ip, lr
    b212:	f1bc 0f0a 	cmp.w	ip, #10	; 0xa
    b216:	bf88      	it	hi
    b218:	f06f 0015 	mvnhi.w	r0, #21	; 0x15
    b21c:	d80e      	bhi.n	b23c <_ZN7android22QualcommCameraHardware19setPreviewFrameRateERKNS_16CameraParametersE+0xc0>
    b21e:	4630      	mov	r0, r6
    b220:	f7fc eb96 	blx	7950 <_ZN7android22QualcommCameraHardware18filterPictureSizesEv-0x39c>
    b224:	4620      	mov	r0, r4
    b226:	2110      	movs	r1, #16
    b228:	2202      	movs	r2, #2
    b22a:	f10d 0306 	add.w	r3, sp, #6	; 0x6
    b22e:	f7fe f9c3 	bl	95b8 <_ZN7android22QualcommCameraHardware15native_set_parmEhtPv>
    b232:	2800      	cmp	r0, #0
    b234:	bf0c      	ite	eq
    b236:	f04f 4000 	moveq.w	r0, #2147483648	; 0x80000000
    b23a:	2000      	movne	r0, #0
    b23c:	e8bd 81fc 	ldmia.w	sp!, {r2, r3, r4, r5, r6, r7, r8, pc}
    b240:	5fc9      	ldrsh	r1, [r1, r7]
    b242:	0000      	lsls	r0, r0, #0
    b244:	5fc4      	ldrsh	r4, [r0, r7]
    b246:	0000      	lsls	r0, r0, #0
    b248:	97b8      	str	r7, [sp, #736]
    b24a:	0000      	lsls	r0, r0, #0
    b24c:	55bf      	strb	r7, [r7, r6]
    b24e:	0000      	lsls	r0, r0, #0
    b250:	51d7      	str	r7, [r2, r7]
    b252:	0000      	lsls	r0, r0, #0
    b254:	651a      	str	r2, [r3, #80]
    b256:	0000      	lsls	r0, r0, #0
    b258:	51c5      	str	r5, [r0, r7]
    b25a:	0000      	lsls	r0, r0, #0
    b25c:	6525      	str	r5, [r4, #80]
    b25e:	0000      	lsls	r0, r0, #0
    b260:	6525      	str	r5, [r4, #80]
	...

0000b264 <_ZN7android22QualcommCameraHardware14setPreviewSizeERKNS_16CameraParametersE>:
    b264:	b57f      	push	{r0, r1, r2, r3, r4, r5, r6, lr}
    b266:	4604      	mov	r4, r0
    b268:	aa02      	add	r2, sp, #8
    b26a:	4608      	mov	r0, r1
    b26c:	a903      	add	r1, sp, #12
    b26e:	f7fc eb76 	blx	795c <_ZN7android22QualcommCameraHardware18filterPictureSizesEv-0x390>
    b272:	9b02      	ldr	r3, [sp, #8]
    b274:	4928      	ldr	r1, [pc, #160]	(b318 <_ZN7android22QualcommCameraHardware14setPreviewSizeERKNS_16CameraParametersE+0xb4>)
    b276:	2002      	movs	r0, #2
    b278:	4a28      	ldr	r2, [pc, #160]	(b31c <_ZN7android22QualcommCameraHardware14setPreviewSizeERKNS_16CameraParametersE+0xb8>)
    b27a:	4479      	add	r1, pc
    b27c:	9300      	str	r3, [sp, #0]
    b27e:	447a      	add	r2, pc
    b280:	9b03      	ldr	r3, [sp, #12]
    b282:	f7fc eaa6 	blx	77d0 <_ZN7android22QualcommCameraHardware18filterPictureSizesEv-0x51c>
    b286:	4a26      	ldr	r2, [pc, #152]	(b320 <_ZN7android22QualcommCameraHardware14setPreviewSizeERKNS_16CameraParametersE+0xbc>)
    b288:	4926      	ldr	r1, [pc, #152]	(b324 <_ZN7android22QualcommCameraHardware14setPreviewSizeERKNS_16CameraParametersE+0xc0>)
    b28a:	447a      	add	r2, pc
    b28c:	9b03      	ldr	r3, [sp, #12]
    b28e:	4479      	add	r1, pc
    b290:	9802      	ldr	r0, [sp, #8]
    b292:	6f15      	ldr	r5, [r2, #112]
    b294:	3110      	adds	r1, #16
    b296:	2200      	movs	r2, #0
    b298:	00ed      	lsls	r5, r5, #3
    b29a:	e02f      	b.n	b2fc <_ZN7android22QualcommCameraHardware14setPreviewSizeERKNS_16CameraParametersE+0x98>
    b29c:	588e      	ldr	r6, [r1, r2]
    b29e:	42b3      	cmp	r3, r6
    b2a0:	d12b      	bne.n	b2fa <_ZN7android22QualcommCameraHardware14setPreviewSizeERKNS_16CameraParametersE+0x96>
    b2a2:	188e      	adds	r6, r1, r2
    b2a4:	6876      	ldr	r6, [r6, #4]
    b2a6:	42b0      	cmp	r0, r6
    b2a8:	d127      	bne.n	b2fa <_ZN7android22QualcommCameraHardware14setPreviewSizeERKNS_16CameraParametersE+0x96>
    b2aa:	f5b3 6fa0 	cmp.w	r3, #1280	; 0x500
    b2ae:	d116      	bne.n	b2de <_ZN7android22QualcommCameraHardware14setPreviewSizeERKNS_16CameraParametersE+0x7a>
    b2b0:	f5b0 7f34 	cmp.w	r0, #720	; 0x2d0
    b2b4:	d113      	bne.n	b2de <_ZN7android22QualcommCameraHardware14setPreviewSizeERKNS_16CameraParametersE+0x7a>
    b2b6:	491c      	ldr	r1, [pc, #112]	(b328 <_ZN7android22QualcommCameraHardware14setPreviewSizeERKNS_16CameraParametersE+0xc4>)
    b2b8:	4479      	add	r1, pc
    b2ba:	6809      	ldr	r1, [r1, #0]
    b2bc:	1e88      	subs	r0, r1, #2
    b2be:	2801      	cmp	r0, #1
    b2c0:	d80d      	bhi.n	b2de <_ZN7android22QualcommCameraHardware14setPreviewSizeERKNS_16CameraParametersE+0x7a>
    b2c2:	491a      	ldr	r1, [pc, #104]	(b32c <_ZN7android22QualcommCameraHardware14setPreviewSizeERKNS_16CameraParametersE+0xc8>)
    b2c4:	2003      	movs	r0, #3
    b2c6:	4a1a      	ldr	r2, [pc, #104]	(b330 <_ZN7android22QualcommCameraHardware14setPreviewSizeERKNS_16CameraParametersE+0xcc>)
    b2c8:	4479      	add	r1, pc
    b2ca:	447a      	add	r2, pc
    b2cc:	f7fc ea80 	blx	77d0 <_ZN7android22QualcommCameraHardware18filterPictureSizesEv-0x51c>
    b2d0:	f44f 7c40 	mov.w	ip, #768	; 0x300
    b2d4:	f44f 73d8 	mov.w	r3, #432	; 0x1b0
    b2d8:	f8a4 c10a 	strh.w	ip, [r4, #266]
    b2dc:	e003      	b.n	b2e6 <_ZN7android22QualcommCameraHardware14setPreviewSizeERKNS_16CameraParametersE+0x82>
    b2de:	f8a4 310a 	strh.w	r3, [r4, #266]
    b2e2:	f8bd 3008 	ldrh.w	r3, [sp, #8]
    b2e6:	f104 0008 	add.w	r0, r4, #8	; 0x8
    b2ea:	f8a4 310c 	strh.w	r3, [r4, #268]
    b2ee:	9903      	ldr	r1, [sp, #12]
    b2f0:	9a02      	ldr	r2, [sp, #8]
    b2f2:	f7fc eb3a 	blx	7968 <_ZN7android22QualcommCameraHardware18filterPictureSizesEv-0x384>
    b2f6:	2000      	movs	r0, #0
    b2f8:	e00c      	b.n	b314 <_ZN7android22QualcommCameraHardware14setPreviewSizeERKNS_16CameraParametersE+0xb0>
    b2fa:	3208      	adds	r2, #8
    b2fc:	42aa      	cmp	r2, r5
    b2fe:	d1cd      	bne.n	b29c <_ZN7android22QualcommCameraHardware14setPreviewSizeERKNS_16CameraParametersE+0x38>
    b300:	490c      	ldr	r1, [pc, #48]	(b334 <_ZN7android22QualcommCameraHardware14setPreviewSizeERKNS_16CameraParametersE+0xd0>)
    b302:	4a0d      	ldr	r2, [pc, #52]	(b338 <_ZN7android22QualcommCameraHardware14setPreviewSizeERKNS_16CameraParametersE+0xd4>)
    b304:	9000      	str	r0, [sp, #0]
    b306:	4479      	add	r1, pc
    b308:	447a      	add	r2, pc
    b30a:	2006      	movs	r0, #6
    b30c:	f7fc ea60 	blx	77d0 <_ZN7android22QualcommCameraHardware18filterPictureSizesEv-0x51c>
    b310:	f06f 0015 	mvn.w	r0, #21	; 0x15
    b314:	b004      	add	sp, #16
    b316:	bd70      	pop	{r4, r5, r6, pc}
    b318:	5115      	str	r5, [r2, r4]
    b31a:	0000      	lsls	r0, r0, #0
    b31c:	64bc      	str	r4, [r7, #72]
    b31e:	0000      	lsls	r0, r0, #0
    b320:	96d2      	str	r6, [sp, #840]
    b322:	0000      	lsls	r0, r0, #0
    b324:	96ce      	str	r6, [sp, #824]
    b326:	0000      	lsls	r0, r0, #0
    b328:	960c      	str	r6, [sp, #48]
    b32a:	0000      	lsls	r0, r0, #0
    b32c:	50c7      	str	r7, [r0, r3]
    b32e:	0000      	lsls	r0, r0, #0
    b330:	648f      	str	r7, [r1, #72]
    b332:	0000      	lsls	r0, r0, #0
    b334:	5089      	str	r1, [r1, r2]
    b336:	0000      	lsls	r0, r0, #0
    b338:	6491      	str	r1, [r2, #72]
	...

0000b33c <_ZN7android22QualcommCameraHardware13setParametersERKNS_16CameraParametersE>:
    b33c:	e92d 41f0 	stmdb	sp!, {r4, r5, r6, r7, r8, lr}
    b340:	4e37      	ldr	r6, [pc, #220]	(b420 <_ZN7android22QualcommCameraHardware13setParametersERKNS_16CameraParametersE+0xe4>)
    b342:	4a38      	ldr	r2, [pc, #224]	(b424 <_ZN7android22QualcommCameraHardware13setParametersERKNS_16CameraParametersE+0xe8>)
    b344:	4605      	mov	r5, r0
    b346:	460c      	mov	r4, r1
    b348:	447e      	add	r6, pc
    b34a:	4623      	mov	r3, r4
    b34c:	447a      	add	r2, pc
    b34e:	4631      	mov	r1, r6
    b350:	f105 07a0 	add.w	r7, r5, #160	; 0xa0
    b354:	2002      	movs	r0, #2
    b356:	f7fc ea3c 	blx	77d0 <_ZN7android22QualcommCameraHardware18filterPictureSizesEv-0x51c>
    b35a:	4638      	mov	r0, r7
    b35c:	f7fd f92e 	bl	85bc <_ZN7android22QualcommCameraHardware26receiveJpegPictureFragmentEPhj+0x114>
    b360:	4621      	mov	r1, r4
    b362:	4628      	mov	r0, r5
    b364:	f7ff ff7e 	bl	b264 <_ZN7android22QualcommCameraHardware14setPreviewSizeERKNS_16CameraParametersE>
    b368:	4621      	mov	r1, r4
    b36a:	4628      	mov	r0, r5
    b36c:	f7ff fea0 	bl	b0b0 <_ZN7android22QualcommCameraHardware14setPictureSizeERKNS_16CameraParametersE>
    b370:	4621      	mov	r1, r4
    b372:	4628      	mov	r0, r5
    b374:	f7ff fcb6 	bl	ace4 <_ZN7android22QualcommCameraHardware14setJpegQualityERKNS_16CameraParametersE>
    b378:	4621      	mov	r1, r4
    b37a:	4628      	mov	r0, r5
    b37c:	f7fd fb9a 	bl	8ab4 <_ZN7android22QualcommCameraHardware14setAntibandingERKNS_16CameraParametersE>
    b380:	4621      	mov	r1, r4
    b382:	4628      	mov	r0, r5
    b384:	f7ff f9cc 	bl	a720 <_ZN7android22QualcommCameraHardware15setAutoExposureERKNS_16CameraParametersE>
    b388:	4621      	mov	r1, r4
    b38a:	4628      	mov	r0, r5
    b38c:	f7ff f956 	bl	a63c <_ZN7android22QualcommCameraHardware15setWhiteBalanceERKNS_16CameraParametersE>
    b390:	4621      	mov	r1, r4
    b392:	4628      	mov	r0, r5
    b394:	f7ff fa24 	bl	a7e0 <_ZN7android22QualcommCameraHardware9setEffectERKNS_16CameraParametersE>
    b398:	4621      	mov	r1, r4
    b39a:	4628      	mov	r0, r5
    b39c:	f7ff f8f6 	bl	a58c <_ZN7android22QualcommCameraHardware8setFlashERKNS_16CameraParametersE>
    b3a0:	4621      	mov	r1, r4
    b3a2:	4628      	mov	r0, r5
    b3a4:	f7fe ff8a 	bl	a2bc <_ZN7android22QualcommCameraHardware14setGpsLocationERKNS_16CameraParametersE>
    b3a8:	4621      	mov	r1, r4
    b3aa:	4628      	mov	r0, r5
    b3ac:	f7ff fb14 	bl	a9d8 <_ZN7android22QualcommCameraHardware11setRotationERKNS_16CameraParametersE>
    b3b0:	4621      	mov	r1, r4
    b3b2:	4628      	mov	r0, r5
    b3b4:	f7ff fac0 	bl	a938 <_ZN7android22QualcommCameraHardware7setZoomERKNS_16CameraParametersE>
    b3b8:	4621      	mov	r1, r4
    b3ba:	4628      	mov	r0, r5
    b3bc:	f7fe ff46 	bl	a24c <_ZN7android22QualcommCameraHardware12setFocusModeERKNS_16CameraParametersE>
    b3c0:	4621      	mov	r1, r4
    b3c2:	4628      	mov	r0, r5
    b3c4:	f7fe ff0c 	bl	a1e0 <_ZN7android22QualcommCameraHardware14setOrientationERKNS_16CameraParametersE>
    b3c8:	4621      	mov	r1, r4
    b3ca:	4628      	mov	r0, r5
    b3cc:	f7ff fada 	bl	a984 <_ZN7android22QualcommCameraHardware13setBrightnessERKNS_16CameraParametersE>
    b3d0:	4621      	mov	r1, r4
    b3d2:	4628      	mov	r0, r5
    b3d4:	f7ff fb3e 	bl	aa54 <_ZN7android22QualcommCameraHardware23setExposureCompensationERKNS_16CameraParametersE>
    b3d8:	4621      	mov	r1, r4
    b3da:	4628      	mov	r0, r5
    b3dc:	f7ff f85e 	bl	a49c <_ZN7android22QualcommCameraHardware17setLensshadeValueERKNS_16CameraParametersE>
    b3e0:	4621      	mov	r1, r4
    b3e2:	4628      	mov	r0, r5
    b3e4:	f7ff f800 	bl	a3e8 <_ZN7android22QualcommCameraHardware11setISOValueERKNS_16CameraParametersE>
    b3e8:	4621      	mov	r1, r4
    b3ea:	4628      	mov	r0, r5
    b3ec:	f7fe fec6 	bl	a17c <_ZN7android22QualcommCameraHardware16setPictureFormatERKNS_16CameraParametersE>
    b3f0:	4621      	mov	r1, r4
    b3f2:	4628      	mov	r0, r5
    b3f4:	f7ff fc26 	bl	ac44 <_ZN7android22QualcommCameraHardware12setSharpnessERKNS_16CameraParametersE>
    b3f8:	4621      	mov	r1, r4
    b3fa:	4628      	mov	r0, r5
    b3fc:	f7ff fbd2 	bl	aba4 <_ZN7android22QualcommCameraHardware11setContrastERKNS_16CameraParametersE>
    b400:	4621      	mov	r1, r4
    b402:	4628      	mov	r0, r5
    b404:	f7ff fb50 	bl	aaa8 <_ZN7android22QualcommCameraHardware13setSaturationERKNS_16CameraParametersE>
    b408:	4a07      	ldr	r2, [pc, #28]	(b428 <_ZN7android22QualcommCameraHardware13setParametersERKNS_16CameraParametersE+0xec>)
    b40a:	4631      	mov	r1, r6
    b40c:	2002      	movs	r0, #2
    b40e:	447a      	add	r2, pc
    b410:	f7fc e9de 	blx	77d0 <_ZN7android22QualcommCameraHardware18filterPictureSizesEv-0x51c>
    b414:	4638      	mov	r0, r7
    b416:	f7fc e9fa 	blx	780c <_ZN7android22QualcommCameraHardware18filterPictureSizesEv-0x4e0>
    b41a:	2000      	movs	r0, #0
    b41c:	e8bd 81f0 	ldmia.w	sp!, {r4, r5, r6, r7, r8, pc}
    b420:	5047      	str	r7, [r0, r1]
    b422:	0000      	lsls	r0, r0, #0
    b424:	6473      	str	r3, [r6, #68]
    b426:	0000      	lsls	r0, r0, #0
    b428:	63ce      	str	r6, [r1, #60]
	...

0000b42c <_ZN7android22QualcommCameraHardware18receiveJpegPictureEv>:
    b42c:	b5f0      	push	{r4, r5, r6, r7, lr}
    b42e:	6c45      	ldr	r5, [r0, #68]
    b430:	4604      	mov	r4, r0
    b432:	b087      	sub	sp, #28
    b434:	493d      	ldr	r1, [pc, #244]	(b52c <_ZN7android22QualcommCameraHardware18receiveJpegPictureEv+0x100>)
    b436:	68a8      	ldr	r0, [r5, #8]
    b438:	4a3d      	ldr	r2, [pc, #244]	(b530 <_ZN7android22QualcommCameraHardware18receiveJpegPictureEv+0x104>)
    b43a:	4479      	add	r1, pc
    b43c:	f8d4 30c4 	ldr.w	r3, [r4, #196]
    b440:	447a      	add	r2, pc
    b442:	9000      	str	r0, [sp, #0]
    b444:	2002      	movs	r0, #2
    b446:	f7fc e9c4 	blx	77d0 <_ZN7android22QualcommCameraHardware18filterPictureSizesEv-0x51c>
    b44a:	f104 00ac 	add.w	r0, r4, #172	; 0xac
    b44e:	f7fd f8b5 	bl	85bc <_ZN7android22QualcommCameraHardware26receiveJpegPictureFragmentEPhj+0x114>
    b452:	f8d4 31f0 	ldr.w	r3, [r4, #496]
    b456:	2b00      	cmp	r3, #0
    b458:	d045      	beq.n	b4e6 <_ZN7android22QualcommCameraHardware18receiveJpegPictureEv+0xba>
    b45a:	f8d4 11e8 	ldr.w	r1, [r4, #488]
    b45e:	05cd      	lsls	r5, r1, #23
    b460:	d541      	bpl.n	b4e6 <_ZN7android22QualcommCameraHardware18receiveJpegPictureEv+0xba>
    b462:	6c62      	ldr	r2, [r4, #68]
    b464:	ae04      	add	r6, sp, #16
    b466:	4630      	mov	r0, r6
    b468:	f112 0118 	adds.w	r1, r2, #24	; 0x18
    b46c:	f7fc fe12 	bl	8094 <_ZN7android2spINS_11IMemoryHeapEEC1INS_14MemoryHeapBaseEEERKNS0_IT_EE>
    b470:	2024      	movs	r0, #36
    b472:	f7fc ea1a 	blx	78a8 <_ZN7android22QualcommCameraHardware18filterPictureSizesEv-0x444>
    b476:	4631      	mov	r1, r6
    b478:	2200      	movs	r2, #0
    b47a:	f8d4 30c4 	ldr.w	r3, [r4, #196]
    b47e:	4605      	mov	r5, r0
    b480:	f7fc ea18 	blx	78b4 <_ZN7android22QualcommCameraHardware18filterPictureSizesEv-0x438>
    b484:	9505      	str	r5, [sp, #20]
    b486:	b135      	cbz	r5, b496 <_ZN7android22QualcommCameraHardware18receiveJpegPictureEv+0x6a>
    b488:	682b      	ldr	r3, [r5, #0]
    b48a:	a905      	add	r1, sp, #20
    b48c:	f853 7c0c 	ldr.w	r7, [r3, #-12]
    b490:	19e8      	adds	r0, r5, r7
    b492:	f7fc e9a4 	blx	77dc <_ZN7android22QualcommCameraHardware18filterPictureSizesEv-0x510>
    b496:	9b04      	ldr	r3, [sp, #16]
    b498:	b133      	cbz	r3, b4a8 <_ZN7android22QualcommCameraHardware18receiveJpegPictureEv+0x7c>
    b49a:	681d      	ldr	r5, [r3, #0]
    b49c:	a904      	add	r1, sp, #16
    b49e:	f855 0c0c 	ldr.w	r0, [r5, #-12]
    b4a2:	1818      	adds	r0, r3, r0
    b4a4:	f7fc e9a0 	blx	77e8 <_ZN7android22QualcommCameraHardware18filterPictureSizesEv-0x504>
    b4a8:	ae03      	add	r6, sp, #12
    b4aa:	ad05      	add	r5, sp, #20
    b4ac:	4629      	mov	r1, r5
    b4ae:	4630      	mov	r0, r6
    b4b0:	f8d4 71f0 	ldr.w	r7, [r4, #496]
    b4b4:	f7fc fe02 	bl	80bc <_ZN7android2spINS_7IMemoryEEC1INS_10MemoryBaseEEERKNS0_IT_EE>
    b4b8:	4631      	mov	r1, r6
    b4ba:	f8d4 21f8 	ldr.w	r2, [r4, #504]
    b4be:	f44f 7080 	mov.w	r0, #256	; 0x100
    b4c2:	47b8      	blx	r7
    b4c4:	4630      	mov	r0, r6
    b4c6:	f7fc fef9 	bl	82bc <_ZN7android2spINS_7IMemoryEED1Ev>
    b4ca:	4628      	mov	r0, r5
    b4cc:	2100      	movs	r1, #0
    b4ce:	f7fc fedd 	bl	828c <_ZN7android2spINS_10MemoryBaseEEaSEPS1_>
    b4d2:	9b05      	ldr	r3, [sp, #20]
    b4d4:	b173      	cbz	r3, b4f4 <_ZN7android22QualcommCameraHardware18receiveJpegPictureEv+0xc8>
    b4d6:	681a      	ldr	r2, [r3, #0]
    b4d8:	f852 1c0c 	ldr.w	r1, [r2, #-12]
    b4dc:	1858      	adds	r0, r3, r1
    b4de:	4629      	mov	r1, r5
    b4e0:	f7fc e982 	blx	77e8 <_ZN7android22QualcommCameraHardware18filterPictureSizesEv-0x504>
    b4e4:	e006      	b.n	b4f4 <_ZN7android22QualcommCameraHardware18receiveJpegPictureEv+0xc8>
    b4e6:	4913      	ldr	r1, [pc, #76]	(b534 <_ZN7android22QualcommCameraHardware18receiveJpegPictureEv+0x108>)
    b4e8:	2002      	movs	r0, #2
    b4ea:	4a13      	ldr	r2, [pc, #76]	(b538 <_ZN7android22QualcommCameraHardware18receiveJpegPictureEv+0x10c>)
    b4ec:	4479      	add	r1, pc
    b4ee:	447a      	add	r2, pc
    b4f0:	f7fc e96e 	blx	77d0 <_ZN7android22QualcommCameraHardware18filterPictureSizesEv-0x51c>
    b4f4:	f104 0588 	add.w	r5, r4, #136	; 0x88
    b4f8:	4628      	mov	r0, r5
    b4fa:	f7fd f85f 	bl	85bc <_ZN7android22QualcommCameraHardware26receiveJpegPictureFragmentEPhj+0x114>
    b4fe:	2300      	movs	r3, #0
    b500:	f104 008c 	add.w	r0, r4, #140	; 0x8c
    b504:	f884 3084 	strb.w	r3, [r4, #132]
    b508:	f7fc ea34 	blx	7974 <_ZN7android22QualcommCameraHardware18filterPictureSizesEv-0x378>
    b50c:	4628      	mov	r0, r5
    b50e:	f7fc e97e 	blx	780c <_ZN7android22QualcommCameraHardware18filterPictureSizesEv-0x4e0>
    b512:	490a      	ldr	r1, [pc, #40]	(b53c <_ZN7android22QualcommCameraHardware18receiveJpegPictureEv+0x110>)
    b514:	4a0a      	ldr	r2, [pc, #40]	(b540 <_ZN7android22QualcommCameraHardware18receiveJpegPictureEv+0x114>)
    b516:	2002      	movs	r0, #2
    b518:	4479      	add	r1, pc
    b51a:	447a      	add	r2, pc
    b51c:	f7fc e958 	blx	77d0 <_ZN7android22QualcommCameraHardware18filterPictureSizesEv-0x51c>
    b520:	f104 00ac 	add.w	r0, r4, #172	; 0xac
    b524:	f7fc e972 	blx	780c <_ZN7android22QualcommCameraHardware18filterPictureSizesEv-0x4e0>
    b528:	b007      	add	sp, #28
    b52a:	bdf0      	pop	{r4, r5, r6, r7, pc}
    b52c:	4f55      	ldr	r7, [pc, #340]	(b684 <_ZN7android22QualcommCameraHardware21releaseRecordingFrameERKNS_2spINS_7IMemoryEEE+0x140>)
    b52e:	0000      	lsls	r0, r0, #0
    b530:	63ad      	str	r5, [r5, #56]
    b532:	0000      	lsls	r0, r0, #0
    b534:	4ea3      	ldr	r6, [pc, #652]	(b7c4 <_ZN7android22QualcommCameraHardware9autoFocusEv+0xd4>)
    b536:	0000      	lsls	r0, r0, #0
    b538:	6333      	str	r3, [r6, #48]
    b53a:	0000      	lsls	r0, r0, #0
    b53c:	4e77      	ldr	r6, [pc, #476]	(b71c <_ZN7android22QualcommCameraHardware9autoFocusEv+0x2c>)
    b53e:	0000      	lsls	r0, r0, #0
    b540:	633a      	str	r2, [r7, #48]
	...

0000b544 <_ZN7android22QualcommCameraHardware21releaseRecordingFrameERKNS_2spINS_7IMemoryEEE>:
    b544:	e92d 43f0 	stmdb	sp!, {r4, r5, r6, r7, r8, r9, lr}
    b548:	4d59      	ldr	r5, [pc, #356]	(b6b0 <_ZN7android22QualcommCameraHardware21releaseRecordingFrameERKNS_2spINS_7IMemoryEEE+0x16c>)
    b54a:	4a5a      	ldr	r2, [pc, #360]	(b6b4 <_ZN7android22QualcommCameraHardware21releaseRecordingFrameERKNS_2spINS_7IMemoryEEE+0x170>)
    b54c:	4604      	mov	r4, r0
    b54e:	447d      	add	r5, pc
    b550:	b087      	sub	sp, #28
    b552:	447a      	add	r2, pc
    b554:	2002      	movs	r0, #2
    b556:	460f      	mov	r7, r1
    b558:	4629      	mov	r1, r5
    b55a:	f7fc e93a 	blx	77d0 <_ZN7android22QualcommCameraHardware18filterPictureSizesEv-0x51c>
    b55e:	f104 00b8 	add.w	r0, r4, #184	; 0xb8
    b562:	f7fd f82b 	bl	85bc <_ZN7android22QualcommCameraHardware26receiveJpegPictureFragmentEPhj+0x114>
    b566:	2101      	movs	r1, #1
    b568:	f104 00bc 	add.w	r0, r4, #188	; 0xbc
    b56c:	f884 10a9 	strb.w	r1, [r4, #169]
    b570:	f7fc ea00 	blx	7974 <_ZN7android22QualcommCameraHardware18filterPictureSizesEv-0x378>
    b574:	4850      	ldr	r0, [pc, #320]	(b6b8 <_ZN7android22QualcommCameraHardware21releaseRecordingFrameERKNS_2spINS_7IMemoryEEE+0x174>)
    b576:	4e51      	ldr	r6, [pc, #324]	(b6bc <_ZN7android22QualcommCameraHardware21releaseRecordingFrameERKNS_2spINS_7IMemoryEEE+0x178>)
    b578:	4478      	add	r0, pc
    b57a:	6800      	ldr	r0, [r0, #0]
    b57c:	1e83      	subs	r3, r0, #2
    b57e:	447e      	add	r6, pc
    b580:	2b01      	cmp	r3, #1
    b582:	f200 8086 	bhi.w	b692 <_ZN7android22QualcommCameraHardware21releaseRecordingFrameERKNS_2spINS_7IMemoryEEE+0x14e>
    b586:	6839      	ldr	r1, [r7, #0]
    b588:	ab04      	add	r3, sp, #16
    b58a:	a803      	add	r0, sp, #12
    b58c:	f8df 8130 	ldr.w	r8, [pc, #304]	; b6c0 <_ZN7android22QualcommCameraHardware21releaseRecordingFrameERKNS_2spINS_7IMemoryEEE+0x17c>
    b590:	680a      	ldr	r2, [r1, #0]
    b592:	44f8      	add	r8, pc
    b594:	6917      	ldr	r7, [r2, #16]
    b596:	aa05      	add	r2, sp, #20
    b598:	47b8      	blx	r7
    b59a:	9803      	ldr	r0, [sp, #12]
    b59c:	f7fc fb8c 	bl	7cb8 <_ZN7android22QualcommCameraHardware18filterPictureSizesEv-0x34>
    b5a0:	4607      	mov	r7, r0
    b5a2:	9803      	ldr	r0, [sp, #12]
    b5a4:	f7fc fb88 	bl	7cb8 <_ZN7android22QualcommCameraHardware18filterPictureSizesEv-0x34>
    b5a8:	9905      	ldr	r1, [sp, #20]
    b5aa:	4a46      	ldr	r2, [pc, #280]	(b6c4 <_ZN7android22QualcommCameraHardware21releaseRecordingFrameERKNS_2spINS_7IMemoryEEE+0x180>)
    b5ac:	9100      	str	r1, [sp, #0]
    b5ae:	447a      	add	r2, pc
    b5b0:	1843      	adds	r3, r0, r1
    b5b2:	4629      	mov	r1, r5
    b5b4:	9301      	str	r3, [sp, #4]
    b5b6:	2002      	movs	r0, #2
    b5b8:	463b      	mov	r3, r7
    b5ba:	2500      	movs	r5, #0
    b5bc:	f7fc e908 	blx	77d0 <_ZN7android22QualcommCameraHardware18filterPictureSizesEv-0x51c>
    b5c0:	462f      	mov	r7, r5
    b5c2:	e01e      	b.n	b602 <_ZN7android22QualcommCameraHardware21releaseRecordingFrameERKNS_2spINS_7IMemoryEEE+0xbe>
    b5c4:	f8d4 21dc 	ldr.w	r2, [r4, #476]
    b5c8:	9803      	ldr	r0, [sp, #12]
    b5ca:	1953      	adds	r3, r2, r5
    b5cc:	f8d3 9004 	ldr.w	r9, [r3, #4]
    b5d0:	f7fc fb72 	bl	7cb8 <_ZN7android22QualcommCameraHardware18filterPictureSizesEv-0x34>
    b5d4:	9905      	ldr	r1, [sp, #20]
    b5d6:	f105 031c 	add.w	r3, r5, #28	; 0x1c
    b5da:	1840      	adds	r0, r0, r1
    b5dc:	4581      	cmp	r9, r0
    b5de:	d10e      	bne.n	b5fe <_ZN7android22QualcommCameraHardware21releaseRecordingFrameERKNS_2spINS_7IMemoryEEE+0xba>
    b5e0:	f8d4 01dc 	ldr.w	r0, [r4, #476]
    b5e4:	4938      	ldr	r1, [pc, #224]	(b6c8 <_ZN7android22QualcommCameraHardware21releaseRecordingFrameERKNS_2spINS_7IMemoryEEE+0x184>)
    b5e6:	1943      	adds	r3, r0, r5
    b5e8:	4a38      	ldr	r2, [pc, #224]	(b6cc <_ZN7android22QualcommCameraHardware21releaseRecordingFrameERKNS_2spINS_7IMemoryEEE+0x188>)
    b5ea:	4479      	add	r1, pc
    b5ec:	2002      	movs	r0, #2
    b5ee:	447a      	add	r2, pc
    b5f0:	685b      	ldr	r3, [r3, #4]
    b5f2:	f7fc e8ee 	blx	77d0 <_ZN7android22QualcommCameraHardware18filterPictureSizesEv-0x51c>
    b5f6:	f8d4 01dc 	ldr.w	r0, [r4, #476]
    b5fa:	1945      	adds	r5, r0, r5
    b5fc:	e006      	b.n	b60c <_ZN7android22QualcommCameraHardware21releaseRecordingFrameERKNS_2spINS_7IMemoryEEE+0xc8>
    b5fe:	3701      	adds	r7, #1
    b600:	461d      	mov	r5, r3
    b602:	f8d8 1078 	ldr.w	r1, [r8, #120]
    b606:	428f      	cmp	r7, r1
    b608:	dbdc      	blt.n	b5c4 <_ZN7android22QualcommCameraHardware21releaseRecordingFrameERKNS_2spINS_7IMemoryEEE+0x80>
    b60a:	2500      	movs	r5, #0
    b60c:	f8df 90c0 	ldr.w	r9, [pc, #192]	; b6d0 <_ZN7android22QualcommCameraHardware21releaseRecordingFrameERKNS_2spINS_7IMemoryEEE+0x18c>
    b610:	44f9      	add	r9, pc
    b612:	f8d9 2078 	ldr.w	r2, [r9, #120]
    b616:	4297      	cmp	r7, r2
    b618:	da12      	bge.n	b640 <_ZN7android22QualcommCameraHardware21releaseRecordingFrameERKNS_2spINS_7IMemoryEEE+0xfc>
    b61a:	f104 0058 	add.w	r0, r4, #88	; 0x58
    b61e:	f7fc ffcd 	bl	85bc <_ZN7android22QualcommCameraHardware26receiveJpegPictureFragmentEPhj+0x114>
    b622:	f894 3054 	ldrb.w	r3, [r4, #84]
    b626:	b133      	cbz	r3, b636 <_ZN7android22QualcommCameraHardware21releaseRecordingFrameERKNS_2spINS_7IMemoryEEE+0xf2>
    b628:	f8df c0a8 	ldr.w	ip, [pc, #168]	; b6d4 <_ZN7android22QualcommCameraHardware21releaseRecordingFrameERKNS_2spINS_7IMemoryEEE+0x190>
    b62c:	f856 000c 	ldr.w	r0, [r6, ip]
    b630:	6801      	ldr	r1, [r0, #0]
    b632:	4628      	mov	r0, r5
    b634:	4788      	blx	r1
    b636:	f104 0058 	add.w	r0, r4, #88	; 0x58
    b63a:	f7fc e8e8 	blx	780c <_ZN7android22QualcommCameraHardware18filterPictureSizesEv-0x4e0>
    b63e:	e01f      	b.n	b680 <_ZN7android22QualcommCameraHardware21releaseRecordingFrameERKNS_2spINS_7IMemoryEEE+0x13c>
    b640:	4925      	ldr	r1, [pc, #148]	(b6d8 <_ZN7android22QualcommCameraHardware21releaseRecordingFrameERKNS_2spINS_7IMemoryEEE+0x194>)
    b642:	2006      	movs	r0, #6
    b644:	4a25      	ldr	r2, [pc, #148]	(b6dc <_ZN7android22QualcommCameraHardware21releaseRecordingFrameERKNS_2spINS_7IMemoryEEE+0x198>)
    b646:	2600      	movs	r6, #0
    b648:	4f25      	ldr	r7, [pc, #148]	(b6e0 <_ZN7android22QualcommCameraHardware21releaseRecordingFrameERKNS_2spINS_7IMemoryEEE+0x19c>)
    b64a:	4479      	add	r1, pc
    b64c:	f8df 8094 	ldr.w	r8, [pc, #148]	; b6e4 <_ZN7android22QualcommCameraHardware21releaseRecordingFrameERKNS_2spINS_7IMemoryEEE+0x1a0>
    b650:	447a      	add	r2, pc
    b652:	f7fc e8be 	blx	77d0 <_ZN7android22QualcommCameraHardware18filterPictureSizesEv-0x51c>
    b656:	4635      	mov	r5, r6
    b658:	447f      	add	r7, pc
    b65a:	44f8      	add	r8, pc
    b65c:	e00c      	b.n	b678 <_ZN7android22QualcommCameraHardware21releaseRecordingFrameERKNS_2spINS_7IMemoryEEE+0x134>
    b65e:	f8d4 11dc 	ldr.w	r1, [r4, #476]
    b662:	2006      	movs	r0, #6
    b664:	198b      	adds	r3, r1, r6
    b666:	4639      	mov	r1, r7
    b668:	361c      	adds	r6, #28
    b66a:	685a      	ldr	r2, [r3, #4]
    b66c:	462b      	mov	r3, r5
    b66e:	3501      	adds	r5, #1
    b670:	9200      	str	r2, [sp, #0]
    b672:	4642      	mov	r2, r8
    b674:	f7fc e8ac 	blx	77d0 <_ZN7android22QualcommCameraHardware18filterPictureSizesEv-0x51c>
    b678:	f8d9 0078 	ldr.w	r0, [r9, #120]
    b67c:	4285      	cmp	r5, r0
    b67e:	dbee      	blt.n	b65e <_ZN7android22QualcommCameraHardware21releaseRecordingFrameERKNS_2spINS_7IMemoryEEE+0x11a>
    b680:	9b03      	ldr	r3, [sp, #12]
    b682:	b133      	cbz	r3, b692 <_ZN7android22QualcommCameraHardware21releaseRecordingFrameERKNS_2spINS_7IMemoryEEE+0x14e>
    b684:	681a      	ldr	r2, [r3, #0]
    b686:	f852 1c0c 	ldr.w	r1, [r2, #-12]
    b68a:	1858      	adds	r0, r3, r1
    b68c:	a903      	add	r1, sp, #12
    b68e:	f7fc e8ac 	blx	77e8 <_ZN7android22QualcommCameraHardware18filterPictureSizesEv-0x504>
    b692:	4915      	ldr	r1, [pc, #84]	(b6e8 <_ZN7android22QualcommCameraHardware21releaseRecordingFrameERKNS_2spINS_7IMemoryEEE+0x1a4>)
    b694:	2002      	movs	r0, #2
    b696:	4a15      	ldr	r2, [pc, #84]	(b6ec <_ZN7android22QualcommCameraHardware21releaseRecordingFrameERKNS_2spINS_7IMemoryEEE+0x1a8>)
    b698:	4479      	add	r1, pc
    b69a:	447a      	add	r2, pc
    b69c:	f7fc e898 	blx	77d0 <_ZN7android22QualcommCameraHardware18filterPictureSizesEv-0x51c>
    b6a0:	f104 00b8 	add.w	r0, r4, #184	; 0xb8
    b6a4:	f7fc e8b2 	blx	780c <_ZN7android22QualcommCameraHardware18filterPictureSizesEv-0x4e0>
    b6a8:	b007      	add	sp, #28
    b6aa:	e8bd 83f0 	ldmia.w	sp!, {r4, r5, r6, r7, r8, r9, pc}
    b6ae:	bf00      	nop
    b6b0:	4e41      	ldr	r6, [pc, #260]	(b7b8 <_ZN7android22QualcommCameraHardware9autoFocusEv+0xc8>)
    b6b2:	0000      	lsls	r0, r0, #0
    b6b4:	6327      	str	r7, [r4, #48]
    b6b6:	0000      	lsls	r0, r0, #0
    b6b8:	934c      	str	r3, [sp, #304]
    b6ba:	0000      	lsls	r0, r0, #0
    b6bc:	9176      	str	r1, [sp, #472]
    b6be:	0000      	lsls	r0, r0, #0
    b6c0:	93ca      	str	r3, [sp, #808]
    b6c2:	0000      	lsls	r0, r0, #0
    b6c4:	62e3      	str	r3, [r4, #44]
    b6c6:	0000      	lsls	r0, r0, #0
    b6c8:	4da5      	ldr	r5, [pc, #660]	(b960 <_ZN7android22QualcommCameraHardware10initRecordEv+0x98>)
    b6ca:	0000      	lsls	r0, r0, #0
    b6cc:	62e4      	str	r4, [r4, #44]
    b6ce:	0000      	lsls	r0, r0, #0
    b6d0:	934c      	str	r3, [sp, #304]
    b6d2:	0000      	lsls	r0, r0, #0
    b6d4:	fefc ffff 	mrc2	15, 7, pc, cr12, cr15, {7}
    b6d8:	4d45      	ldr	r5, [pc, #276]	(b7f0 <_ZN7android22QualcommCameraHardware9autoFocusEv+0x100>)
    b6da:	0000      	lsls	r0, r0, #0
    b6dc:	62bf      	str	r7, [r7, #40]
    b6de:	0000      	lsls	r0, r0, #0
    b6e0:	4d37      	ldr	r5, [pc, #220]	(b7c0 <_ZN7android22QualcommCameraHardware9autoFocusEv+0xd0>)
    b6e2:	0000      	lsls	r0, r0, #0
    b6e4:	62ee      	str	r6, [r5, #44]
    b6e6:	0000      	lsls	r0, r0, #0
    b6e8:	4cf7      	ldr	r4, [pc, #988]	(bac8 <_ZN7android22QualcommCameraHardware10initRecordEv+0x200>)
    b6ea:	0000      	lsls	r0, r0, #0
    b6ec:	62cc      	str	r4, [r1, #44]
	...

0000b6f0 <_ZN7android22QualcommCameraHardware9autoFocusEv>:
    b6f0:	e92d 43f0 	stmdb	sp!, {r4, r5, r6, r7, r8, r9, lr}
    b6f4:	4d31      	ldr	r5, [pc, #196]	(b7bc <_ZN7android22QualcommCameraHardware9autoFocusEv+0xcc>)
    b6f6:	4a32      	ldr	r2, [pc, #200]	(b7c0 <_ZN7android22QualcommCameraHardware9autoFocusEv+0xd0>)
    b6f8:	4604      	mov	r4, r0
    b6fa:	447d      	add	r5, pc
    b6fc:	b089      	sub	sp, #36
    b6fe:	447a      	add	r2, pc
    b700:	2002      	movs	r0, #2
    b702:	4629      	mov	r1, r5
    b704:	4f2f      	ldr	r7, [pc, #188]	(b7c4 <_ZN7android22QualcommCameraHardware9autoFocusEv+0xd4>)
    b706:	f7fc e864 	blx	77d0 <_ZN7android22QualcommCameraHardware18filterPictureSizesEv-0x51c>
    b70a:	f104 00a0 	add.w	r0, r4, #160	; 0xa0
    b70e:	f7fc ff55 	bl	85bc <_ZN7android22QualcommCameraHardware26receiveJpegPictureFragmentEPhj+0x114>
    b712:	f8d4 30dc 	ldr.w	r3, [r4, #220]
    b716:	447f      	add	r7, pc
    b718:	2b00      	cmp	r3, #0
    b71a:	da06      	bge.n	b72a <_ZN7android22QualcommCameraHardware9autoFocusEv+0x3a>
    b71c:	4a2a      	ldr	r2, [pc, #168]	(b7c8 <_ZN7android22QualcommCameraHardware9autoFocusEv+0xd8>)
    b71e:	2006      	movs	r0, #6
    b720:	4629      	mov	r1, r5
    b722:	447a      	add	r2, pc
    b724:	f7fc e854 	blx	77d0 <_ZN7android22QualcommCameraHardware18filterPictureSizesEv-0x51c>
    b728:	e017      	b.n	b75a <_ZN7android22QualcommCameraHardware9autoFocusEv+0x6a>
    b72a:	f504 7692 	add.w	r6, r4, #292	; 0x124
    b72e:	4630      	mov	r0, r6
    b730:	f7fc ff44 	bl	85bc <_ZN7android22QualcommCameraHardware26receiveJpegPictureFragmentEPhj+0x114>
    b734:	f894 8122 	ldrb.w	r8, [r4, #290]
    b738:	f1b8 0f00 	cmp.w	r8, #0	; 0x0
    b73c:	d12a      	bne.n	b794 <_ZN7android22QualcommCameraHardware9autoFocusEv+0xa4>
    b73e:	f8d4 00dc 	ldr.w	r0, [r4, #220]
    b742:	f7fd fe01 	bl	9348 <_ZN7android22QualcommCameraHardware13cancelPictureEv+0x44>
    b746:	b958      	cbnz	r0, b760 <_ZN7android22QualcommCameraHardware9autoFocusEv+0x70>
    b748:	4a20      	ldr	r2, [pc, #128]	(b7cc <_ZN7android22QualcommCameraHardware9autoFocusEv+0xdc>)
    b74a:	447a      	add	r2, pc
    b74c:	3006      	adds	r0, #6
    b74e:	4629      	mov	r1, r5
    b750:	f7fc e83e 	blx	77d0 <_ZN7android22QualcommCameraHardware18filterPictureSizesEv-0x51c>
    b754:	4630      	mov	r0, r6
    b756:	f7fc e85a 	blx	780c <_ZN7android22QualcommCameraHardware18filterPictureSizesEv-0x4e0>
    b75a:	f04f 4500 	mov.w	r5, #2147483648	; 0x80000000
    b75e:	e025      	b.n	b7ac <_ZN7android22QualcommCameraHardware9autoFocusEv+0xbc>
    b760:	f10d 0904 	add.w	r9, sp, #4	; 0x4
    b764:	4648      	mov	r0, r9
    b766:	f7fc e90c 	blx	7980 <_ZN7android22QualcommCameraHardware18filterPictureSizesEv-0x36c>
    b76a:	2101      	movs	r1, #1
    b76c:	4648      	mov	r0, r9
    b76e:	f7fc e90e 	blx	798c <_ZN7android22QualcommCameraHardware18filterPictureSizesEv-0x360>
    b772:	4b17      	ldr	r3, [pc, #92]	(b7d0 <_ZN7android22QualcommCameraHardware9autoFocusEv+0xe0>)
    b774:	a807      	add	r0, sp, #28
    b776:	4649      	mov	r1, r9
    b778:	58fa      	ldr	r2, [r7, r3]
    b77a:	4643      	mov	r3, r8
    b77c:	f7fc e90c 	blx	7998 <_ZN7android22QualcommCameraHardware18filterPictureSizesEv-0x354>
    b780:	f1d0 0001 	rsbs	r0, r0, #1	; 0x1
    b784:	bf38      	it	cc
    b786:	2000      	movcc	r0, #0
    b788:	f884 0122 	strb.w	r0, [r4, #290]
    b78c:	b910      	cbnz	r0, b794 <_ZN7android22QualcommCameraHardware9autoFocusEv+0xa4>
    b78e:	4a11      	ldr	r2, [pc, #68]	(b7d4 <_ZN7android22QualcommCameraHardware9autoFocusEv+0xe4>)
    b790:	447a      	add	r2, pc
    b792:	e7db      	b.n	b74c <_ZN7android22QualcommCameraHardware9autoFocusEv+0x5c>
    b794:	f504 7092 	add.w	r0, r4, #292	; 0x124
    b798:	2500      	movs	r5, #0
    b79a:	f7fc e838 	blx	780c <_ZN7android22QualcommCameraHardware18filterPictureSizesEv-0x4e0>
    b79e:	490e      	ldr	r1, [pc, #56]	(b7d8 <_ZN7android22QualcommCameraHardware9autoFocusEv+0xe8>)
    b7a0:	4a0e      	ldr	r2, [pc, #56]	(b7dc <_ZN7android22QualcommCameraHardware9autoFocusEv+0xec>)
    b7a2:	2002      	movs	r0, #2
    b7a4:	4479      	add	r1, pc
    b7a6:	447a      	add	r2, pc
    b7a8:	f7fc e812 	blx	77d0 <_ZN7android22QualcommCameraHardware18filterPictureSizesEv-0x51c>
    b7ac:	f104 00a0 	add.w	r0, r4, #160	; 0xa0
    b7b0:	f7fc e82c 	blx	780c <_ZN7android22QualcommCameraHardware18filterPictureSizesEv-0x4e0>
    b7b4:	4628      	mov	r0, r5
    b7b6:	b009      	add	sp, #36
    b7b8:	e8bd 83f0 	ldmia.w	sp!, {r4, r5, r6, r7, r8, r9, pc}
    b7bc:	4c95      	ldr	r4, [pc, #596]	(ba14 <_ZN7android22QualcommCameraHardware10initRecordEv+0x14c>)
    b7be:	0000      	lsls	r0, r0, #0
    b7c0:	6280      	str	r0, [r0, #40]
    b7c2:	0000      	lsls	r0, r0, #0
    b7c4:	8fde      	ldrh	r6, [r3, #62]
    b7c6:	0000      	lsls	r0, r0, #0
    b7c8:	6268      	str	r0, [r5, #36]
    b7ca:	0000      	lsls	r0, r0, #0
    b7cc:	626b      	str	r3, [r5, #36]
    b7ce:	0000      	lsls	r0, r0, #0
    b7d0:	ff00 ffff 	undefined
    b7d4:	6246      	str	r6, [r0, #36]
    b7d6:	0000      	lsls	r0, r0, #0
    b7d8:	4beb      	ldr	r3, [pc, #940]	(bb88 <_ZN7android22QualcommCameraHardware11initPreviewEv+0x90>)
    b7da:	0000      	lsls	r0, r0, #0
    b7dc:	6251      	str	r1, [r2, #36]
    b7de:	0000      	lsls	r0, r0, #0
    b7e0:	b510      	push	{r4, lr}
    b7e2:	4c12      	ldr	r4, [pc, #72]	(b82c <_ZN7android22QualcommCameraHardware9autoFocusEv+0x13c>)
    b7e4:	4a12      	ldr	r2, [pc, #72]	(b830 <_ZN7android22QualcommCameraHardware9autoFocusEv+0x140>)
    b7e6:	2002      	movs	r0, #2
    b7e8:	447c      	add	r4, pc
    b7ea:	4621      	mov	r1, r4
    b7ec:	447a      	add	r2, pc
    b7ee:	f7fb eff0 	blx	77d0 <_ZN7android22QualcommCameraHardware18filterPictureSizesEv-0x51c>
    b7f2:	4a10      	ldr	r2, [pc, #64]	(b834 <_ZN7android22QualcommCameraHardware9autoFocusEv+0x144>)
    b7f4:	4621      	mov	r1, r4
    b7f6:	2002      	movs	r0, #2
    b7f8:	447a      	add	r2, pc
    b7fa:	f7fb efea 	blx	77d0 <_ZN7android22QualcommCameraHardware18filterPictureSizesEv-0x51c>
    b7fe:	480e      	ldr	r0, [pc, #56]	(b838 <_ZN7android22QualcommCameraHardware9autoFocusEv+0x148>)
    b800:	4478      	add	r0, pc
    b802:	f8d0 4080 	ldr.w	r4, [r0, #128]
    b806:	b17c      	cbz	r4, b828 <_ZN7android22QualcommCameraHardware9autoFocusEv+0x138>
    b808:	307c      	adds	r0, #124
    b80a:	f7fc fbeb 	bl	7fe4 <_Z7dequeueP10fifo_queue>
    b80e:	4604      	mov	r4, r0
    b810:	b110      	cbz	r0, b818 <_ZN7android22QualcommCameraHardware9autoFocusEv+0x128>
    b812:	6804      	ldr	r4, [r0, #0]
    b814:	f7fc e8c6 	blx	79a4 <_ZN7android22QualcommCameraHardware18filterPictureSizesEv-0x348>
    b818:	4908      	ldr	r1, [pc, #32]	(b83c <_ZN7android22QualcommCameraHardware9autoFocusEv+0x14c>)
    b81a:	2002      	movs	r0, #2
    b81c:	4a08      	ldr	r2, [pc, #32]	(b840 <_ZN7android22QualcommCameraHardware9autoFocusEv+0x150>)
    b81e:	4479      	add	r1, pc
    b820:	6863      	ldr	r3, [r4, #4]
    b822:	447a      	add	r2, pc
    b824:	f7fb efd4 	blx	77d0 <_ZN7android22QualcommCameraHardware18filterPictureSizesEv-0x51c>
    b828:	4620      	mov	r0, r4
    b82a:	bd10      	pop	{r4, pc}
    b82c:	4ba7      	ldr	r3, [pc, #668]	(bacc <_ZN7android22QualcommCameraHardware10initRecordEv+0x204>)
    b82e:	0000      	lsls	r0, r0, #0
    b830:	6217      	str	r7, [r2, #32]
    b832:	0000      	lsls	r0, r0, #0
    b834:	6226      	str	r6, [r4, #32]
    b836:	0000      	lsls	r0, r0, #0
    b838:	915c      	str	r1, [sp, #368]
    b83a:	0000      	lsls	r0, r0, #0
    b83c:	4b71      	ldr	r3, [pc, #452]	(ba04 <_ZN7android22QualcommCameraHardware10initRecordEv+0x13c>)
    b83e:	0000      	lsls	r0, r0, #0
    b840:	621d      	str	r5, [r3, #32]
	...

0000b844 <_ZN7android21cam_frame_flush_videoEv>:
    b844:	e92d 41f0 	stmdb	sp!, {r4, r5, r6, r7, r8, lr}
    b848:	4c18      	ldr	r4, [pc, #96]	(b8ac <_ZN7android21cam_frame_flush_videoEv+0x68>)
    b84a:	4919      	ldr	r1, [pc, #100]	(b8b0 <_ZN7android21cam_frame_flush_videoEv+0x6c>)
    b84c:	2002      	movs	r0, #2
    b84e:	447c      	add	r4, pc
    b850:	4a18      	ldr	r2, [pc, #96]	(b8b4 <_ZN7android21cam_frame_flush_videoEv+0x70>)
    b852:	4479      	add	r1, pc
    b854:	4e18      	ldr	r6, [pc, #96]	(b8b8 <_ZN7android21cam_frame_flush_videoEv+0x74>)
    b856:	447a      	add	r2, pc
    b858:	6fe3      	ldr	r3, [r4, #124]
    b85a:	4d18      	ldr	r5, [pc, #96]	(b8bc <_ZN7android21cam_frame_flush_videoEv+0x78>)
    b85c:	f7fb efb8 	blx	77d0 <_ZN7android22QualcommCameraHardware18filterPictureSizesEv-0x51c>
    b860:	f104 0088 	add.w	r0, r4, #136	; 0x88
    b864:	f104 077c 	add.w	r7, r4, #124	; 0x7c
    b868:	f7fb efca 	blx	7800 <_ZN7android22QualcommCameraHardware18filterPictureSizesEv-0x4ec>
    b86c:	447e      	add	r6, pc
    b86e:	447d      	add	r5, pc
    b870:	e00a      	b.n	b888 <_ZN7android21cam_frame_flush_videoEv+0x44>
    b872:	4638      	mov	r0, r7
    b874:	f7fc fbb6 	bl	7fe4 <_Z7dequeueP10fifo_queue>
    b878:	b108      	cbz	r0, b87e <_ZN7android21cam_frame_flush_videoEv+0x3a>
    b87a:	f7fc e894 	blx	79a4 <_ZN7android22QualcommCameraHardware18filterPictureSizesEv-0x348>
    b87e:	2002      	movs	r0, #2
    b880:	4631      	mov	r1, r6
    b882:	462a      	mov	r2, r5
    b884:	f7fb efa4 	blx	77d0 <_ZN7android22QualcommCameraHardware18filterPictureSizesEv-0x51c>
    b888:	f8d4 3080 	ldr.w	r3, [r4, #128]
    b88c:	2b00      	cmp	r3, #0
    b88e:	d1f0      	bne.n	b872 <_ZN7android21cam_frame_flush_videoEv+0x2e>
    b890:	f104 0088 	add.w	r0, r4, #136	; 0x88
    b894:	f7fb efba 	blx	780c <_ZN7android22QualcommCameraHardware18filterPictureSizesEv-0x4e0>
    b898:	4909      	ldr	r1, [pc, #36]	(b8c0 <_ZN7android21cam_frame_flush_videoEv+0x7c>)
    b89a:	4a0a      	ldr	r2, [pc, #40]	(b8c4 <_ZN7android21cam_frame_flush_videoEv+0x80>)
    b89c:	2002      	movs	r0, #2
    b89e:	4479      	add	r1, pc
    b8a0:	6fe3      	ldr	r3, [r4, #124]
    b8a2:	447a      	add	r2, pc
    b8a4:	f7fb ef94 	blx	77d0 <_ZN7android22QualcommCameraHardware18filterPictureSizesEv-0x51c>
    b8a8:	e8bd 81f0 	ldmia.w	sp!, {r4, r5, r6, r7, r8, pc}
    b8ac:	910e      	str	r1, [sp, #56]
    b8ae:	0000      	lsls	r0, r0, #0
    b8b0:	4b3d      	ldr	r3, [pc, #244]	(b9a8 <_ZN7android22QualcommCameraHardware10initRecordEv+0xe0>)
    b8b2:	0000      	lsls	r0, r0, #0
    b8b4:	620a      	str	r2, [r1, #32]
    b8b6:	0000      	lsls	r0, r0, #0
    b8b8:	4b23      	ldr	r3, [pc, #140]	(b948 <_ZN7android22QualcommCameraHardware10initRecordEv+0x80>)
    b8ba:	0000      	lsls	r0, r0, #0
    b8bc:	6214      	str	r4, [r2, #32]
    b8be:	0000      	lsls	r0, r0, #0
    b8c0:	4af1      	ldr	r2, [pc, #964]	(bc88 <_ZN7android22QualcommCameraHardware11initPreviewEv+0x190>)
    b8c2:	0000      	lsls	r0, r0, #0
    b8c4:	61fe      	str	r6, [r7, #28]
	...

0000b8c8 <_ZN7android22QualcommCameraHardware10initRecordEv>:
    b8c8:	4977      	ldr	r1, [pc, #476]	(baa8 <_ZN7android22QualcommCameraHardware10initRecordEv+0x1e0>)
    b8ca:	4a78      	ldr	r2, [pc, #480]	(baac <_ZN7android22QualcommCameraHardware10initRecordEv+0x1e4>)
    b8cc:	e92d 4ff0 	stmdb	sp!, {r4, r5, r6, r7, r8, r9, sl, fp, lr}
    b8d0:	4604      	mov	r4, r0
    b8d2:	4479      	add	r1, pc
    b8d4:	447a      	add	r2, pc
    b8d6:	2002      	movs	r0, #2
    b8d8:	b089      	sub	sp, #36
    b8da:	f7fb ef7a 	blx	77d0 <_ZN7android22QualcommCameraHardware18filterPictureSizesEv-0x51c>
    b8de:	f8b4 6102 	ldrh.w	r6, [r4, #258]
    b8e2:	f8b4 7104 	ldrh.w	r7, [r4, #260]
    b8e6:	2203      	movs	r2, #3
    b8e8:	4b71      	ldr	r3, [pc, #452]	(bab0 <_ZN7android22QualcommCameraHardware10initRecordEv+0x1e8>)
    b8ea:	f8df 81c8 	ldr.w	r8, [pc, #456]	; bab4 <_ZN7android22QualcommCameraHardware10initRecordEv+0x1ec>
    b8ee:	fb07 f506 	mul.w	r5, r7, r6
    b8f2:	44f8      	add	r8, pc
    b8f4:	fb02 f105 	mul.w	r1, r2, r5
    b8f8:	1048      	asrs	r0, r1, #1
    b8fa:	f8c4 00cc 	str.w	r0, [r4, #204]
    b8fe:	447b      	add	r3, pc
    b900:	681b      	ldr	r3, [r3, #0]
    b902:	2b02      	cmp	r3, #2
    b904:	d003      	beq.n	b90e <_ZN7android22QualcommCameraHardware10initRecordEv+0x46>
    b906:	f8df 91b0 	ldr.w	r9, [pc, #432]	; bab8 <_ZN7android22QualcommCameraHardware10initRecordEv+0x1f0>
    b90a:	44f9      	add	r9, pc
    b90c:	e002      	b.n	b914 <_ZN7android22QualcommCameraHardware10initRecordEv+0x4c>
    b90e:	f8df 91ac 	ldr.w	r9, [pc, #428]	; babc <_ZN7android22QualcommCameraHardware10initRecordEv+0x1f4>
    b912:	44f9      	add	r9, pc
    b914:	203c      	movs	r0, #60
    b916:	4e6a      	ldr	r6, [pc, #424]	(bac0 <_ZN7android22QualcommCameraHardware10initRecordEv+0x1f8>)
    b918:	f7fb efc6 	blx	78a8 <_ZN7android22QualcommCameraHardware18filterPictureSizesEv-0x444>
    b91c:	220e      	movs	r2, #14
    b91e:	447e      	add	r6, pc
    b920:	9200      	str	r2, [sp, #0]
    b922:	4b68      	ldr	r3, [pc, #416]	(bac4 <_ZN7android22QualcommCameraHardware10initRecordEv+0x1fc>)
    b924:	f240 2201 	movw	r2, #513	; 0x201
    b928:	f104 0734 	add.w	r7, r4, #52	; 0x34
    b92c:	447b      	add	r3, pc
    b92e:	4605      	mov	r5, r0
    b930:	f8d4 00cc 	ldr.w	r0, [r4, #204]
    b934:	9001      	str	r0, [sp, #4]
    b936:	6fb1      	ldr	r1, [r6, #120]
    b938:	9003      	str	r0, [sp, #12]
    b93a:	4628      	mov	r0, r5
    b93c:	9304      	str	r3, [sp, #16]
    b93e:	9102      	str	r1, [sp, #8]
    b940:	4649      	mov	r1, r9
    b942:	f8d4 30dc 	ldr.w	r3, [r4, #220]
    b946:	f7fd ff6f 	bl	9828 <_ZN7android22QualcommCameraHardware8PmemPoolC1EPKciiiiiiS3_>
    b94a:	4629      	mov	r1, r5
    b94c:	4638      	mov	r0, r7
    b94e:	f7fc fced 	bl	832c <_ZN7android2spINS_22QualcommCameraHardware8PmemPoolEEaSEPS2_>
    b952:	6b60      	ldr	r0, [r4, #52]
    b954:	f7fc f9bc 	bl	7cd0 <_ZN7android22QualcommCameraHardware18filterPictureSizesEv-0x1c>
    b958:	4605      	mov	r5, r0
    b95a:	b148      	cbz	r0, b970 <_ZN7android22QualcommCameraHardware10initRecordEv+0xa8>
    b95c:	46b2      	mov	sl, r6
    b95e:	f8df 9168 	ldr.w	r9, [pc, #360]	; bac8 <_ZN7android22QualcommCameraHardware10initRecordEv+0x200>
    b962:	4e5a      	ldr	r6, [pc, #360]	(bacc <_ZN7android22QualcommCameraHardware10initRecordEv+0x204>)
    b964:	2500      	movs	r5, #0
    b966:	462f      	mov	r7, r5
    b968:	46ab      	mov	fp, r5
    b96a:	447e      	add	r6, pc
    b96c:	44f9      	add	r9, pc
    b96e:	e04c      	b.n	ba0a <_ZN7android22QualcommCameraHardware10initRecordEv+0x142>
    b970:	4638      	mov	r0, r7
    b972:	f7fc fceb 	bl	834c <_ZN7android2spINS_22QualcommCameraHardware8PmemPoolEE5clearEv>
    b976:	4956      	ldr	r1, [pc, #344]	(bad0 <_ZN7android22QualcommCameraHardware10initRecordEv+0x208>)
    b978:	4a56      	ldr	r2, [pc, #344]	(bad4 <_ZN7android22QualcommCameraHardware10initRecordEv+0x20c>)
    b97a:	2006      	movs	r0, #6
    b97c:	4479      	add	r1, pc
    b97e:	447a      	add	r2, pc
    b980:	f7fb ef26 	blx	77d0 <_ZN7android22QualcommCameraHardware18filterPictureSizesEv-0x51c>
    b984:	4628      	mov	r0, r5
    b986:	e08b      	b.n	baa0 <_ZN7android22QualcommCameraHardware10initRecordEv+0x1d8>
    b988:	6b61      	ldr	r1, [r4, #52]
    b98a:	f8d4 01dc 	ldr.w	r0, [r4, #476]
    b98e:	1943      	adds	r3, r0, r5
    b990:	6988      	ldr	r0, [r1, #24]
    b992:	6802      	ldr	r2, [r0, #0]
    b994:	6891      	ldr	r1, [r2, #8]
    b996:	9307      	str	r3, [sp, #28]
    b998:	4788      	blx	r1
    b99a:	9a07      	ldr	r2, [sp, #28]
    b99c:	6110      	str	r0, [r2, #16]
    b99e:	6b60      	ldr	r0, [r4, #52]
    b9a0:	f8d4 31dc 	ldr.w	r3, [r4, #476]
    b9a4:	6982      	ldr	r2, [r0, #24]
    b9a6:	195b      	adds	r3, r3, r5
    b9a8:	6811      	ldr	r1, [r2, #0]
    b9aa:	f851 0c0c 	ldr.w	r0, [r1, #-12]
    b9ae:	9307      	str	r3, [sp, #28]
    b9b0:	1810      	adds	r0, r2, r0
    b9b2:	f7fc f981 	bl	7cb8 <_ZN7android22QualcommCameraHardware18filterPictureSizesEv-0x34>
    b9b6:	6b63      	ldr	r3, [r4, #52]
    b9b8:	9907      	ldr	r1, [sp, #28]
    b9ba:	68da      	ldr	r2, [r3, #12]
    b9bc:	fb02 0007 	mla	r0, r2, r7, r0
    b9c0:	3701      	adds	r7, #1
    b9c2:	6048      	str	r0, [r1, #4]
    b9c4:	f8d4 31dc 	ldr.w	r3, [r4, #476]
    b9c8:	195a      	adds	r2, r3, r5
    b9ca:	f8c2 b008 	str.w	fp, [r2, #8]
    b9ce:	f8b4 0102 	ldrh.w	r0, [r4, #258]
    b9d2:	f8b4 c104 	ldrh.w	ip, [r4, #260]
    b9d6:	f8d4 11dc 	ldr.w	r1, [r4, #476]
    b9da:	fb00 f20c 	mul.w	r2, r0, ip
    b9de:	194b      	adds	r3, r1, r5
    b9e0:	2004      	movs	r0, #4
    b9e2:	60da      	str	r2, [r3, #12]
    b9e4:	f8d4 11dc 	ldr.w	r1, [r4, #476]
    b9e8:	5148      	str	r0, [r1, r5]
    b9ea:	f8d4 31dc 	ldr.w	r3, [r4, #476]
    b9ee:	195b      	adds	r3, r3, r5
    b9f0:	351c      	adds	r5, #28
    b9f2:	691a      	ldr	r2, [r3, #16]
    b9f4:	9200      	str	r2, [sp, #0]
    b9f6:	464a      	mov	r2, r9
    b9f8:	6899      	ldr	r1, [r3, #8]
    b9fa:	9101      	str	r1, [sp, #4]
    b9fc:	4631      	mov	r1, r6
    b9fe:	68d8      	ldr	r0, [r3, #12]
    ba00:	9002      	str	r0, [sp, #8]
    ba02:	2002      	movs	r0, #2
    ba04:	685b      	ldr	r3, [r3, #4]
    ba06:	f7fb eee4 	blx	77d0 <_ZN7android22QualcommCameraHardware18filterPictureSizesEv-0x51c>
    ba0a:	f8da 3078 	ldr.w	r3, [sl, #120]
    ba0e:	429f      	cmp	r7, r3
    ba10:	dbba      	blt.n	b988 <_ZN7android22QualcommCameraHardware10initRecordEv+0xc0>
    ba12:	f104 0664 	add.w	r6, r4, #100	; 0x64
    ba16:	4d30      	ldr	r5, [pc, #192]	(bad8 <_ZN7android22QualcommCameraHardware10initRecordEv+0x210>)
    ba18:	f8df 90c0 	ldr.w	r9, [pc, #192]	; badc <_ZN7android22QualcommCameraHardware10initRecordEv+0x214>
    ba1c:	f7ff ff12 	bl	b844 <_ZN7android21cam_frame_flush_videoEv>
    ba20:	4f2f      	ldr	r7, [pc, #188]	(bae0 <_ZN7android22QualcommCameraHardware10initRecordEv+0x218>)
    ba22:	4630      	mov	r0, r6
    ba24:	f7fc fdca 	bl	85bc <_ZN7android22QualcommCameraHardware26receiveJpegPictureFragmentEPhj+0x114>
    ba28:	f104 0a68 	add.w	sl, r4, #104	; 0x68
    ba2c:	447d      	add	r5, pc
    ba2e:	44f9      	add	r9, pc
    ba30:	447f      	add	r7, pc
    ba32:	e00d      	b.n	ba50 <_ZN7android22QualcommCameraHardware10initRecordEv+0x188>
    ba34:	464a      	mov	r2, r9
    ba36:	4629      	mov	r1, r5
    ba38:	2002      	movs	r0, #2
    ba3a:	f7fb eeca 	blx	77d0 <_ZN7android22QualcommCameraHardware18filterPictureSizesEv-0x51c>
    ba3e:	4631      	mov	r1, r6
    ba40:	4650      	mov	r0, sl
    ba42:	f7fb efb6 	blx	79b0 <_ZN7android22QualcommCameraHardware18filterPictureSizesEv-0x33c>
    ba46:	2002      	movs	r0, #2
    ba48:	4629      	mov	r1, r5
    ba4a:	463a      	mov	r2, r7
    ba4c:	f7fb eec0 	blx	77d0 <_ZN7android22QualcommCameraHardware18filterPictureSizesEv-0x51c>
    ba50:	f894 2061 	ldrb.w	r2, [r4, #97]
    ba54:	2a00      	cmp	r2, #0
    ba56:	d1ed      	bne.n	ba34 <_ZN7android22QualcommCameraHardware10initRecordEv+0x16c>
    ba58:	f8df 9088 	ldr.w	r9, [pc, #136]	; bae4 <_ZN7android22QualcommCameraHardware10initRecordEv+0x21c>
    ba5c:	4630      	mov	r0, r6
    ba5e:	f7fb eed6 	blx	780c <_ZN7android22QualcommCameraHardware18filterPictureSizesEv-0x4e0>
    ba62:	4d21      	ldr	r5, [pc, #132]	(bae8 <_ZN7android22QualcommCameraHardware10initRecordEv+0x220>)
    ba64:	f858 7009 	ldr.w	r7, [r8, r9]
    ba68:	447d      	add	r5, pc
    ba6a:	f8df 9080 	ldr.w	r9, [pc, #128]	; baec <_ZN7android22QualcommCameraHardware10initRecordEv+0x224>
    ba6e:	683e      	ldr	r6, [r7, #0]
    ba70:	2770      	movs	r7, #112
    ba72:	47b0      	blx	r6
    ba74:	2604      	movs	r6, #4
    ba76:	e008      	b.n	ba8a <_ZN7android22QualcommCameraHardware10initRecordEv+0x1c2>
    ba78:	f858 3009 	ldr.w	r3, [r8, r9]
    ba7c:	3601      	adds	r6, #1
    ba7e:	f8d4 01dc 	ldr.w	r0, [r4, #476]
    ba82:	6819      	ldr	r1, [r3, #0]
    ba84:	19c0      	adds	r0, r0, r7
    ba86:	4788      	blx	r1
    ba88:	371c      	adds	r7, #28
    ba8a:	6faa      	ldr	r2, [r5, #120]
    ba8c:	4296      	cmp	r6, r2
    ba8e:	dbf3      	blt.n	ba78 <_ZN7android22QualcommCameraHardware10initRecordEv+0x1b0>
    ba90:	4917      	ldr	r1, [pc, #92]	(baf0 <_ZN7android22QualcommCameraHardware10initRecordEv+0x228>)
    ba92:	2002      	movs	r0, #2
    ba94:	4a17      	ldr	r2, [pc, #92]	(baf4 <_ZN7android22QualcommCameraHardware10initRecordEv+0x22c>)
    ba96:	4479      	add	r1, pc
    ba98:	447a      	add	r2, pc
    ba9a:	f7fb ee9a 	blx	77d0 <_ZN7android22QualcommCameraHardware18filterPictureSizesEv-0x51c>
    ba9e:	2001      	movs	r0, #1
    baa0:	b009      	add	sp, #36
    baa2:	e8bd 8ff0 	ldmia.w	sp!, {r4, r5, r6, r7, r8, r9, sl, fp, pc}
    baa6:	bf00      	nop
    baa8:	4abd      	ldr	r2, [pc, #756]	(bda0 <_ZN7android22QualcommCameraHardware11initPreviewEv+0x2a8>)
    baaa:	0000      	lsls	r0, r0, #0
    baac:	61ef      	str	r7, [r5, #28]
    baae:	0000      	lsls	r0, r0, #0
    bab0:	8fc6      	ldrh	r6, [r0, #62]
    bab2:	0000      	lsls	r0, r0, #0
    bab4:	8e02      	ldrh	r2, [r0, #48]
    bab6:	0000      	lsls	r0, r0, #0
    bab8:	5609      	ldrsb	r1, [r1, r0]
    baba:	0000      	lsls	r0, r0, #0
    babc:	61be      	str	r6, [r7, #24]
    babe:	0000      	lsls	r0, r0, #0
    bac0:	903e      	str	r0, [sp, #248]
    bac2:	0000      	lsls	r0, r0, #0
    bac4:	61b6      	str	r6, [r6, #24]
    bac6:	0000      	lsls	r0, r0, #0
    bac8:	61ad      	str	r5, [r5, #24]
    baca:	0000      	lsls	r0, r0, #0
    bacc:	4a25      	ldr	r2, [pc, #148]	(bb64 <_ZN7android22QualcommCameraHardware11initPreviewEv+0x6c>)
    bace:	0000      	lsls	r0, r0, #0
    bad0:	4a13      	ldr	r2, [pc, #76]	(bb20 <_ZN7android22QualcommCameraHardware11initPreviewEv+0x28>)
    bad2:	0000      	lsls	r0, r0, #0
    bad4:	616b      	str	r3, [r5, #20]
    bad6:	0000      	lsls	r0, r0, #0
    bad8:	4963      	ldr	r1, [pc, #396]	(bc68 <_ZN7android22QualcommCameraHardware11initPreviewEv+0x170>)
    bada:	0000      	lsls	r0, r0, #0
    badc:	613e      	str	r6, [r7, #16]
    bade:	0000      	lsls	r0, r0, #0
    bae0:	6172      	str	r2, [r6, #20]
    bae2:	0000      	lsls	r0, r0, #0
    bae4:	ff04 ffff 	undefined
    bae8:	8ef4      	ldrh	r4, [r6, #54]
    baea:	0000      	lsls	r0, r0, #0
    baec:	fefc ffff 	mrc2	15, 7, pc, cr12, cr15, {7}
    baf0:	48f9      	ldr	r0, [pc, #996]	(bed8 <_ZN7android22QualcommCameraHardware11initPreviewEv+0x3e0>)
    baf2:	0000      	lsls	r0, r0, #0
    baf4:	6133      	str	r3, [r6, #16]
	...

0000baf8 <_ZN7android22QualcommCameraHardware11initPreviewEv>:
    baf8:	e92d 4ff0 	stmdb	sp!, {r4, r5, r6, r7, r8, r9, sl, fp, lr}
    bafc:	4604      	mov	r4, r0
    bafe:	b08f      	sub	sp, #60
    bb00:	f100 0008 	add.w	r0, r0, #8	; 0x8
    bb04:	f504 7101 	add.w	r1, r4, #516	; 0x204
    bb08:	f504 7202 	add.w	r2, r4, #520	; 0x208
    bb0c:	4dd0      	ldr	r5, [pc, #832]	(be50 <_ZN7android22QualcommCameraHardware11initPreviewEv+0x358>)
    bb0e:	f7fb ef26 	blx	795c <_ZN7android22QualcommCameraHardware18filterPictureSizesEv-0x390>
    bb12:	f8d4 7204 	ldr.w	r7, [r4, #516]
    bb16:	2002      	movs	r0, #2
    bb18:	f8d4 6208 	ldr.w	r6, [r4, #520]
    bb1c:	447d      	add	r5, pc
    bb1e:	4acd      	ldr	r2, [pc, #820]	(be54 <_ZN7android22QualcommCameraHardware11initPreviewEv+0x35c>)
    bb20:	463b      	mov	r3, r7
    bb22:	4629      	mov	r1, r5
    bb24:	9701      	str	r7, [sp, #4]
    bb26:	447a      	add	r2, pc
    bb28:	9600      	str	r6, [sp, #0]
    bb2a:	9602      	str	r6, [sp, #8]
    bb2c:	f7fb ee50 	blx	77d0 <_ZN7android22QualcommCameraHardware18filterPictureSizesEv-0x51c>
    bb30:	48c9      	ldr	r0, [pc, #804]	(be58 <_ZN7android22QualcommCameraHardware11initPreviewEv+0x360>)
    bb32:	f8df b328 	ldr.w	fp, [pc, #808]	; be5c <_ZN7android22QualcommCameraHardware11initPreviewEv+0x364>
    bb36:	4478      	add	r0, pc
    bb38:	6800      	ldr	r0, [r0, #0]
    bb3a:	1e83      	subs	r3, r0, #2
    bb3c:	44fb      	add	fp, pc
    bb3e:	2b01      	cmp	r3, #1
    bb40:	d819      	bhi.n	bb76 <_ZN7android22QualcommCameraHardware11initPreviewEv+0x7e>
    bb42:	f64f 72f0 	movw	r2, #65520	; 0xfff0
    bb46:	f8b4 310a 	ldrh.w	r3, [r4, #266]
    bb4a:	ea07 0102 	and.w	r1, r7, r2
    bb4e:	f8b4 710c 	ldrh.w	r7, [r4, #268]
    bb52:	4ac3      	ldr	r2, [pc, #780]	(be60 <_ZN7android22QualcommCameraHardware11initPreviewEv+0x368>)
    bb54:	b2b6      	uxth	r6, r6
    bb56:	f8a4 1102 	strh.w	r1, [r4, #258]
    bb5a:	2002      	movs	r0, #2
    bb5c:	9101      	str	r1, [sp, #4]
    bb5e:	447a      	add	r2, pc
    bb60:	f8a4 6104 	strh.w	r6, [r4, #260]
    bb64:	4629      	mov	r1, r5
    bb66:	f8c4 3204 	str.w	r3, [r4, #516]
    bb6a:	f8c4 7208 	str.w	r7, [r4, #520]
    bb6e:	9700      	str	r7, [sp, #0]
    bb70:	9602      	str	r6, [sp, #8]
    bb72:	f7fb ee2e 	blx	77d0 <_ZN7android22QualcommCameraHardware18filterPictureSizesEv-0x51c>
    bb76:	f104 0558 	add.w	r5, r4, #88	; 0x58
    bb7a:	4eba      	ldr	r6, [pc, #744]	(be64 <_ZN7android22QualcommCameraHardware11initPreviewEv+0x36c>)
    bb7c:	f8df 82e8 	ldr.w	r8, [pc, #744]	; be68 <_ZN7android22QualcommCameraHardware11initPreviewEv+0x370>
    bb80:	4628      	mov	r0, r5
    bb82:	4fba      	ldr	r7, [pc, #744]	(be6c <_ZN7android22QualcommCameraHardware11initPreviewEv+0x374>)
    bb84:	f7fc fd1a 	bl	85bc <_ZN7android22QualcommCameraHardware26receiveJpegPictureFragmentEPhj+0x114>
    bb88:	f104 095c 	add.w	r9, r4, #92	; 0x5c
    bb8c:	447e      	add	r6, pc
    bb8e:	44f8      	add	r8, pc
    bb90:	447f      	add	r7, pc
    bb92:	e00d      	b.n	bbb0 <_ZN7android22QualcommCameraHardware11initPreviewEv+0xb8>
    bb94:	4642      	mov	r2, r8
    bb96:	4631      	mov	r1, r6
    bb98:	2002      	movs	r0, #2
    bb9a:	f7fb ee1a 	blx	77d0 <_ZN7android22QualcommCameraHardware18filterPictureSizesEv-0x51c>
    bb9e:	4629      	mov	r1, r5
    bba0:	4648      	mov	r0, r9
    bba2:	f7fb ef06 	blx	79b0 <_ZN7android22QualcommCameraHardware18filterPictureSizesEv-0x33c>
    bba6:	2002      	movs	r0, #2
    bba8:	4631      	mov	r1, r6
    bbaa:	463a      	mov	r2, r7
    bbac:	f7fb ee10 	blx	77d0 <_ZN7android22QualcommCameraHardware18filterPictureSizesEv-0x51c>
    bbb0:	f894 3054 	ldrb.w	r3, [r4, #84]
    bbb4:	2b00      	cmp	r3, #0
    bbb6:	d1ed      	bne.n	bb94 <_ZN7android22QualcommCameraHardware11initPreviewEv+0x9c>
    bbb8:	4628      	mov	r0, r5
    bbba:	f104 0794 	add.w	r7, r4, #148	; 0x94
    bbbe:	4eac      	ldr	r6, [pc, #688]	(be70 <_ZN7android22QualcommCameraHardware11initPreviewEv+0x378>)
    bbc0:	f7fb ee24 	blx	780c <_ZN7android22QualcommCameraHardware18filterPictureSizesEv-0x4e0>
    bbc4:	f8df 92ac 	ldr.w	r9, [pc, #684]	; be74 <_ZN7android22QualcommCameraHardware11initPreviewEv+0x37c>
    bbc8:	4638      	mov	r0, r7
    bbca:	f8df 82ac 	ldr.w	r8, [pc, #684]	; be78 <_ZN7android22QualcommCameraHardware11initPreviewEv+0x380>
    bbce:	f7fc fcf5 	bl	85bc <_ZN7android22QualcommCameraHardware26receiveJpegPictureFragmentEPhj+0x114>
    bbd2:	f104 0a98 	add.w	sl, r4, #152	; 0x98
    bbd6:	447e      	add	r6, pc
    bbd8:	44f9      	add	r9, pc
    bbda:	44f8      	add	r8, pc
    bbdc:	e00d      	b.n	bbfa <_ZN7android22QualcommCameraHardware11initPreviewEv+0x102>
    bbde:	464a      	mov	r2, r9
    bbe0:	4631      	mov	r1, r6
    bbe2:	2002      	movs	r0, #2
    bbe4:	f7fb edf4 	blx	77d0 <_ZN7android22QualcommCameraHardware18filterPictureSizesEv-0x51c>
    bbe8:	4639      	mov	r1, r7
    bbea:	4650      	mov	r0, sl
    bbec:	f7fb eee0 	blx	79b0 <_ZN7android22QualcommCameraHardware18filterPictureSizesEv-0x33c>
    bbf0:	2002      	movs	r0, #2
    bbf2:	4631      	mov	r1, r6
    bbf4:	4642      	mov	r2, r8
    bbf6:	f7fb edec 	blx	77d0 <_ZN7android22QualcommCameraHardware18filterPictureSizesEv-0x51c>
    bbfa:	f894 3090 	ldrb.w	r3, [r4, #144]
    bbfe:	2b00      	cmp	r3, #0
    bc00:	d1ed      	bne.n	bbde <_ZN7android22QualcommCameraHardware11initPreviewEv+0xe6>
    bc02:	4638      	mov	r0, r7
    bc04:	9307      	str	r3, [sp, #28]
    bc06:	f7fb ee02 	blx	780c <_ZN7android22QualcommCameraHardware18filterPictureSizesEv-0x4e0>
    bc0a:	f8d4 2204 	ldr.w	r2, [r4, #516]
    bc0e:	f8d4 1208 	ldr.w	r1, [r4, #520]
    bc12:	2003      	movs	r0, #3
    bc14:	f8df 8264 	ldr.w	r8, [pc, #612]	; be7c <_ZN7android22QualcommCameraHardware11initPreviewEv+0x384>
    bc18:	9f07      	ldr	r7, [sp, #28]
    bc1a:	fb01 fc02 	mul.w	ip, r1, r2
    bc1e:	44f8      	add	r8, pc
    bc20:	fb00 fa0c 	mul.w	sl, r0, ip
    bc24:	203c      	movs	r0, #60
    bc26:	eb0a 76da 	add.w	r6, sl, sl, lsr #31
    bc2a:	f04f 0a0f 	mov.w	sl, #15	; 0xf
    bc2e:	1073      	asrs	r3, r6, #1
    bc30:	f8c4 30c8 	str.w	r3, [r4, #200]
    bc34:	f8c8 7090 	str.w	r7, [r8, #144]
    bc38:	f104 0830 	add.w	r8, r4, #48	; 0x30
    bc3c:	f7fb ee34 	blx	78a8 <_ZN7android22QualcommCameraHardware18filterPictureSizesEv-0x444>
    bc40:	4f8f      	ldr	r7, [pc, #572]	(be80 <_ZN7android22QualcommCameraHardware11initPreviewEv+0x388>)
    bc42:	f8d4 10c8 	ldr.w	r1, [r4, #200]
    bc46:	f8d4 2200 	ldr.w	r2, [r4, #512]
    bc4a:	447f      	add	r7, pc
    bc4c:	f8d4 30dc 	ldr.w	r3, [r4, #220]
    bc50:	9101      	str	r1, [sp, #4]
    bc52:	9202      	str	r2, [sp, #8]
    bc54:	f240 2201 	movw	r2, #513	; 0x201
    bc58:	9103      	str	r1, [sp, #12]
    bc5a:	4639      	mov	r1, r7
    bc5c:	f8cd a000 	str.w	sl, [sp]
    bc60:	4606      	mov	r6, r0
    bc62:	4888      	ldr	r0, [pc, #544]	(be84 <_ZN7android22QualcommCameraHardware11initPreviewEv+0x38c>)
    bc64:	4478      	add	r0, pc
    bc66:	9004      	str	r0, [sp, #16]
    bc68:	4630      	mov	r0, r6
    bc6a:	f7fd fddd 	bl	9828 <_ZN7android22QualcommCameraHardware8PmemPoolC1EPKciiiiiiS3_>
    bc6e:	4631      	mov	r1, r6
    bc70:	4640      	mov	r0, r8
    bc72:	f7fc fb5b 	bl	832c <_ZN7android2spINS_22QualcommCameraHardware8PmemPoolEEaSEPS2_>
    bc76:	6b20      	ldr	r0, [r4, #48]
    bc78:	f7fc f82a 	bl	7cd0 <_ZN7android22QualcommCameraHardware18filterPictureSizesEv-0x1c>
    bc7c:	4606      	mov	r6, r0
    bc7e:	b950      	cbnz	r0, bc96 <_ZN7android22QualcommCameraHardware11initPreviewEv+0x19e>
    bc80:	4640      	mov	r0, r8
    bc82:	f7fc fb63 	bl	834c <_ZN7android2spINS_22QualcommCameraHardware8PmemPoolEE5clearEv>
    bc86:	4980      	ldr	r1, [pc, #512]	(be88 <_ZN7android22QualcommCameraHardware11initPreviewEv+0x390>)
    bc88:	4a80      	ldr	r2, [pc, #512]	(be8c <_ZN7android22QualcommCameraHardware11initPreviewEv+0x394>)
    bc8a:	2006      	movs	r0, #6
    bc8c:	4479      	add	r1, pc
    bc8e:	447a      	add	r2, pc
    bc90:	f7fb ed9e 	blx	77d0 <_ZN7android22QualcommCameraHardware18filterPictureSizesEv-0x51c>
    bc94:	e0d8      	b.n	be48 <_ZN7android22QualcommCameraHardware11initPreviewEv+0x350>
    bc96:	4b7e      	ldr	r3, [pc, #504]	(be90 <_ZN7android22QualcommCameraHardware11initPreviewEv+0x398>)
    bc98:	447b      	add	r3, pc
    bc9a:	681b      	ldr	r3, [r3, #0]
    bc9c:	2b03      	cmp	r3, #3
    bc9e:	d13a      	bne.n	bd16 <_ZN7android22QualcommCameraHardware11initPreviewEv+0x21e>
    bca0:	f104 0850 	add.w	r8, r4, #80	; 0x50
    bca4:	4640      	mov	r0, r8
    bca6:	f7fc fb51 	bl	834c <_ZN7android2spINS_22QualcommCameraHardware8PmemPoolEE5clearEv>
    bcaa:	6d26      	ldr	r6, [r4, #80]
    bcac:	2e00      	cmp	r6, #0
    bcae:	d132      	bne.n	bd16 <_ZN7android22QualcommCameraHardware11initPreviewEv+0x21e>
    bcb0:	4e78      	ldr	r6, [pc, #480]	(be94 <_ZN7android22QualcommCameraHardware11initPreviewEv+0x39c>)
    bcb2:	2002      	movs	r0, #2
    bcb4:	4a78      	ldr	r2, [pc, #480]	(be98 <_ZN7android22QualcommCameraHardware11initPreviewEv+0x3a0>)
    bcb6:	447e      	add	r6, pc
    bcb8:	447a      	add	r2, pc
    bcba:	4631      	mov	r1, r6
    bcbc:	f7fb ed88 	blx	77d0 <_ZN7android22QualcommCameraHardware18filterPictureSizesEv-0x51c>
    bcc0:	203c      	movs	r0, #60
    bcc2:	f7fb edf2 	blx	78a8 <_ZN7android22QualcommCameraHardware18filterPictureSizesEv-0x444>
    bcc6:	f8d4 10c8 	ldr.w	r1, [r4, #200]
    bcca:	2201      	movs	r2, #1
    bccc:	f8d4 30dc 	ldr.w	r3, [r4, #220]
    bcd0:	9202      	str	r2, [sp, #8]
    bcd2:	f502 7200 	add.w	r2, r2, #512	; 0x200
    bcd6:	9101      	str	r1, [sp, #4]
    bcd8:	9103      	str	r1, [sp, #12]
    bcda:	4639      	mov	r1, r7
    bcdc:	f8cd a000 	str.w	sl, [sp]
    bce0:	4681      	mov	r9, r0
    bce2:	486e      	ldr	r0, [pc, #440]	(be9c <_ZN7android22QualcommCameraHardware11initPreviewEv+0x3a4>)
    bce4:	4478      	add	r0, pc
    bce6:	9004      	str	r0, [sp, #16]
    bce8:	4648      	mov	r0, r9
    bcea:	f7fd fd9d 	bl	9828 <_ZN7android22QualcommCameraHardware8PmemPoolC1EPKciiiiiiS3_>
    bcee:	4649      	mov	r1, r9
    bcf0:	4640      	mov	r0, r8
    bcf2:	f7fc fb1b 	bl	832c <_ZN7android2spINS_22QualcommCameraHardware8PmemPoolEEaSEPS2_>
    bcf6:	6d20      	ldr	r0, [r4, #80]
    bcf8:	f7fb ffea 	bl	7cd0 <_ZN7android22QualcommCameraHardware18filterPictureSizesEv-0x1c>
    bcfc:	4607      	mov	r7, r0
    bcfe:	b950      	cbnz	r0, bd16 <_ZN7android22QualcommCameraHardware11initPreviewEv+0x21e>
    bd00:	4640      	mov	r0, r8
    bd02:	f7fc fb23 	bl	834c <_ZN7android2spINS_22QualcommCameraHardware8PmemPoolEE5clearEv>
    bd06:	4a66      	ldr	r2, [pc, #408]	(bea0 <_ZN7android22QualcommCameraHardware11initPreviewEv+0x3a8>)
    bd08:	4631      	mov	r1, r6
    bd0a:	2006      	movs	r0, #6
    bd0c:	447a      	add	r2, pc
    bd0e:	463e      	mov	r6, r7
    bd10:	f7fb ed5e 	blx	77d0 <_ZN7android22QualcommCameraHardware18filterPictureSizesEv-0x51c>
    bd14:	e098      	b.n	be48 <_ZN7android22QualcommCameraHardware11initPreviewEv+0x350>
    bd16:	4e63      	ldr	r6, [pc, #396]	(bea4 <_ZN7android22QualcommCameraHardware11initPreviewEv+0x3ac>)
    bd18:	447e      	add	r6, pc
    bd1a:	6836      	ldr	r6, [r6, #0]
    bd1c:	1eb3      	subs	r3, r6, #2
    bd1e:	2b01      	cmp	r3, #1
    bd20:	d802      	bhi.n	bd28 <_ZN7android22QualcommCameraHardware11initPreviewEv+0x230>
    bd22:	4620      	mov	r0, r4
    bd24:	f7ff fdd0 	bl	b8c8 <_ZN7android22QualcommCameraHardware10initRecordEv>
    bd28:	f504 7381 	add.w	r3, r4, #258	; 0x102
    bd2c:	4620      	mov	r0, r4
    bd2e:	2101      	movs	r1, #1
    bd30:	2220      	movs	r2, #32
    bd32:	f7fd fc41 	bl	95b8 <_ZN7android22QualcommCameraHardware15native_set_parmEhtPv>
    bd36:	4606      	mov	r6, r0
    bd38:	2800      	cmp	r0, #0
    bd3a:	d07d      	beq.n	be38 <_ZN7android22QualcommCameraHardware11initPreviewEv+0x340>
    bd3c:	2700      	movs	r7, #0
    bd3e:	4626      	mov	r6, r4
    bd40:	46b9      	mov	r9, r7
    bd42:	f04f 0801 	mov.w	r8, #1	; 0x1
    bd46:	6b21      	ldr	r1, [r4, #48]
    bd48:	6988      	ldr	r0, [r1, #24]
    bd4a:	6802      	ldr	r2, [r0, #0]
    bd4c:	6893      	ldr	r3, [r2, #8]
    bd4e:	4798      	blx	r3
    bd50:	f8c6 017c 	str.w	r0, [r6, #380]
    bd54:	6b21      	ldr	r1, [r4, #48]
    bd56:	698b      	ldr	r3, [r1, #24]
    bd58:	681a      	ldr	r2, [r3, #0]
    bd5a:	f852 0c0c 	ldr.w	r0, [r2, #-12]
    bd5e:	1818      	adds	r0, r3, r0
    bd60:	f7fb ffaa 	bl	7cb8 <_ZN7android22QualcommCameraHardware18filterPictureSizesEv-0x34>
    bd64:	6b21      	ldr	r1, [r4, #48]
    bd66:	68cb      	ldr	r3, [r1, #12]
    bd68:	f8c6 9174 	str.w	r9, [r6, #372]
    bd6c:	fb03 0007 	mla	r0, r3, r7, r0
    bd70:	3701      	adds	r7, #1
    bd72:	f8c6 0170 	str.w	r0, [r6, #368]
    bd76:	f8d4 1208 	ldr.w	r1, [r4, #520]
    bd7a:	f8d4 2204 	ldr.w	r2, [r4, #516]
    bd7e:	f8c6 816c 	str.w	r8, [r6, #364]
    bd82:	fb02 f001 	mul.w	r0, r2, r1
    bd86:	f8c6 0178 	str.w	r0, [r6, #376]
    bd8a:	361c      	adds	r6, #28
    bd8c:	2f04      	cmp	r7, #4
    bd8e:	d1da      	bne.n	bd46 <_ZN7android22QualcommCameraHardware11initPreviewEv+0x24e>
    bd90:	af08      	add	r7, sp, #32
    bd92:	4628      	mov	r0, r5
    bd94:	f7fc fc12 	bl	85bc <_ZN7android22QualcommCameraHardware26receiveJpegPictureFragmentEPhj+0x114>
    bd98:	4638      	mov	r0, r7
    bd9a:	f7fb edf2 	blx	7980 <_ZN7android22QualcommCameraHardware18filterPictureSizesEv-0x36c>
    bd9e:	4638      	mov	r0, r7
    bda0:	4641      	mov	r1, r8
    bda2:	f7fb edf4 	blx	798c <_ZN7android22QualcommCameraHardware18filterPictureSizesEv-0x360>
    bda6:	f504 7ee0 	add.w	lr, r4, #448	; 0x1c0
    bdaa:	f8df c0fc 	ldr.w	ip, [pc, #252]	; bea8 <_ZN7android22QualcommCameraHardware11initPreviewEv+0x3b0>
    bdae:	e8be 000f 	ldmia.w	lr!, {r0, r1, r2, r3}
    bdb2:	44fc      	add	ip, pc
    bdb4:	f10c 0798 	add.w	r7, ip, #152	; 0x98
    bdb8:	f10c 06b4 	add.w	r6, ip, #180	; 0xb4
    bdbc:	c70f      	stmia	r7!, {r0, r1, r2, r3}
    bdbe:	e89e 0007 	ldmia.w	lr, {r0, r1, r2}
    bdc2:	e887 0007 	stmia.w	r7, {r0, r1, r2}
    bdc6:	4939      	ldr	r1, [pc, #228]	(beac <_ZN7android22QualcommCameraHardware11initPreviewEv+0x3b4>)
    bdc8:	4479      	add	r1, pc
    bdca:	6809      	ldr	r1, [r1, #0]
    bdcc:	1e8a      	subs	r2, r1, #2
    bdce:	2a01      	cmp	r2, #1
    bdd0:	bf8e      	itee	hi
    bdd2:	f504 77e0 	addhi.w	r7, r4, #448	; 0x1c0
    bdd6:	f8d4 71dc 	ldrls.w	r7, [r4, #476]
    bdda:	3754      	addls	r7, #84
    bddc:	cf0f      	ldmia	r7!, {r0, r1, r2, r3}
    bdde:	c60f      	stmia	r6!, {r0, r1, r2, r3}
    bde0:	e897 0007 	ldmia.w	r7, {r0, r1, r2}
    bde4:	e886 0007 	stmia.w	r6, {r0, r1, r2}
    bde8:	4e31      	ldr	r6, [pc, #196]	(beb0 <_ZN7android22QualcommCameraHardware11initPreviewEv+0x3b8>)
    bdea:	4932      	ldr	r1, [pc, #200]	(beb4 <_ZN7android22QualcommCameraHardware11initPreviewEv+0x3bc>)
    bdec:	447e      	add	r6, pc
    bdee:	4a32      	ldr	r2, [pc, #200]	(beb8 <_ZN7android22QualcommCameraHardware11initPreviewEv+0x3c0>)
    bdf0:	4479      	add	r1, pc
    bdf2:	f8d6 00c4 	ldr.w	r0, [r6, #196]
    bdf6:	447a      	add	r2, pc
    bdf8:	9000      	str	r0, [sp, #0]
    bdfa:	f8d6 30bc 	ldr.w	r3, [r6, #188]
    bdfe:	9301      	str	r3, [sp, #4]
    be00:	f8d6 00c0 	ldr.w	r0, [r6, #192]
    be04:	9002      	str	r0, [sp, #8]
    be06:	2002      	movs	r0, #2
    be08:	f8d6 30b8 	ldr.w	r3, [r6, #184]
    be0c:	f7fb ece0 	blx	77d0 <_ZN7android22QualcommCameraHardware18filterPictureSizesEv-0x51c>
    be10:	f8df c0a8 	ldr.w	ip, [pc, #168]	; bebc <_ZN7android22QualcommCameraHardware11initPreviewEv+0x3c4>
    be14:	f106 0394 	add.w	r3, r6, #148	; 0x94
    be18:	f504 7098 	add.w	r0, r4, #304	; 0x130
    be1c:	a908      	add	r1, sp, #32
    be1e:	f85b 200c 	ldr.w	r2, [fp, ip]
    be22:	f7fb edba 	blx	7998 <_ZN7android22QualcommCameraHardware18filterPictureSizesEv-0x354>
    be26:	f1d0 0601 	rsbs	r6, r0, #1	; 0x1
    be2a:	bf38      	it	cc
    be2c:	2600      	movcc	r6, #0
    be2e:	4628      	mov	r0, r5
    be30:	f884 6054 	strb.w	r6, [r4, #84]
    be34:	f7fb ecea 	blx	780c <_ZN7android22QualcommCameraHardware18filterPictureSizesEv-0x4e0>
    be38:	4921      	ldr	r1, [pc, #132]	(bec0 <_ZN7android22QualcommCameraHardware11initPreviewEv+0x3c8>)
    be3a:	2002      	movs	r0, #2
    be3c:	4a21      	ldr	r2, [pc, #132]	(bec4 <_ZN7android22QualcommCameraHardware11initPreviewEv+0x3cc>)
    be3e:	4633      	mov	r3, r6
    be40:	4479      	add	r1, pc
    be42:	447a      	add	r2, pc
    be44:	f7fb ecc4 	blx	77d0 <_ZN7android22QualcommCameraHardware18filterPictureSizesEv-0x51c>
    be48:	4630      	mov	r0, r6
    be4a:	b00f      	add	sp, #60
    be4c:	e8bd 8ff0 	ldmia.w	sp!, {r4, r5, r6, r7, r8, r9, sl, fp, pc}
    be50:	4873      	ldr	r0, [pc, #460]	(c020 <_ZNK7android22QualcommCameraHardware19debugShowPreviewFPSEv+0x68>)
    be52:	0000      	lsls	r0, r0, #0
    be54:	60b2      	str	r2, [r6, #8]
    be56:	0000      	lsls	r0, r0, #0
    be58:	8d8e      	ldrh	r6, [r1, #44]
    be5a:	0000      	lsls	r0, r0, #0
    be5c:	8bb8      	ldrh	r0, [r7, #28]
    be5e:	0000      	lsls	r0, r0, #0
    be60:	60b0      	str	r0, [r6, #8]
    be62:	0000      	lsls	r0, r0, #0
    be64:	4803      	ldr	r0, [pc, #12]	(be74 <_ZN7android22QualcommCameraHardware11initPreviewEv+0x37c>)
    be66:	0000      	lsls	r0, r0, #0
    be68:	60b5      	str	r5, [r6, #8]
    be6a:	0000      	lsls	r0, r0, #0
    be6c:	60ea      	str	r2, [r5, #12]
    be6e:	0000      	lsls	r0, r0, #0
    be70:	47b9      	undefined
    be72:	0000      	lsls	r0, r0, #0
    be74:	60cb      	str	r3, [r1, #12]
    be76:	0000      	lsls	r0, r0, #0
    be78:	60fd      	str	r5, [r7, #12]
    be7a:	0000      	lsls	r0, r0, #0
    be7c:	8d3e      	ldrh	r6, [r7, #40]
    be7e:	0000      	lsls	r0, r0, #0
    be80:	52c9      	strh	r1, [r1, r3]
    be82:	0000      	lsls	r0, r0, #0
    be84:	4d5c      	ldr	r5, [pc, #368]	(bff8 <_ZNK7android22QualcommCameraHardware19debugShowPreviewFPSEv+0x40>)
    be86:	0000      	lsls	r0, r0, #0
    be88:	4703      	bx	r0
    be8a:	0000      	lsls	r0, r0, #0
    be8c:	606f      	str	r7, [r5, #4]
    be8e:	0000      	lsls	r0, r0, #0
    be90:	8c2c      	ldrh	r4, [r5, #32]
    be92:	0000      	lsls	r0, r0, #0
    be94:	46d9      	mov	r9, fp
    be96:	0000      	lsls	r0, r0, #0
    be98:	607e      	str	r6, [r7, #4]
    be9a:	0000      	lsls	r0, r0, #0
    be9c:	4cd3      	ldr	r4, [pc, #844]	(c1ec <_ZN7android22QualcommCameraHardware19receivePreviewFrameEP9msm_frame+0x18c>)
    be9e:	0000      	lsls	r0, r0, #0
    bea0:	6045      	str	r5, [r0, #4]
    bea2:	0000      	lsls	r0, r0, #0
    bea4:	8bac      	ldrh	r4, [r5, #28]
    bea6:	0000      	lsls	r0, r0, #0
    bea8:	8baa      	ldrh	r2, [r5, #28]
    beaa:	0000      	lsls	r0, r0, #0
    beac:	8afc      	ldrh	r4, [r7, #22]
    beae:	0000      	lsls	r0, r0, #0
    beb0:	8b70      	ldrh	r0, [r6, #26]
    beb2:	0000      	lsls	r0, r0, #0
    beb4:	459f      	cmp	pc, r3
    beb6:	0000      	lsls	r0, r0, #0
    beb8:	5f7f      	ldrsh	r7, [r7, r5]
    beba:	0000      	lsls	r0, r0, #0
    bebc:	ff08 ffff 	undefined
    bec0:	454f      	cmp	r7, r9
    bec2:	0000      	lsls	r0, r0, #0
    bec4:	5f95      	ldrsh	r5, [r2, r6]
    bec6:	0000      	lsls	r0, r0, #0
    bec8:	490c      	ldr	r1, [pc, #48]	(befc <_ZN7android22QualcommCameraHardware11initPreviewEv+0x404>)
    beca:	2002      	movs	r0, #2
    becc:	4a0c      	ldr	r2, [pc, #48]	(bf00 <_ZN7android22QualcommCameraHardware11initPreviewEv+0x408>)
    bece:	4479      	add	r1, pc
    bed0:	b510      	push	{r4, lr}
    bed2:	447a      	add	r2, pc
    bed4:	f7fb ec7c 	blx	77d0 <_ZN7android22QualcommCameraHardware18filterPictureSizesEv-0x51c>
    bed8:	490a      	ldr	r1, [pc, #40]	(bf04 <_ZN7android22QualcommCameraHardware11initPreviewEv+0x40c>)
    beda:	4479      	add	r1, pc
    bedc:	6fcb      	ldr	r3, [r1, #124]
    bede:	2b00      	cmp	r3, #0
    bee0:	dc04      	bgt.n	beec <_ZN7android22QualcommCameraHardware11initPreviewEv+0x3f4>
    bee2:	f101 008c 	add.w	r0, r1, #140	; 0x8c
    bee6:	3188      	adds	r1, #136
    bee8:	f7fb ed62 	blx	79b0 <_ZN7android22QualcommCameraHardware18filterPictureSizesEv-0x33c>
    beec:	4906      	ldr	r1, [pc, #24]	(bf08 <_ZN7android22QualcommCameraHardware11initPreviewEv+0x410>)
    beee:	2002      	movs	r0, #2
    bef0:	4a06      	ldr	r2, [pc, #24]	(bf0c <_ZN7android22QualcommCameraHardware11initPreviewEv+0x414>)
    bef2:	4479      	add	r1, pc
    bef4:	447a      	add	r2, pc
    bef6:	f7fb ec6c 	blx	77d0 <_ZN7android22QualcommCameraHardware18filterPictureSizesEv-0x51c>
    befa:	bd10      	pop	{r4, pc}
    befc:	44c1      	add	r9, r8
    befe:	0000      	lsls	r0, r0, #0
    bf00:	5f17      	ldrsh	r7, [r2, r4]
    bf02:	0000      	lsls	r0, r0, #0
    bf04:	8a82      	ldrh	r2, [r0, #20]
    bf06:	0000      	lsls	r0, r0, #0
    bf08:	449d      	add	sp, r3
    bf0a:	0000      	lsls	r0, r0, #0
    bf0c:	5f0d      	ldrsh	r5, [r1, r4]
	...

0000bf10 <_ZNK7android22QualcommCameraHardware17debugShowVideoFPSEv>:
    bf10:	b5d0      	push	{r4, r6, r7, lr}
    bf12:	ed2d 8b02 	vstmdb	sp!, {d8}
    bf16:	4c24      	ldr	r4, [pc, #144]	(bfa8 <_ZNK7android22QualcommCameraHardware17debugShowVideoFPSEv+0x98>)
    bf18:	b082      	sub	sp, #8
    bf1a:	447c      	add	r4, pc
    bf1c:	f8d4 00d0 	ldr.w	r0, [r4, #208]
    bf20:	1c43      	adds	r3, r0, #1
    bf22:	2001      	movs	r0, #1
    bf24:	f8c4 30d0 	str.w	r3, [r4, #208]
    bf28:	f7fb ed48 	blx	79bc <_ZN7android22QualcommCameraHardware18filterPictureSizesEv-0x330>
    bf2c:	e9d4 2336 	ldrd	r2, r3, [r4, #216]
    bf30:	4606      	mov	r6, r0
    bf32:	460f      	mov	r7, r1
    bf34:	1a80      	subs	r0, r0, r2
    bf36:	eb61 0103 	sbc.w	r1, r1, r3
    bf3a:	2900      	cmp	r1, #0
    bf3c:	dc03      	bgt.n	bf46 <_ZNK7android22QualcommCameraHardware17debugShowVideoFPSEv+0x36>
    bf3e:	d12a      	bne.n	bf96 <_ZNK7android22QualcommCameraHardware17debugShowVideoFPSEv+0x86>
    bf40:	4a17      	ldr	r2, [pc, #92]	(bfa0 <_ZNK7android22QualcommCameraHardware17debugShowVideoFPSEv+0x90>)
    bf42:	4290      	cmp	r0, r2
    bf44:	d927      	bls.n	bf96 <_ZNK7android22QualcommCameraHardware17debugShowVideoFPSEv+0x86>
    bf46:	4c19      	ldr	r4, [pc, #100]	(bfac <_ZNK7android22QualcommCameraHardware17debugShowVideoFPSEv+0x9c>)
    bf48:	ed9f 0a16 	flds	s0, [pc, #88]
    bf4c:	447c      	add	r4, pc
    bf4e:	f8d4 20d0 	ldr.w	r2, [r4, #208]
    bf52:	f8d4 30e0 	ldr.w	r3, [r4, #224]
    bf56:	1ad3      	subs	r3, r2, r3
    bf58:	ee00 3a90 	fmsr	s1, r3
    bf5c:	eeb8 7ae0 	fsitos	s14, s1
    bf60:	ee27 8a00 	fmuls	s16, s14, s0
    bf64:	f7fb ed30 	blx	79c8 <_ZN7android22QualcommCameraHardware18filterPictureSizesEv-0x324>
    bf68:	4911      	ldr	r1, [pc, #68]	(bfb0 <_ZNK7android22QualcommCameraHardware17debugShowVideoFPSEv+0xa0>)
    bf6a:	4a12      	ldr	r2, [pc, #72]	(bfb4 <_ZNK7android22QualcommCameraHardware17debugShowVideoFPSEv+0xa4>)
    bf6c:	4479      	add	r1, pc
    bf6e:	447a      	add	r2, pc
    bf70:	ee07 0a90 	fmsr	s15, r0
    bf74:	eec8 7a27 	fdivs	s15, s16, s15
    bf78:	2004      	movs	r0, #4
    bf7a:	eef7 0ae7 	fcvtds	d16, s15
    bf7e:	edc4 7a39 	fsts	s15, [r4, #228]
    bf82:	edcd 0b00 	vstr	d16, [sp]
    bf86:	f7fb ec24 	blx	77d0 <_ZN7android22QualcommCameraHardware18filterPictureSizesEv-0x51c>
    bf8a:	f8d4 10d0 	ldr.w	r1, [r4, #208]
    bf8e:	e9c4 6736 	strd	r6, r7, [r4, #216]
    bf92:	f8c4 10e0 	str.w	r1, [r4, #224]
    bf96:	b002      	add	sp, #8
    bf98:	ecbd 8b02 	vldmia	sp!, {d8}
    bf9c:	bdd0      	pop	{r4, r6, r7, pc}
    bf9e:	bf00      	nop
    bfa0:	b280      	uxth	r0, r0
    bfa2:	0ee6      	lsrs	r6, r4, #27
    bfa4:	6b28      	ldr	r0, [r5, #48]
    bfa6:	4e6e      	ldr	r6, [pc, #440]	(c160 <_ZN7android22QualcommCameraHardware19receivePreviewFrameEP9msm_frame+0x100>)
    bfa8:	8a42      	ldrh	r2, [r0, #18]
    bfaa:	0000      	lsls	r0, r0, #0
    bfac:	8a10      	ldrh	r0, [r2, #16]
    bfae:	0000      	lsls	r0, r0, #0
    bfb0:	4423      	add	r3, r4
    bfb2:	0000      	lsls	r0, r0, #0
    bfb4:	5eaa      	ldrsh	r2, [r5, r2]
	...

0000bfb8 <_ZNK7android22QualcommCameraHardware19debugShowPreviewFPSEv>:
    bfb8:	b5d0      	push	{r4, r6, r7, lr}
    bfba:	ed2d 8b02 	vstmdb	sp!, {d8}
    bfbe:	4c24      	ldr	r4, [pc, #144]	(c050 <_ZNK7android22QualcommCameraHardware19debugShowPreviewFPSEv+0x98>)
    bfc0:	b082      	sub	sp, #8
    bfc2:	447c      	add	r4, pc
    bfc4:	f8d4 00e8 	ldr.w	r0, [r4, #232]
    bfc8:	1c43      	adds	r3, r0, #1
    bfca:	2001      	movs	r0, #1
    bfcc:	f8c4 30e8 	str.w	r3, [r4, #232]
    bfd0:	f7fb ecf4 	blx	79bc <_ZN7android22QualcommCameraHardware18filterPictureSizesEv-0x330>
    bfd4:	e9d4 233c 	ldrd	r2, r3, [r4, #240]
    bfd8:	4606      	mov	r6, r0
    bfda:	460f      	mov	r7, r1
    bfdc:	1a80      	subs	r0, r0, r2
    bfde:	eb61 0103 	sbc.w	r1, r1, r3
    bfe2:	2900      	cmp	r1, #0
    bfe4:	dc03      	bgt.n	bfee <_ZNK7android22QualcommCameraHardware19debugShowPreviewFPSEv+0x36>
    bfe6:	d12a      	bne.n	c03e <_ZNK7android22QualcommCameraHardware19debugShowPreviewFPSEv+0x86>
    bfe8:	4a17      	ldr	r2, [pc, #92]	(c048 <_ZNK7android22QualcommCameraHardware19debugShowPreviewFPSEv+0x90>)
    bfea:	4290      	cmp	r0, r2
    bfec:	d927      	bls.n	c03e <_ZNK7android22QualcommCameraHardware19debugShowPreviewFPSEv+0x86>
    bfee:	4c19      	ldr	r4, [pc, #100]	(c054 <_ZNK7android22QualcommCameraHardware19debugShowPreviewFPSEv+0x9c>)
    bff0:	ed9f 0a16 	flds	s0, [pc, #88]
    bff4:	447c      	add	r4, pc
    bff6:	f8d4 20e8 	ldr.w	r2, [r4, #232]
    bffa:	f8d4 30f8 	ldr.w	r3, [r4, #248]
    bffe:	1ad3      	subs	r3, r2, r3
    c000:	ee00 3a90 	fmsr	s1, r3
    c004:	eeb8 7ae0 	fsitos	s14, s1
    c008:	ee27 8a00 	fmuls	s16, s14, s0
    c00c:	f7fb ecdc 	blx	79c8 <_ZN7android22QualcommCameraHardware18filterPictureSizesEv-0x324>
    c010:	4911      	ldr	r1, [pc, #68]	(c058 <_ZNK7android22QualcommCameraHardware19debugShowPreviewFPSEv+0xa0>)
    c012:	4a12      	ldr	r2, [pc, #72]	(c05c <_ZNK7android22QualcommCameraHardware19debugShowPreviewFPSEv+0xa4>)
    c014:	4479      	add	r1, pc
    c016:	447a      	add	r2, pc
    c018:	ee07 0a90 	fmsr	s15, r0
    c01c:	eec8 7a27 	fdivs	s15, s16, s15
    c020:	2004      	movs	r0, #4
    c022:	eef7 0ae7 	fcvtds	d16, s15
    c026:	edc4 7a3f 	fsts	s15, [r4, #252]
    c02a:	edcd 0b00 	vstr	d16, [sp]
    c02e:	f7fb ebd0 	blx	77d0 <_ZN7android22QualcommCameraHardware18filterPictureSizesEv-0x51c>
    c032:	f8d4 10e8 	ldr.w	r1, [r4, #232]
    c036:	e9c4 673c 	strd	r6, r7, [r4, #240]
    c03a:	f8c4 10f8 	str.w	r1, [r4, #248]
    c03e:	b002      	add	sp, #8
    c040:	ecbd 8b02 	vldmia	sp!, {d8}
    c044:	bdd0      	pop	{r4, r6, r7, pc}
    c046:	bf00      	nop
    c048:	b280      	uxth	r0, r0
    c04a:	0ee6      	lsrs	r6, r4, #27
    c04c:	6b28      	ldr	r0, [r5, #48]
    c04e:	4e6e      	ldr	r6, [pc, #440]	(c208 <_ZN7android22QualcommCameraHardware19receivePreviewFrameEP9msm_frame+0x1a8>)
    c050:	899a      	ldrh	r2, [r3, #12]
    c052:	0000      	lsls	r0, r0, #0
    c054:	8968      	ldrh	r0, [r5, #10]
    c056:	0000      	lsls	r0, r0, #0
    c058:	437b      	muls	r3, r7
    c05a:	0000      	lsls	r0, r0, #0
    c05c:	5e20      	ldrsh	r0, [r4, r0]
	...

0000c060 <_ZN7android22QualcommCameraHardware19receivePreviewFrameEP9msm_frame>:
    c060:	e92d 4ff0 	stmdb	sp!, {r4, r5, r6, r7, r8, r9, sl, fp, lr}
    c064:	ed2d 8b02 	vstmdb	sp!, {d8}
    c068:	f890 3024 	ldrb.w	r3, [r0, #36]
    c06c:	b087      	sub	sp, #28
    c06e:	4604      	mov	r4, r0
    c070:	460d      	mov	r5, r1
    c072:	b93b      	cbnz	r3, c084 <_ZN7android22QualcommCameraHardware19receivePreviewFrameEP9msm_frame+0x24>
    c074:	4965      	ldr	r1, [pc, #404]	(c20c <_ZN7android22QualcommCameraHardware19receivePreviewFrameEP9msm_frame+0x1ac>)
    c076:	2006      	movs	r0, #6
    c078:	4a65      	ldr	r2, [pc, #404]	(c210 <_ZN7android22QualcommCameraHardware19receivePreviewFrameEP9msm_frame+0x1b0>)
    c07a:	4479      	add	r1, pc
    c07c:	447a      	add	r2, pc
    c07e:	f7fb eba8 	blx	77d0 <_ZN7android22QualcommCameraHardware18filterPictureSizesEv-0x51c>
    c082:	e0bc      	b.n	c1fe <_ZN7android22QualcommCameraHardware19receivePreviewFrameEP9msm_frame+0x19e>
    c084:	f8d0 01fc 	ldr.w	r0, [r0, #508]
    c088:	b110      	cbz	r0, c090 <_ZN7android22QualcommCameraHardware19receivePreviewFrameEP9msm_frame+0x30>
    c08a:	4620      	mov	r0, r4
    c08c:	f7ff ff94 	bl	bfb8 <_ZNK7android22QualcommCameraHardware19debugShowPreviewFPSEv>
    c090:	f104 06ac 	add.w	r6, r4, #172	; 0xac
    c094:	4630      	mov	r0, r6
    c096:	f7fc fa91 	bl	85bc <_ZN7android22QualcommCameraHardware26receiveJpegPictureFragmentEPhj+0x114>
    c09a:	4630      	mov	r0, r6
    c09c:	f8d4 81e8 	ldr.w	r8, [r4, #488]
    c0a0:	f8d4 71f0 	ldr.w	r7, [r4, #496]
    c0a4:	f8d4 91f8 	ldr.w	r9, [r4, #504]
    c0a8:	f8d4 a1f4 	ldr.w	sl, [r4, #500]
    c0ac:	f7fb ebae 	blx	780c <_ZN7android22QualcommCameraHardware18filterPictureSizesEv-0x4e0>
    c0b0:	6b22      	ldr	r2, [r4, #48]
    c0b2:	686e      	ldr	r6, [r5, #4]
    c0b4:	6993      	ldr	r3, [r2, #24]
    c0b6:	6818      	ldr	r0, [r3, #0]
    c0b8:	f850 1c0c 	ldr.w	r1, [r0, #-12]
    c0bc:	1858      	adds	r0, r3, r1
    c0be:	f7fb fdfb 	bl	7cb8 <_ZN7android22QualcommCameraHardware18filterPictureSizesEv-0x34>
    c0c2:	6b23      	ldr	r3, [r4, #48]
    c0c4:	68d9      	ldr	r1, [r3, #12]
    c0c6:	696b      	ldr	r3, [r5, #20]
    c0c8:	2501      	movs	r5, #1
    c0ca:	f884 51e0 	strb.w	r5, [r4, #480]
    c0ce:	691a      	ldr	r2, [r3, #16]
    c0d0:	1a36      	subs	r6, r6, r0
    c0d2:	b91a      	cbnz	r2, c0dc <_ZN7android22QualcommCameraHardware19receivePreviewFrameEP9msm_frame+0x7c>
    c0d4:	695d      	ldr	r5, [r3, #20]
    c0d6:	4630      	mov	r0, r6
    c0d8:	2d00      	cmp	r5, #0
    c0da:	d032      	beq.n	c142 <_ZN7android22QualcommCameraHardware19receivePreviewFrameEP9msm_frame+0xe2>
    c0dc:	f8df b134 	ldr.w	fp, [pc, #308]	; c214 <_ZN7android22QualcommCameraHardware19receivePreviewFrameEP9msm_frame+0x1b4>
    c0e0:	4949      	ldr	r1, [pc, #292]	(c208 <_ZN7android22QualcommCameraHardware19receivePreviewFrameEP9msm_frame+0x1a8>)
    c0e2:	44fb      	add	fp, pc
    c0e4:	f8db 2090 	ldr.w	r2, [fp, #144]
    c0e8:	1c50      	adds	r0, r2, #1
    c0ea:	ea00 0501 	and.w	r5, r0, r1
    c0ee:	2d00      	cmp	r5, #0
    c0f0:	da05      	bge.n	c0fe <_ZN7android22QualcommCameraHardware19receivePreviewFrameEP9msm_frame+0x9e>
    c0f2:	1e69      	subs	r1, r5, #1
    c0f4:	ea6f 7cc1 	mvn.w	ip, r1, lsl #31
    c0f8:	ea6f 75dc 	mvn.w	r5, ip, lsr #31
    c0fc:	3501      	adds	r5, #1
    c0fe:	f8df e118 	ldr.w	lr, [pc, #280]	; c218 <_ZN7android22QualcommCameraHardware19receivePreviewFrameEP9msm_frame+0x1b8>
    c102:	44fe      	add	lr, pc
    c104:	f8ce 5090 	str.w	r5, [lr, #144]
    c108:	3504      	adds	r5, #4
    c10a:	6b22      	ldr	r2, [r4, #48]
    c10c:	68d0      	ldr	r0, [r2, #12]
    c10e:	fb00 fb05 	mul.w	fp, r0, r5
    c112:	6990      	ldr	r0, [r2, #24]
    c114:	6801      	ldr	r1, [r0, #0]
    c116:	688a      	ldr	r2, [r1, #8]
    c118:	9303      	str	r3, [sp, #12]
    c11a:	4790      	blx	r2
    c11c:	9b03      	ldr	r3, [sp, #12]
    c11e:	4632      	mov	r2, r6
    c120:	9300      	str	r3, [sp, #0]
    c122:	465b      	mov	r3, fp
    c124:	4601      	mov	r1, r0
    c126:	4620      	mov	r0, r4
    c128:	f7fc fdce 	bl	8cc8 <_ZN7android22QualcommCameraHardware17native_zoom_imageEiiiP13common_crop_t>
    c12c:	b960      	cbnz	r0, c148 <_ZN7android22QualcommCameraHardware19receivePreviewFrameEP9msm_frame+0xe8>
    c12e:	493b      	ldr	r1, [pc, #236]	(c21c <_ZN7android22QualcommCameraHardware19receivePreviewFrameEP9msm_frame+0x1bc>)
    c130:	3006      	adds	r0, #6
    c132:	4a3b      	ldr	r2, [pc, #236]	(c220 <_ZN7android22QualcommCameraHardware19receivePreviewFrameEP9msm_frame+0x1c0>)
    c134:	4479      	add	r1, pc
    c136:	447a      	add	r2, pc
    c138:	f7fb eb4a 	blx	77d0 <_ZN7android22QualcommCameraHardware18filterPictureSizesEv-0x51c>
    c13c:	6b25      	ldr	r5, [r4, #48]
    c13e:	4630      	mov	r0, r6
    c140:	68e9      	ldr	r1, [r5, #12]
    c142:	f7fb eb0a 	blx	7758 <_ZN7android22QualcommCameraHardware18filterPictureSizesEv-0x594>
    c146:	4605      	mov	r5, r0
    c148:	b18f      	cbz	r7, c16e <_ZN7android22QualcommCameraHardware19receivePreviewFrameEP9msm_frame+0x10e>
    c14a:	f018 0f10 	tst.w	r8, #16	; 0x10
    c14e:	d00e      	beq.n	c16e <_ZN7android22QualcommCameraHardware19receivePreviewFrameEP9msm_frame+0x10e>
    c150:	6b23      	ldr	r3, [r4, #48]
    c152:	ae05      	add	r6, sp, #20
    c154:	4630      	mov	r0, r6
    c156:	69d9      	ldr	r1, [r3, #28]
    c158:	eb01 0185 	add.w	r1, r1, r5, lsl #2
    c15c:	f7fb ffae 	bl	80bc <_ZN7android2spINS_7IMemoryEEC1INS_10MemoryBaseEEERKNS0_IT_EE>
    c160:	2010      	movs	r0, #16
    c162:	4631      	mov	r1, r6
    c164:	464a      	mov	r2, r9
    c166:	47b8      	blx	r7
    c168:	4630      	mov	r0, r6
    c16a:	f7fc f8a7 	bl	82bc <_ZN7android2spINS_7IMemoryEED1Ev>
    c16e:	482d      	ldr	r0, [pc, #180]	(c224 <_ZN7android22QualcommCameraHardware19receivePreviewFrameEP9msm_frame+0x1c4>)
    c170:	4478      	add	r0, pc
    c172:	6800      	ldr	r0, [r0, #0]
    c174:	1e82      	subs	r2, r0, #2
    c176:	2a01      	cmp	r2, #1
    c178:	d93e      	bls.n	c1f8 <_ZN7android22QualcommCameraHardware19receivePreviewFrameEP9msm_frame+0x198>
    c17a:	f1ba 0f00 	cmp.w	sl, #0	; 0x0
    c17e:	d03b      	beq.n	c1f8 <_ZN7android22QualcommCameraHardware19receivePreviewFrameEP9msm_frame+0x198>
    c180:	f018 0f20 	tst.w	r8, #32	; 0x20
    c184:	d038      	beq.n	c1f8 <_ZN7android22QualcommCameraHardware19receivePreviewFrameEP9msm_frame+0x198>
    c186:	2001      	movs	r0, #1
    c188:	ae04      	add	r6, sp, #16
    c18a:	f7fb ec18 	blx	79bc <_ZN7android22QualcommCameraHardware18filterPictureSizesEv-0x330>
    c18e:	6b22      	ldr	r2, [r4, #48]
    c190:	ec41 0b18 	vmov	d8, r0, r1
    c194:	69d1      	ldr	r1, [r2, #28]
    c196:	4630      	mov	r0, r6
    c198:	eb01 0185 	add.w	r1, r1, r5, lsl #2
    c19c:	f7fb ff8e 	bl	80bc <_ZN7android2spINS_7IMemoryEEC1INS_10MemoryBaseEEERKNS0_IT_EE>
    c1a0:	4633      	mov	r3, r6
    c1a2:	ec51 0b18 	vmov	r0, r1, d8
    c1a6:	2220      	movs	r2, #32
    c1a8:	f8cd 9000 	str.w	r9, [sp]
    c1ac:	47d0      	blx	sl
    c1ae:	4630      	mov	r0, r6
    c1b0:	f104 06b8 	add.w	r6, r4, #184	; 0xb8
    c1b4:	f7fc f882 	bl	82bc <_ZN7android2spINS_7IMemoryEED1Ev>
    c1b8:	4630      	mov	r0, r6
    c1ba:	f7fc f9ff 	bl	85bc <_ZN7android22QualcommCameraHardware26receiveJpegPictureFragmentEPhj+0x114>
    c1be:	f894 30a9 	ldrb.w	r3, [r4, #169]
    c1c2:	b993      	cbnz	r3, c1ea <_ZN7android22QualcommCameraHardware19receivePreviewFrameEP9msm_frame+0x18a>
    c1c4:	4d18      	ldr	r5, [pc, #96]	(c228 <_ZN7android22QualcommCameraHardware19receivePreviewFrameEP9msm_frame+0x1c8>)
    c1c6:	2002      	movs	r0, #2
    c1c8:	4a18      	ldr	r2, [pc, #96]	(c22c <_ZN7android22QualcommCameraHardware19receivePreviewFrameEP9msm_frame+0x1cc>)
    c1ca:	447d      	add	r5, pc
    c1cc:	447a      	add	r2, pc
    c1ce:	4629      	mov	r1, r5
    c1d0:	f7fb eafe 	blx	77d0 <_ZN7android22QualcommCameraHardware18filterPictureSizesEv-0x51c>
    c1d4:	4631      	mov	r1, r6
    c1d6:	f104 00bc 	add.w	r0, r4, #188	; 0xbc
    c1da:	f7fb ebea 	blx	79b0 <_ZN7android22QualcommCameraHardware18filterPictureSizesEv-0x33c>
    c1de:	4a14      	ldr	r2, [pc, #80]	(c230 <_ZN7android22QualcommCameraHardware19receivePreviewFrameEP9msm_frame+0x1d0>)
    c1e0:	2002      	movs	r0, #2
    c1e2:	4629      	mov	r1, r5
    c1e4:	447a      	add	r2, pc
    c1e6:	f7fb eaf4 	blx	77d0 <_ZN7android22QualcommCameraHardware18filterPictureSizesEv-0x51c>
    c1ea:	2000      	movs	r0, #0
    c1ec:	f884 00a9 	strb.w	r0, [r4, #169]
    c1f0:	f104 00b8 	add.w	r0, r4, #184	; 0xb8
    c1f4:	f7fb eb0a 	blx	780c <_ZN7android22QualcommCameraHardware18filterPictureSizesEv-0x4e0>
    c1f8:	2300      	movs	r3, #0
    c1fa:	f884 31e0 	strb.w	r3, [r4, #480]
    c1fe:	b007      	add	sp, #28
    c200:	ecbd 8b02 	vldmia	sp!, {d8}
    c204:	e8bd 8ff0 	ldmia.w	sp!, {r4, r5, r6, r7, r8, r9, sl, fp, pc}
    c208:	0001      	lsls	r1, r0, #0
    c20a:	8000      	strh	r0, [r0, #0]
    c20c:	4315      	orrs	r5, r2
    c20e:	0000      	lsls	r0, r0, #0
    c210:	5dda      	ldrb	r2, [r3, r7]
    c212:	0000      	lsls	r0, r0, #0
    c214:	887a      	ldrh	r2, [r7, #2]
    c216:	0000      	lsls	r0, r0, #0
    c218:	885a      	ldrh	r2, [r3, #2]
    c21a:	0000      	lsls	r0, r0, #0
    c21c:	425b      	negs	r3, r3
    c21e:	0000      	lsls	r0, r0, #0
    c220:	5d53      	ldrb	r3, [r2, r5]
    c222:	0000      	lsls	r0, r0, #0
    c224:	8754      	strh	r4, [r2, #58]
    c226:	0000      	lsls	r0, r0, #0
    c228:	41c5      	rors	r5, r0
    c22a:	0000      	lsls	r0, r0, #0
    c22c:	5cda      	ldrb	r2, [r3, r3]
    c22e:	0000      	lsls	r0, r0, #0
    c230:	5ce2      	ldrb	r2, [r4, r3]
	...

0000c234 <_ZN7android22QualcommCameraHardware14runVideoThreadEPv>:
    c234:	e92d 4ff0 	stmdb	sp!, {r4, r5, r6, r7, r8, r9, sl, fp, lr}
    c238:	ed2d 8b02 	vstmdb	sp!, {d8}
    c23c:	497b      	ldr	r1, [pc, #492]	(c42c <_ZN7android22QualcommCameraHardware14runVideoThreadEPv+0x1f8>)
    c23e:	4a7c      	ldr	r2, [pc, #496]	(c430 <_ZN7android22QualcommCameraHardware14runVideoThreadEPv+0x1fc>)
    c240:	b08b      	sub	sp, #44
    c242:	f8df 81f0 	ldr.w	r8, [pc, #496]	; c434 <_ZN7android22QualcommCameraHardware14runVideoThreadEPv+0x200>
    c246:	4604      	mov	r4, r0
    c248:	4e7b      	ldr	r6, [pc, #492]	(c438 <_ZN7android22QualcommCameraHardware14runVideoThreadEPv+0x204>)
    c24a:	447a      	add	r2, pc
    c24c:	f8df a1ec 	ldr.w	sl, [pc, #492]	; c43c <_ZN7android22QualcommCameraHardware14runVideoThreadEPv+0x208>
    c250:	4479      	add	r1, pc
    c252:	2003      	movs	r0, #3
    c254:	44f8      	add	r8, pc
    c256:	f7fb eabc 	blx	77d0 <_ZN7android22QualcommCameraHardware18filterPictureSizesEv-0x51c>
    c25a:	f104 0564 	add.w	r5, r4, #100	; 0x64
    c25e:	4b78      	ldr	r3, [pc, #480]	(c440 <_ZN7android22QualcommCameraHardware14runVideoThreadEPv+0x20c>)
    c260:	f108 0888 	add.w	r8, r8, #136	; 0x88
    c264:	4a77      	ldr	r2, [pc, #476]	(c444 <_ZN7android22QualcommCameraHardware14runVideoThreadEPv+0x210>)
    c266:	447e      	add	r6, pc
    c268:	44fa      	add	sl, pc
    c26a:	f104 00ac 	add.w	r0, r4, #172	; 0xac
    c26e:	447b      	add	r3, pc
    c270:	447a      	add	r2, pc
    c272:	9005      	str	r0, [sp, #20]
    c274:	9303      	str	r3, [sp, #12]
    c276:	9204      	str	r2, [sp, #16]
    c278:	4640      	mov	r0, r8
    c27a:	f7fb eac2 	blx	7800 <_ZN7android22QualcommCameraHardware18filterPictureSizesEv-0x4ec>
    c27e:	4628      	mov	r0, r5
    c280:	f7fc f99c 	bl	85bc <_ZN7android22QualcommCameraHardware26receiveJpegPictureFragmentEPhj+0x114>
    c284:	f894 1060 	ldrb.w	r1, [r4, #96]
    c288:	b129      	cbz	r1, c296 <_ZN7android22QualcommCameraHardware14runVideoThreadEPv+0x62>
    c28a:	496f      	ldr	r1, [pc, #444]	(c448 <_ZN7android22QualcommCameraHardware14runVideoThreadEPv+0x214>)
    c28c:	2002      	movs	r0, #2
    c28e:	4a6f      	ldr	r2, [pc, #444]	(c44c <_ZN7android22QualcommCameraHardware14runVideoThreadEPv+0x218>)
    c290:	4479      	add	r1, pc
    c292:	447a      	add	r2, pc
    c294:	e019      	b.n	c2ca <_ZN7android22QualcommCameraHardware14runVideoThreadEPv+0x96>
    c296:	4628      	mov	r0, r5
    c298:	f7fb eab8 	blx	780c <_ZN7android22QualcommCameraHardware18filterPictureSizesEv-0x4e0>
    c29c:	4a6c      	ldr	r2, [pc, #432]	(c450 <_ZN7android22QualcommCameraHardware14runVideoThreadEPv+0x21c>)
    c29e:	4631      	mov	r1, r6
    c2a0:	2002      	movs	r0, #2
    c2a2:	447a      	add	r2, pc
    c2a4:	f7fb ea94 	blx	77d0 <_ZN7android22QualcommCameraHardware18filterPictureSizesEv-0x51c>
    c2a8:	f7ff fe0e 	bl	bec8 <_ZN7android22QualcommCameraHardware11initPreviewEv+0x3d0>
    c2ac:	4652      	mov	r2, sl
    c2ae:	4631      	mov	r1, r6
    c2b0:	2002      	movs	r0, #2
    c2b2:	f7fb ea8e 	blx	77d0 <_ZN7android22QualcommCameraHardware18filterPictureSizesEv-0x51c>
    c2b6:	4628      	mov	r0, r5
    c2b8:	f7fc f980 	bl	85bc <_ZN7android22QualcommCameraHardware26receiveJpegPictureFragmentEPhj+0x114>
    c2bc:	f894 2060 	ldrb.w	r2, [r4, #96]
    c2c0:	b322      	cbz	r2, c30c <_ZN7android22QualcommCameraHardware14runVideoThreadEPv+0xd8>
    c2c2:	4a64      	ldr	r2, [pc, #400]	(c454 <_ZN7android22QualcommCameraHardware14runVideoThreadEPv+0x220>)
    c2c4:	2002      	movs	r0, #2
    c2c6:	4631      	mov	r1, r6
    c2c8:	447a      	add	r2, pc
    c2ca:	f7fb ea82 	blx	77d0 <_ZN7android22QualcommCameraHardware18filterPictureSizesEv-0x51c>
    c2ce:	4628      	mov	r0, r5
    c2d0:	f7fb ea9c 	blx	780c <_ZN7android22QualcommCameraHardware18filterPictureSizesEv-0x4e0>
    c2d4:	4640      	mov	r0, r8
    c2d6:	f7fb ea9a 	blx	780c <_ZN7android22QualcommCameraHardware18filterPictureSizesEv-0x4e0>
    c2da:	4628      	mov	r0, r5
    c2dc:	f7fc f96e 	bl	85bc <_ZN7android22QualcommCameraHardware26receiveJpegPictureFragmentEPhj+0x114>
    c2e0:	2200      	movs	r2, #0
    c2e2:	f104 0068 	add.w	r0, r4, #104	; 0x68
    c2e6:	f884 2061 	strb.w	r2, [r4, #97]
    c2ea:	f7fb eb44 	blx	7974 <_ZN7android22QualcommCameraHardware18filterPictureSizesEv-0x378>
    c2ee:	4628      	mov	r0, r5
    c2f0:	f7fb ea8c 	blx	780c <_ZN7android22QualcommCameraHardware18filterPictureSizesEv-0x4e0>
    c2f4:	4958      	ldr	r1, [pc, #352]	(c458 <_ZN7android22QualcommCameraHardware14runVideoThreadEPv+0x224>)
    c2f6:	4a59      	ldr	r2, [pc, #356]	(c45c <_ZN7android22QualcommCameraHardware14runVideoThreadEPv+0x228>)
    c2f8:	2002      	movs	r0, #2
    c2fa:	4479      	add	r1, pc
    c2fc:	447a      	add	r2, pc
    c2fe:	f7fb ea68 	blx	77d0 <_ZN7android22QualcommCameraHardware18filterPictureSizesEv-0x51c>
    c302:	b00b      	add	sp, #44
    c304:	ecbd 8b02 	vldmia	sp!, {d8}
    c308:	e8bd 8ff0 	ldmia.w	sp!, {r4, r5, r6, r7, r8, r9, sl, fp, pc}
    c30c:	4628      	mov	r0, r5
    c30e:	f7fb ea7e 	blx	780c <_ZN7android22QualcommCameraHardware18filterPictureSizesEv-0x4e0>
    c312:	f7ff fa65 	bl	b7e0 <_ZN7android22QualcommCameraHardware9autoFocusEv+0xf0>
    c316:	4681      	mov	r9, r0
    c318:	4640      	mov	r0, r8
    c31a:	f7fb ea78 	blx	780c <_ZN7android22QualcommCameraHardware18filterPictureSizesEv-0x4e0>
    c31e:	4a50      	ldr	r2, [pc, #320]	(c460 <_ZN7android22QualcommCameraHardware14runVideoThreadEPv+0x22c>)
    c320:	2002      	movs	r0, #2
    c322:	4631      	mov	r1, r6
    c324:	447a      	add	r2, pc
    c326:	f7fb ea54 	blx	77d0 <_ZN7android22QualcommCameraHardware18filterPictureSizesEv-0x51c>
    c32a:	f8d4 31fc 	ldr.w	r3, [r4, #508]
    c32e:	b113      	cbz	r3, c336 <_ZN7android22QualcommCameraHardware14runVideoThreadEPv+0x102>
    c330:	4620      	mov	r0, r4
    c332:	f7ff fded 	bl	bf10 <_ZNK7android22QualcommCameraHardware17debugShowVideoFPSEv>
    c336:	f1b9 0f00 	cmp.w	r9, #0	; 0x0
    c33a:	d070      	beq.n	c41e <_ZN7android22QualcommCameraHardware14runVideoThreadEPv+0x1ea>
    c33c:	6b63      	ldr	r3, [r4, #52]
    c33e:	f8d9 b004 	ldr.w	fp, [r9, #4]
    c342:	6999      	ldr	r1, [r3, #24]
    c344:	680a      	ldr	r2, [r1, #0]
    c346:	f852 7c0c 	ldr.w	r7, [r2, #-12]
    c34a:	19c8      	adds	r0, r1, r7
    c34c:	4f45      	ldr	r7, [pc, #276]	(c464 <_ZN7android22QualcommCameraHardware14runVideoThreadEPv+0x230>)
    c34e:	f7fb fcb3 	bl	7cb8 <_ZN7android22QualcommCameraHardware18filterPictureSizesEv-0x34>
    c352:	4a45      	ldr	r2, [pc, #276]	(c468 <_ZN7android22QualcommCameraHardware14runVideoThreadEPv+0x234>)
    c354:	447f      	add	r7, pc
    c356:	465b      	mov	r3, fp
    c358:	447a      	add	r2, pc
    c35a:	4639      	mov	r1, r7
    c35c:	f8df b10c 	ldr.w	fp, [pc, #268]	; c46c <_ZN7android22QualcommCameraHardware14runVideoThreadEPv+0x238>
    c360:	44fb      	add	fp, pc
    c362:	9000      	str	r0, [sp, #0]
    c364:	2002      	movs	r0, #2
    c366:	f7fb ea34 	blx	77d0 <_ZN7android22QualcommCameraHardware18filterPictureSizesEv-0x51c>
    c36a:	6b60      	ldr	r0, [r4, #52]
    c36c:	f8d9 9004 	ldr.w	r9, [r9, #4]
    c370:	6983      	ldr	r3, [r0, #24]
    c372:	681a      	ldr	r2, [r3, #0]
    c374:	f852 1c0c 	ldr.w	r1, [r2, #-12]
    c378:	1858      	adds	r0, r3, r1
    c37a:	f7fb fc9d 	bl	7cb8 <_ZN7android22QualcommCameraHardware18filterPictureSizesEv-0x34>
    c37e:	ebc0 0909 	rsb	r9, r0, r9
    c382:	6b60      	ldr	r0, [r4, #52]
    c384:	68c1      	ldr	r1, [r0, #12]
    c386:	4648      	mov	r0, r9
    c388:	9100      	str	r1, [sp, #0]
    c38a:	f7fb e9e6 	blx	7758 <_ZN7android22QualcommCameraHardware18filterPictureSizesEv-0x594>
    c38e:	465a      	mov	r2, fp
    c390:	4639      	mov	r1, r7
    c392:	464b      	mov	r3, r9
    c394:	9001      	str	r0, [sp, #4]
    c396:	2002      	movs	r0, #2
    c398:	f7fb ea1a 	blx	77d0 <_ZN7android22QualcommCameraHardware18filterPictureSizesEv-0x51c>
    c39c:	6b63      	ldr	r3, [r4, #52]
    c39e:	4639      	mov	r1, r7
    c3a0:	2002      	movs	r0, #2
    c3a2:	68da      	ldr	r2, [r3, #12]
    c3a4:	9207      	str	r2, [sp, #28]
    c3a6:	4a32      	ldr	r2, [pc, #200]	(c470 <_ZN7android22QualcommCameraHardware14runVideoThreadEPv+0x23c>)
    c3a8:	447a      	add	r2, pc
    c3aa:	f7fb ea12 	blx	77d0 <_ZN7android22QualcommCameraHardware18filterPictureSizesEv-0x51c>
    c3ae:	9805      	ldr	r0, [sp, #20]
    c3b0:	f7fc f904 	bl	85bc <_ZN7android22QualcommCameraHardware26receiveJpegPictureFragmentEPhj+0x114>
    c3b4:	f8d4 01f8 	ldr.w	r0, [r4, #504]
    c3b8:	f8d4 11e8 	ldr.w	r1, [r4, #488]
    c3bc:	f8d4 b1f4 	ldr.w	fp, [r4, #500]
    c3c0:	9006      	str	r0, [sp, #24]
    c3c2:	9805      	ldr	r0, [sp, #20]
    c3c4:	9102      	str	r1, [sp, #8]
    c3c6:	f7fb ea22 	blx	780c <_ZN7android22QualcommCameraHardware18filterPictureSizesEv-0x4e0>
    c3ca:	9b02      	ldr	r3, [sp, #8]
    c3cc:	f1bb 0f00 	cmp.w	fp, #0	; 0x0
    c3d0:	f43f af52 	beq.w	c278 <_ZN7android22QualcommCameraHardware14runVideoThreadEPv+0x44>
    c3d4:	069b      	lsls	r3, r3, #26
    c3d6:	f57f af4f 	bpl.w	c278 <_ZN7android22QualcommCameraHardware14runVideoThreadEPv+0x44>
    c3da:	4a26      	ldr	r2, [pc, #152]	(c474 <_ZN7android22QualcommCameraHardware14runVideoThreadEPv+0x240>)
    c3dc:	4639      	mov	r1, r7
    c3de:	2002      	movs	r0, #2
    c3e0:	af09      	add	r7, sp, #36
    c3e2:	447a      	add	r2, pc
    c3e4:	f7fb e9f4 	blx	77d0 <_ZN7android22QualcommCameraHardware18filterPictureSizesEv-0x51c>
    c3e8:	2001      	movs	r0, #1
    c3ea:	f7fb eae8 	blx	79bc <_ZN7android22QualcommCameraHardware18filterPictureSizesEv-0x330>
    c3ee:	ec41 0b18 	vmov	d8, r0, r1
    c3f2:	9907      	ldr	r1, [sp, #28]
    c3f4:	4648      	mov	r0, r9
    c3f6:	f7fb e9b0 	blx	7758 <_ZN7android22QualcommCameraHardware18filterPictureSizesEv-0x594>
    c3fa:	6b61      	ldr	r1, [r4, #52]
    c3fc:	69cb      	ldr	r3, [r1, #28]
    c3fe:	eb03 0180 	add.w	r1, r3, r0, lsl #2
    c402:	4638      	mov	r0, r7
    c404:	f7fb fe5a 	bl	80bc <_ZN7android2spINS_7IMemoryEEC1INS_10MemoryBaseEEERKNS0_IT_EE>
    c408:	9806      	ldr	r0, [sp, #24]
    c40a:	2220      	movs	r2, #32
    c40c:	463b      	mov	r3, r7
    c40e:	9000      	str	r0, [sp, #0]
    c410:	ec51 0b18 	vmov	r0, r1, d8
    c414:	47d8      	blx	fp
    c416:	4638      	mov	r0, r7
    c418:	f7fb ff50 	bl	82bc <_ZN7android2spINS_7IMemoryEED1Ev>
    c41c:	e72c      	b.n	c278 <_ZN7android22QualcommCameraHardware14runVideoThreadEPv+0x44>
    c41e:	2006      	movs	r0, #6
    c420:	9903      	ldr	r1, [sp, #12]
    c422:	9a04      	ldr	r2, [sp, #16]
    c424:	f7fb e9d4 	blx	77d0 <_ZN7android22QualcommCameraHardware18filterPictureSizesEv-0x51c>
    c428:	e726      	b.n	c278 <_ZN7android22QualcommCameraHardware14runVideoThreadEPv+0x44>
    c42a:	bf00      	nop
    c42c:	413f      	asrs	r7, r7
    c42e:	0000      	lsls	r0, r0, #0
    c430:	5c97      	ldrb	r7, [r2, r2]
    c432:	0000      	lsls	r0, r0, #0
    c434:	8708      	strh	r0, [r1, #56]
    c436:	0000      	lsls	r0, r0, #0
    c438:	4129      	asrs	r1, r5
    c43a:	0000      	lsls	r0, r0, #0
    c43c:	5cc9      	ldrb	r1, [r1, r3]
    c43e:	0000      	lsls	r0, r0, #0
    c440:	4121      	asrs	r1, r4
    c442:	0000      	lsls	r0, r0, #0
    c444:	5ded      	ldrb	r5, [r5, r7]
    c446:	0000      	lsls	r0, r0, #0
    c448:	40ff      	lsrs	r7, r7
    c44a:	0000      	lsls	r0, r0, #0
    c44c:	5c60      	ldrb	r0, [r4, r1]
    c44e:	0000      	lsls	r0, r0, #0
    c450:	5c67      	ldrb	r7, [r4, r1]
    c452:	0000      	lsls	r0, r0, #0
    c454:	5c2a      	ldrb	r2, [r5, r0]
    c456:	0000      	lsls	r0, r0, #0
    c458:	4095      	lsls	r5, r2
    c45a:	0000      	lsls	r0, r0, #0
    c45c:	5d89      	ldrb	r1, [r1, r6]
    c45e:	0000      	lsls	r0, r0, #0
    c460:	5c27      	ldrb	r7, [r4, r0]
    c462:	0000      	lsls	r0, r0, #0
    c464:	403b      	ands	r3, r7
    c466:	0000      	lsls	r0, r0, #0
    c468:	5c16      	ldrb	r6, [r2, r0]
    c46a:	0000      	lsls	r0, r0, #0
    c46c:	5c34      	ldrb	r4, [r6, r0]
    c46e:	0000      	lsls	r0, r0, #0
    c470:	5c1d      	ldrb	r5, [r3, r0]
    c472:	0000      	lsls	r0, r0, #0
    c474:	5c37      	ldrb	r7, [r6, r0]
    c476:	0000      	lsls	r0, r0, #0
    c478:	e92d 41f0 	stmdb	sp!, {r4, r5, r6, r7, r8, lr}
    c47c:	4606      	mov	r6, r0
    c47e:	b938      	cbnz	r0, c490 <_ZN7android22QualcommCameraHardware14runVideoThreadEPv+0x25c>
    c480:	492a      	ldr	r1, [pc, #168]	(c52c <_ZN7android22QualcommCameraHardware14runVideoThreadEPv+0x2f8>)
    c482:	2006      	movs	r0, #6
    c484:	4a2a      	ldr	r2, [pc, #168]	(c530 <_ZN7android22QualcommCameraHardware14runVideoThreadEPv+0x2fc>)
    c486:	4479      	add	r1, pc
    c488:	447a      	add	r2, pc
    c48a:	f7fb e9a2 	blx	77d0 <_ZN7android22QualcommCameraHardware18filterPictureSizesEv-0x51c>
    c48e:	e04b      	b.n	c528 <_ZN7android22QualcommCameraHardware14runVideoThreadEPv+0x2f4>
    c490:	4c28      	ldr	r4, [pc, #160]	(c534 <_ZN7android22QualcommCameraHardware14runVideoThreadEPv+0x300>)
    c492:	2002      	movs	r0, #2
    c494:	4a28      	ldr	r2, [pc, #160]	(c538 <_ZN7android22QualcommCameraHardware14runVideoThreadEPv+0x304>)
    c496:	4d29      	ldr	r5, [pc, #164]	(c53c <_ZN7android22QualcommCameraHardware14runVideoThreadEPv+0x308>)
    c498:	447c      	add	r4, pc
    c49a:	447a      	add	r2, pc
    c49c:	4621      	mov	r1, r4
    c49e:	6873      	ldr	r3, [r6, #4]
    c4a0:	447d      	add	r5, pc
    c4a2:	f7fb e996 	blx	77d0 <_ZN7android22QualcommCameraHardware18filterPictureSizesEv-0x51c>
    c4a6:	f105 0088 	add.w	r0, r5, #136	; 0x88
    c4aa:	f7fb e9aa 	blx	7800 <_ZN7android22QualcommCameraHardware18filterPictureSizesEv-0x4ec>
    c4ae:	4a24      	ldr	r2, [pc, #144]	(c540 <_ZN7android22QualcommCameraHardware14runVideoThreadEPv+0x30c>)
    c4b0:	4621      	mov	r1, r4
    c4b2:	6feb      	ldr	r3, [r5, #124]
    c4b4:	447a      	add	r2, pc
    c4b6:	2002      	movs	r0, #2
    c4b8:	f7fb e98a 	blx	77d0 <_ZN7android22QualcommCameraHardware18filterPictureSizesEv-0x51c>
    c4bc:	2008      	movs	r0, #8
    c4be:	f7fb ea8a 	blx	79d4 <_ZN7android22QualcommCameraHardware18filterPictureSizesEv-0x318>
    c4c2:	f105 077c 	add.w	r7, r5, #124	; 0x7c
    c4c6:	4680      	mov	r8, r0
    c4c8:	b1b0      	cbz	r0, c4f8 <_ZN7android22QualcommCameraHardware14runVideoThreadEPv+0x2c4>
    c4ca:	4a1e      	ldr	r2, [pc, #120]	(c544 <_ZN7android22QualcommCameraHardware14runVideoThreadEPv+0x310>)
    c4cc:	4621      	mov	r1, r4
    c4ce:	2002      	movs	r0, #2
    c4d0:	447a      	add	r2, pc
    c4d2:	f7fb e97e 	blx	77d0 <_ZN7android22QualcommCameraHardware18filterPictureSizesEv-0x51c>
    c4d6:	4638      	mov	r0, r7
    c4d8:	4641      	mov	r1, r8
    c4da:	2300      	movs	r3, #0
    c4dc:	f8c8 6000 	str.w	r6, [r8]
    c4e0:	f8c8 3004 	str.w	r3, [r8, #4]
    c4e4:	f7fb fd9e 	bl	8024 <_Z7enqueueP10fifo_queueP9fifo_node>
    c4e8:	4a17      	ldr	r2, [pc, #92]	(c548 <_ZN7android22QualcommCameraHardware14runVideoThreadEPv+0x314>)
    c4ea:	2002      	movs	r0, #2
    c4ec:	4621      	mov	r1, r4
    c4ee:	6feb      	ldr	r3, [r5, #124]
    c4f0:	447a      	add	r2, pc
    c4f2:	f7fb e96e 	blx	77d0 <_ZN7android22QualcommCameraHardware18filterPictureSizesEv-0x51c>
    c4f6:	e005      	b.n	c504 <_ZN7android22QualcommCameraHardware14runVideoThreadEPv+0x2d0>
    c4f8:	4a14      	ldr	r2, [pc, #80]	(c54c <_ZN7android22QualcommCameraHardware14runVideoThreadEPv+0x318>)
    c4fa:	2006      	movs	r0, #6
    c4fc:	4621      	mov	r1, r4
    c4fe:	447a      	add	r2, pc
    c500:	f7fb e966 	blx	77d0 <_ZN7android22QualcommCameraHardware18filterPictureSizesEv-0x51c>
    c504:	4c12      	ldr	r4, [pc, #72]	(c550 <_ZN7android22QualcommCameraHardware14runVideoThreadEPv+0x31c>)
    c506:	447c      	add	r4, pc
    c508:	f104 0088 	add.w	r0, r4, #136	; 0x88
    c50c:	f7fb e97e 	blx	780c <_ZN7android22QualcommCameraHardware18filterPictureSizesEv-0x4e0>
    c510:	f104 008c 	add.w	r0, r4, #140	; 0x8c
    c514:	f7fb ea2e 	blx	7974 <_ZN7android22QualcommCameraHardware18filterPictureSizesEv-0x378>
    c518:	490e      	ldr	r1, [pc, #56]	(c554 <_ZN7android22QualcommCameraHardware14runVideoThreadEPv+0x320>)
    c51a:	4a0f      	ldr	r2, [pc, #60]	(c558 <_ZN7android22QualcommCameraHardware14runVideoThreadEPv+0x324>)
    c51c:	2002      	movs	r0, #2
    c51e:	4479      	add	r1, pc
    c520:	6873      	ldr	r3, [r6, #4]
    c522:	447a      	add	r2, pc
    c524:	f7fb e954 	blx	77d0 <_ZN7android22QualcommCameraHardware18filterPictureSizesEv-0x51c>
    c528:	e8bd 81f0 	ldmia.w	sp!, {r4, r5, r6, r7, r8, pc}
    c52c:	3f09      	subs	r7, #9
    c52e:	0000      	lsls	r0, r0, #0
    c530:	5c0e      	ldrb	r6, [r1, r0]
    c532:	0000      	lsls	r0, r0, #0
    c534:	3ef7      	subs	r6, #247
    c536:	0000      	lsls	r0, r0, #0
    c538:	5c18      	ldrb	r0, [r3, r0]
    c53a:	0000      	lsls	r0, r0, #0
    c53c:	84bc      	strh	r4, [r7, #36]
    c53e:	0000      	lsls	r0, r0, #0
    c540:	5c1f      	ldrb	r7, [r3, r0]
    c542:	0000      	lsls	r0, r0, #0
    c544:	5c2e      	ldrb	r6, [r5, r0]
    c546:	0000      	lsls	r0, r0, #0
    c548:	5c33      	ldrb	r3, [r6, r0]
    c54a:	0000      	lsls	r0, r0, #0
    c54c:	5c4f      	ldrb	r7, [r1, r1]
    c54e:	0000      	lsls	r0, r0, #0
    c550:	8456      	strh	r6, [r2, #34]
    c552:	0000      	lsls	r0, r0, #0
    c554:	3e71      	subs	r6, #113
    c556:	0000      	lsls	r0, r0, #0
    c558:	5c58      	ldrb	r0, [r3, r1]
	...

0000c55c <_ZN7android22QualcommCameraHardware21receiveRecordingFrameEP9msm_frame>:
    c55c:	b570      	push	{r4, r5, r6, lr}
    c55e:	4c0e      	ldr	r4, [pc, #56]	(c598 <_ZN7android22QualcommCameraHardware21receiveRecordingFrameEP9msm_frame+0x3c>)
    c560:	4a0e      	ldr	r2, [pc, #56]	(c59c <_ZN7android22QualcommCameraHardware21receiveRecordingFrameEP9msm_frame+0x40>)
    c562:	460d      	mov	r5, r1
    c564:	447c      	add	r4, pc
    c566:	2002      	movs	r0, #2
    c568:	447a      	add	r2, pc
    c56a:	4621      	mov	r1, r4
    c56c:	f7fb e930 	blx	77d0 <_ZN7android22QualcommCameraHardware18filterPictureSizesEv-0x51c>
    c570:	b11d      	cbz	r5, c57a <_ZN7android22QualcommCameraHardware21receiveRecordingFrameEP9msm_frame+0x1e>
    c572:	4628      	mov	r0, r5
    c574:	f7ff ff80 	bl	c478 <_ZN7android22QualcommCameraHardware14runVideoThreadEPv+0x244>
    c578:	e005      	b.n	c586 <_ZN7android22QualcommCameraHardware21receiveRecordingFrameEP9msm_frame+0x2a>
    c57a:	4a09      	ldr	r2, [pc, #36]	(c5a0 <_ZN7android22QualcommCameraHardware21receiveRecordingFrameEP9msm_frame+0x44>)
    c57c:	2006      	movs	r0, #6
    c57e:	4621      	mov	r1, r4
    c580:	447a      	add	r2, pc
    c582:	f7fb e926 	blx	77d0 <_ZN7android22QualcommCameraHardware18filterPictureSizesEv-0x51c>
    c586:	4907      	ldr	r1, [pc, #28]	(c5a4 <_ZN7android22QualcommCameraHardware21receiveRecordingFrameEP9msm_frame+0x48>)
    c588:	2002      	movs	r0, #2
    c58a:	4a07      	ldr	r2, [pc, #28]	(c5a8 <_ZN7android22QualcommCameraHardware21receiveRecordingFrameEP9msm_frame+0x4c>)
    c58c:	4479      	add	r1, pc
    c58e:	447a      	add	r2, pc
    c590:	f7fb e91e 	blx	77d0 <_ZN7android22QualcommCameraHardware18filterPictureSizesEv-0x51c>
    c594:	bd70      	pop	{r4, r5, r6, pc}
    c596:	bf00      	nop
    c598:	3e2b      	subs	r6, #43
    c59a:	0000      	lsls	r0, r0, #0
    c59c:	5c34      	ldrb	r4, [r6, r0]
    c59e:	0000      	lsls	r0, r0, #0
    c5a0:	5c34      	ldrb	r4, [r6, r0]
    c5a2:	0000      	lsls	r0, r0, #0
    c5a4:	3e03      	subs	r6, #3
    c5a6:	0000      	lsls	r0, r0, #0
    c5a8:	5c4e      	ldrb	r6, [r1, r1]
	...

0000c5ac <_ZN7android22QualcommCameraHardware11getInstanceEv>:
    c5ac:	4b1c      	ldr	r3, [pc, #112]	(c620 <_ZN7android22QualcommCameraHardware11getInstanceEv+0x74>)
    c5ae:	b537      	push	{r0, r1, r2, r4, r5, lr}
    c5b0:	4a1c      	ldr	r2, [pc, #112]	(c624 <_ZN7android22QualcommCameraHardware11getInstanceEv+0x78>)
    c5b2:	447b      	add	r3, pc
    c5b4:	4605      	mov	r5, r0
    c5b6:	589b      	ldr	r3, [r3, r2]
    c5b8:	681c      	ldr	r4, [r3, #0]
    c5ba:	6858      	ldr	r0, [r3, #4]
    c5bc:	b12c      	cbz	r4, c5ca <_ZN7android22QualcommCameraHardware11getInstanceEv+0x1e>
    c5be:	4669      	mov	r1, sp
    c5c0:	f7fb ea0e 	blx	79e0 <_ZN7android22QualcommCameraHardware18filterPictureSizesEv-0x30c>
    c5c4:	2800      	cmp	r0, #0
    c5c6:	bf08      	it	eq
    c5c8:	2400      	moveq	r4, #0
    c5ca:	9400      	str	r4, [sp, #0]
    c5cc:	9401      	str	r4, [sp, #4]
    c5ce:	b134      	cbz	r4, c5de <_ZN7android22QualcommCameraHardware11getInstanceEv+0x32>
    c5d0:	6821      	ldr	r1, [r4, #0]
    c5d2:	f851 0c0c 	ldr.w	r0, [r1, #-12]
    c5d6:	a901      	add	r1, sp, #4
    c5d8:	1820      	adds	r0, r4, r0
    c5da:	f7fb e900 	blx	77dc <_ZN7android22QualcommCameraHardware18filterPictureSizesEv-0x510>
    c5de:	4668      	mov	r0, sp
    c5e0:	f7fb ff06 	bl	83f0 <_ZN7android2spINS_22QualcommCameraHardwareEED1Ev>
    c5e4:	9c01      	ldr	r4, [sp, #4]
    c5e6:	b144      	cbz	r4, c5fa <_ZN7android22QualcommCameraHardware11getInstanceEv+0x4e>
    c5e8:	602c      	str	r4, [r5, #0]
    c5ea:	4629      	mov	r1, r5
    c5ec:	6823      	ldr	r3, [r4, #0]
    c5ee:	f853 2c0c 	ldr.w	r2, [r3, #-12]
    c5f2:	18a0      	adds	r0, r4, r2
    c5f4:	f7fb e8f2 	blx	77dc <_ZN7android22QualcommCameraHardware18filterPictureSizesEv-0x510>
    c5f8:	e007      	b.n	c60a <_ZN7android22QualcommCameraHardware11getInstanceEv+0x5e>
    c5fa:	490b      	ldr	r1, [pc, #44]	(c628 <_ZN7android22QualcommCameraHardware11getInstanceEv+0x7c>)
    c5fc:	2002      	movs	r0, #2
    c5fe:	4a0b      	ldr	r2, [pc, #44]	(c62c <_ZN7android22QualcommCameraHardware11getInstanceEv+0x80>)
    c600:	4479      	add	r1, pc
    c602:	447a      	add	r2, pc
    c604:	f7fb e8e4 	blx	77d0 <_ZN7android22QualcommCameraHardware18filterPictureSizesEv-0x51c>
    c608:	602c      	str	r4, [r5, #0]
    c60a:	9b01      	ldr	r3, [sp, #4]
    c60c:	b133      	cbz	r3, c61c <_ZN7android22QualcommCameraHardware11getInstanceEv+0x70>
    c60e:	6819      	ldr	r1, [r3, #0]
    c610:	f851 0c0c 	ldr.w	r0, [r1, #-12]
    c614:	a901      	add	r1, sp, #4
    c616:	1818      	adds	r0, r3, r0
    c618:	f7fb e8e6 	blx	77e8 <_ZN7android22QualcommCameraHardware18filterPictureSizesEv-0x504>
    c61c:	4628      	mov	r0, r5
    c61e:	bd3e      	pop	{r1, r2, r3, r4, r5, pc}
    c620:	8142      	strh	r2, [r0, #10]
    c622:	0000      	lsls	r0, r0, #0
    c624:	ff0c ffff 	undefined
    c628:	3d8f      	subs	r5, #143
    c62a:	0000      	lsls	r0, r0, #0
    c62c:	5bf2      	ldrh	r2, [r6, r7]
	...

0000c630 <_ZN7android12video_threadEPv>:
    c630:	b537      	push	{r0, r1, r2, r4, r5, lr}
    c632:	4c12      	ldr	r4, [pc, #72]	(c67c <_ZN7android12video_threadEPv+0x4c>)
    c634:	4a12      	ldr	r2, [pc, #72]	(c680 <_ZN7android12video_threadEPv+0x50>)
    c636:	4605      	mov	r5, r0
    c638:	447c      	add	r4, pc
    c63a:	2002      	movs	r0, #2
    c63c:	447a      	add	r2, pc
    c63e:	4621      	mov	r1, r4
    c640:	f7fb e8c6 	blx	77d0 <_ZN7android22QualcommCameraHardware18filterPictureSizesEv-0x51c>
    c644:	a801      	add	r0, sp, #4
    c646:	f7ff ffb1 	bl	c5ac <_ZN7android22QualcommCameraHardware11getInstanceEv>
    c64a:	9801      	ldr	r0, [sp, #4]
    c64c:	b118      	cbz	r0, c656 <_ZN7android12video_threadEPv+0x26>
    c64e:	4629      	mov	r1, r5
    c650:	f7ff fdf0 	bl	c234 <_ZN7android22QualcommCameraHardware14runVideoThreadEPv>
    c654:	e005      	b.n	c662 <_ZN7android12video_threadEPv+0x32>
    c656:	4a0b      	ldr	r2, [pc, #44]	(c684 <_ZN7android12video_threadEPv+0x54>)
    c658:	2006      	movs	r0, #6
    c65a:	4621      	mov	r1, r4
    c65c:	447a      	add	r2, pc
    c65e:	f7fb e8b8 	blx	77d0 <_ZN7android22QualcommCameraHardware18filterPictureSizesEv-0x51c>
    c662:	4909      	ldr	r1, [pc, #36]	(c688 <_ZN7android12video_threadEPv+0x58>)
    c664:	2002      	movs	r0, #2
    c666:	4a09      	ldr	r2, [pc, #36]	(c68c <_ZN7android12video_threadEPv+0x5c>)
    c668:	4479      	add	r1, pc
    c66a:	447a      	add	r2, pc
    c66c:	f7fb e8b0 	blx	77d0 <_ZN7android22QualcommCameraHardware18filterPictureSizesEv-0x51c>
    c670:	a801      	add	r0, sp, #4
    c672:	f7fb febd 	bl	83f0 <_ZN7android2spINS_22QualcommCameraHardwareEED1Ev>
    c676:	2000      	movs	r0, #0
    c678:	bd3e      	pop	{r1, r2, r3, r4, r5, pc}
    c67a:	bf00      	nop
    c67c:	3d57      	subs	r5, #87
    c67e:	0000      	lsls	r0, r0, #0
    c680:	5be0      	ldrh	r0, [r4, r7]
    c682:	0000      	lsls	r0, r0, #0
    c684:	5bcf      	ldrh	r7, [r1, r7]
    c686:	0000      	lsls	r0, r0, #0
    c688:	3d27      	subs	r5, #39
    c68a:	0000      	lsls	r0, r0, #0
    c68c:	5bf2      	ldrh	r2, [r6, r7]
    c68e:	0000      	lsls	r0, r0, #0
    c690:	b513      	push	{r0, r1, r4, lr}
    c692:	4a0d      	ldr	r2, [pc, #52]	(c6c8 <_ZN7android12video_threadEPv+0x98>)
    c694:	490d      	ldr	r1, [pc, #52]	(c6cc <_ZN7android12video_threadEPv+0x9c>)
    c696:	4604      	mov	r4, r0
    c698:	447a      	add	r2, pc
    c69a:	2002      	movs	r0, #2
    c69c:	4479      	add	r1, pc
    c69e:	f7fb e898 	blx	77d0 <_ZN7android22QualcommCameraHardware18filterPictureSizesEv-0x51c>
    c6a2:	a801      	add	r0, sp, #4
    c6a4:	f7ff ff82 	bl	c5ac <_ZN7android22QualcommCameraHardware11getInstanceEv>
    c6a8:	9801      	ldr	r0, [sp, #4]
    c6aa:	b110      	cbz	r0, c6b2 <_ZN7android12video_threadEPv+0x82>
    c6ac:	4621      	mov	r1, r4
    c6ae:	f7ff ff55 	bl	c55c <_ZN7android22QualcommCameraHardware21receiveRecordingFrameEP9msm_frame>
    c6b2:	4907      	ldr	r1, [pc, #28]	(c6d0 <_ZN7android12video_threadEPv+0xa0>)
    c6b4:	2002      	movs	r0, #2
    c6b6:	4a07      	ldr	r2, [pc, #28]	(c6d4 <_ZN7android12video_threadEPv+0xa4>)
    c6b8:	4479      	add	r1, pc
    c6ba:	447a      	add	r2, pc
    c6bc:	f7fb e888 	blx	77d0 <_ZN7android22QualcommCameraHardware18filterPictureSizesEv-0x51c>
    c6c0:	a801      	add	r0, sp, #4
    c6c2:	f7fb fe95 	bl	83f0 <_ZN7android2spINS_22QualcommCameraHardwareEED1Ev>
    c6c6:	bd1c      	pop	{r2, r3, r4, pc}
    c6c8:	5bd3      	ldrh	r3, [r2, r7]
    c6ca:	0000      	lsls	r0, r0, #0
    c6cc:	3cf3      	subs	r4, #243
    c6ce:	0000      	lsls	r0, r0, #0
    c6d0:	3cd7      	subs	r4, #215
    c6d2:	0000      	lsls	r0, r0, #0
    c6d4:	5bd3      	ldrh	r3, [r2, r7]
    c6d6:	0000      	lsls	r0, r0, #0
    c6d8:	b507      	push	{r0, r1, r2, lr}
    c6da:	a801      	add	r0, sp, #4
    c6dc:	f7ff ff66 	bl	c5ac <_ZN7android22QualcommCameraHardware11getInstanceEv>
    c6e0:	9801      	ldr	r0, [sp, #4]
    c6e2:	b108      	cbz	r0, c6e8 <_ZN7android12video_threadEPv+0xb8>
    c6e4:	f7fb ff70 	bl	85c8 <_ZN7android22QualcommCameraHardware23receive_camframetimeoutEv>
    c6e8:	a801      	add	r0, sp, #4
    c6ea:	f7fb fe81 	bl	83f0 <_ZN7android2spINS_22QualcommCameraHardwareEED1Ev>
    c6ee:	bd0e      	pop	{r1, r2, r3, pc}
    c6f0:	b513      	push	{r0, r1, r4, lr}
    c6f2:	4a0e      	ldr	r2, [pc, #56]	(c72c <_ZN7android12video_threadEPv+0xfc>)
    c6f4:	490e      	ldr	r1, [pc, #56]	(c730 <_ZN7android12video_threadEPv+0x100>)
    c6f6:	4604      	mov	r4, r0
    c6f8:	447a      	add	r2, pc
    c6fa:	2002      	movs	r0, #2
    c6fc:	4479      	add	r1, pc
    c6fe:	4623      	mov	r3, r4
    c700:	f7fb e866 	blx	77d0 <_ZN7android22QualcommCameraHardware18filterPictureSizesEv-0x51c>
    c704:	b94c      	cbnz	r4, c71a <_ZN7android12video_threadEPv+0xea>
    c706:	a801      	add	r0, sp, #4
    c708:	f7ff ff50 	bl	c5ac <_ZN7android22QualcommCameraHardware11getInstanceEv>
    c70c:	9801      	ldr	r0, [sp, #4]
    c70e:	b108      	cbz	r0, c714 <_ZN7android12video_threadEPv+0xe4>
    c710:	f7fe fe8c 	bl	b42c <_ZN7android22QualcommCameraHardware18receiveJpegPictureEv>
    c714:	a801      	add	r0, sp, #4
    c716:	f7fb fe6b 	bl	83f0 <_ZN7android2spINS_22QualcommCameraHardwareEED1Ev>
    c71a:	4906      	ldr	r1, [pc, #24]	(c734 <_ZN7android12video_threadEPv+0x104>)
    c71c:	2002      	movs	r0, #2
    c71e:	4a06      	ldr	r2, [pc, #24]	(c738 <_ZN7android12video_threadEPv+0x108>)
    c720:	4479      	add	r1, pc
    c722:	447a      	add	r2, pc
    c724:	f7fb e854 	blx	77d0 <_ZN7android22QualcommCameraHardware18filterPictureSizesEv-0x51c>
    c728:	bd1c      	pop	{r2, r3, r4, pc}
    c72a:	bf00      	nop
    c72c:	5bb7      	ldrh	r7, [r6, r6]
    c72e:	0000      	lsls	r0, r0, #0
    c730:	3c93      	subs	r4, #147
    c732:	0000      	lsls	r0, r0, #0
    c734:	3c6f      	subs	r4, #111
    c736:	0000      	lsls	r0, r0, #0
    c738:	5bbc      	ldrh	r4, [r7, r6]
    c73a:	0000      	lsls	r0, r0, #0
    c73c:	b537      	push	{r0, r1, r2, r4, r5, lr}
    c73e:	460c      	mov	r4, r1
    c740:	4a0d      	ldr	r2, [pc, #52]	(c778 <_ZN7android12video_threadEPv+0x148>)
    c742:	4605      	mov	r5, r0
    c744:	490d      	ldr	r1, [pc, #52]	(c77c <_ZN7android12video_threadEPv+0x14c>)
    c746:	2002      	movs	r0, #2
    c748:	447a      	add	r2, pc
    c74a:	4479      	add	r1, pc
    c74c:	f7fb e840 	blx	77d0 <_ZN7android22QualcommCameraHardware18filterPictureSizesEv-0x51c>
    c750:	a801      	add	r0, sp, #4
    c752:	f7ff ff2b 	bl	c5ac <_ZN7android22QualcommCameraHardware11getInstanceEv>
    c756:	9801      	ldr	r0, [sp, #4]
    c758:	b118      	cbz	r0, c762 <_ZN7android12video_threadEPv+0x132>
    c75a:	4629      	mov	r1, r5
    c75c:	4622      	mov	r2, r4
    c75e:	f7fb fea3 	bl	84a8 <_ZN7android22QualcommCameraHardware26receiveJpegPictureFragmentEPhj>
    c762:	4907      	ldr	r1, [pc, #28]	(c780 <_ZN7android12video_threadEPv+0x150>)
    c764:	2002      	movs	r0, #2
    c766:	4a07      	ldr	r2, [pc, #28]	(c784 <_ZN7android12video_threadEPv+0x154>)
    c768:	4479      	add	r1, pc
    c76a:	447a      	add	r2, pc
    c76c:	f7fb e830 	blx	77d0 <_ZN7android22QualcommCameraHardware18filterPictureSizesEv-0x51c>
    c770:	a801      	add	r0, sp, #4
    c772:	f7fb fe3d 	bl	83f0 <_ZN7android2spINS_22QualcommCameraHardwareEED1Ev>
    c776:	bd3e      	pop	{r1, r2, r3, r4, r5, pc}
    c778:	5bae      	ldrh	r6, [r5, r6]
    c77a:	0000      	lsls	r0, r0, #0
    c77c:	3c45      	subs	r4, #69
    c77e:	0000      	lsls	r0, r0, #0
    c780:	3c27      	subs	r4, #39
    c782:	0000      	lsls	r0, r0, #0
    c784:	5bad      	ldrh	r5, [r5, r6]
    c786:	0000      	lsls	r0, r0, #0
    c788:	b513      	push	{r0, r1, r4, lr}
    c78a:	4604      	mov	r4, r0
    c78c:	a801      	add	r0, sp, #4
    c78e:	f7ff ff0d 	bl	c5ac <_ZN7android22QualcommCameraHardware11getInstanceEv>
    c792:	9801      	ldr	r0, [sp, #4]
    c794:	b110      	cbz	r0, c79c <_ZN7android12video_threadEPv+0x16c>
    c796:	4621      	mov	r1, r4
    c798:	f7ff fc62 	bl	c060 <_ZN7android22QualcommCameraHardware19receivePreviewFrameEP9msm_frame>
    c79c:	a801      	add	r0, sp, #4
    c79e:	f7fb fe27 	bl	83f0 <_ZN7android2spINS_22QualcommCameraHardwareEED1Ev>
    c7a2:	bd1c      	pop	{r2, r3, r4, pc}
    c7a4:	b570      	push	{r4, r5, r6, lr}
    c7a6:	4604      	mov	r4, r0
    c7a8:	460d      	mov	r5, r1
    c7aa:	f7fb e920 	blx	79ec <_ZN7android22QualcommCameraHardware18filterPictureSizesEv-0x300>
    c7ae:	1d20      	adds	r0, r4, #4
    c7b0:	1d29      	adds	r1, r5, #4
    c7b2:	f7fb e91c 	blx	79ec <_ZN7android22QualcommCameraHardware18filterPictureSizesEv-0x300>
    c7b6:	4620      	mov	r0, r4
    c7b8:	bd70      	pop	{r4, r5, r6, pc}
    c7ba:	bf00      	nop

0000c7bc <_ZN7android18move_backward_typeINS_16key_value_pair_tINS_7String8ES2_EEEEvPT_PKS4_j>:
    c7bc:	e92d 41f0 	stmdb	sp!, {r4, r5, r6, r7, r8, lr}
    c7c0:	4605      	mov	r5, r0
    c7c2:	460c      	mov	r4, r1
    c7c4:	4617      	mov	r7, r2
    c7c6:	2600      	movs	r6, #0
    c7c8:	e006      	b.n	c7d8 <_ZN7android18move_backward_typeINS_16key_value_pair_tINS_7String8ES2_EEEEvPT_PKS4_j+0x1c>
    c7ca:	4641      	mov	r1, r8
    c7cc:	3f01      	subs	r7, #1
    c7ce:	f7ff ffe9 	bl	c7a4 <_ZN7android12video_threadEPv+0x174>
    c7d2:	4640      	mov	r0, r8
    c7d4:	f7fb fb5c 	bl	7e90 <_ZNK7android12SortedVectorINS_16key_value_pair_tINS_7String8ES2_EEE12do_constructEPvj+0x24>
    c7d8:	eb04 0806 	add.w	r8, r4, r6
    c7dc:	19a8      	adds	r0, r5, r6
    c7de:	3608      	adds	r6, #8
    c7e0:	2f00      	cmp	r7, #0
    c7e2:	d1f2      	bne.n	c7ca <_ZN7android18move_backward_typeINS_16key_value_pair_tINS_7String8ES2_EEEEvPT_PKS4_j+0xe>
    c7e4:	e8bd 81f0 	ldmia.w	sp!, {r4, r5, r6, r7, r8, pc}

0000c7e8 <_ZNK7android12SortedVectorINS_16key_value_pair_tINS_7String8ES2_EEE16do_move_backwardEPvPKvj>:
    c7e8:	4608      	mov	r0, r1
    c7ea:	4611      	mov	r1, r2
    c7ec:	b510      	push	{r4, lr}
    c7ee:	461a      	mov	r2, r3
    c7f0:	f7ff ffe4 	bl	c7bc <_ZN7android18move_backward_typeINS_16key_value_pair_tINS_7String8ES2_EEEEvPT_PKS4_j>
    c7f4:	bd10      	pop	{r4, pc}
    c7f6:	bf00      	nop

0000c7f8 <_ZN7android17move_forward_typeINS_16key_value_pair_tINS_7String8ES2_EEEEvPT_PKS4_j>:
    c7f8:	e92d 41f0 	stmdb	sp!, {r4, r5, r6, r7, r8, lr}
    c7fc:	00d7      	lsls	r7, r2, #3
    c7fe:	eb00 0807 	add.w	r8, r0, r7
    c802:	4615      	mov	r5, r2
    c804:	19cf      	adds	r7, r1, r7
    c806:	2400      	movs	r4, #0
    c808:	e009      	b.n	c81e <_ZN7android17move_forward_typeINS_16key_value_pair_tINS_7String8ES2_EEEEvPT_PKS4_j+0x26>
    c80a:	193e      	adds	r6, r7, r4
    c80c:	eb08 0004 	add.w	r0, r8, r4
    c810:	4631      	mov	r1, r6
    c812:	3d01      	subs	r5, #1
    c814:	f7ff ffc6 	bl	c7a4 <_ZN7android12video_threadEPv+0x174>
    c818:	4630      	mov	r0, r6
    c81a:	f7fb fb39 	bl	7e90 <_ZNK7android12SortedVectorINS_16key_value_pair_tINS_7String8ES2_EEE12do_constructEPvj+0x24>
    c81e:	3c08      	subs	r4, #8
    c820:	2d00      	cmp	r5, #0
    c822:	d1f2      	bne.n	c80a <_ZN7android17move_forward_typeINS_16key_value_pair_tINS_7String8ES2_EEEEvPT_PKS4_j+0x12>
    c824:	e8bd 81f0 	ldmia.w	sp!, {r4, r5, r6, r7, r8, pc}

0000c828 <_ZNK7android12SortedVectorINS_16key_value_pair_tINS_7String8ES2_EEE15do_move_forwardEPvPKvj>:
    c828:	4608      	mov	r0, r1
    c82a:	4611      	mov	r1, r2
    c82c:	b510      	push	{r4, lr}
    c82e:	461a      	mov	r2, r3
    c830:	f7ff ffe2 	bl	c7f8 <_ZN7android17move_forward_typeINS_16key_value_pair_tINS_7String8ES2_EEEEvPT_PKS4_j>
    c834:	bd10      	pop	{r4, pc}
    c836:	bf00      	nop

0000c838 <_ZNK7android12SortedVectorINS_16key_value_pair_tINS_7String8ES2_EEE8do_splatEPvPKvj>:
    c838:	b570      	push	{r4, r5, r6, lr}
    c83a:	4614      	mov	r4, r2
    c83c:	461e      	mov	r6, r3
    c83e:	460d      	mov	r5, r1
    c840:	e005      	b.n	c84e <_ZNK7android12SortedVectorINS_16key_value_pair_tINS_7String8ES2_EEE8do_splatEPvPKvj+0x16>
    c842:	4628      	mov	r0, r5
    c844:	4621      	mov	r1, r4
    c846:	f7ff ffad 	bl	c7a4 <_ZN7android12video_threadEPv+0x174>
    c84a:	3508      	adds	r5, #8
    c84c:	3e01      	subs	r6, #1
    c84e:	2e00      	cmp	r6, #0
    c850:	d1f7      	bne.n	c842 <_ZNK7android12SortedVectorINS_16key_value_pair_tINS_7String8ES2_EEE8do_splatEPvPKvj+0xa>
    c852:	bd70      	pop	{r4, r5, r6, pc}

0000c854 <_ZNK7android12SortedVectorINS_16key_value_pair_tINS_7String8ES2_EEE7do_copyEPvPKvj>:
    c854:	e92d 41f0 	stmdb	sp!, {r4, r5, r6, r7, r8, lr}
    c858:	460c      	mov	r4, r1
    c85a:	4615      	mov	r5, r2
    c85c:	461f      	mov	r7, r3
    c85e:	2600      	movs	r6, #0
    c860:	e002      	b.n	c868 <_ZNK7android12SortedVectorINS_16key_value_pair_tINS_7String8ES2_EEE7do_copyEPvPKvj+0x14>
    c862:	f7ff ff9f 	bl	c7a4 <_ZN7android12video_threadEPv+0x174>
    c866:	3f01      	subs	r7, #1
    c868:	19a9      	adds	r1, r5, r6
    c86a:	19a0      	adds	r0, r4, r6
    c86c:	3608      	adds	r6, #8
    c86e:	2f00      	cmp	r7, #0
    c870:	d1f7      	bne.n	c862 <_ZNK7android12SortedVectorINS_16key_value_pair_tINS_7String8ES2_EEE7do_copyEPvPKvj+0xe>
    c872:	e8bd 81f0 	ldmia.w	sp!, {r4, r5, r6, r7, r8, pc}
    c876:	bf00      	nop
    c878:	4b08      	ldr	r3, [pc, #32]	(c89c <_ZNK7android12SortedVectorINS_16key_value_pair_tINS_7String8ES2_EEE7do_copyEPvPKvj+0x48>)
    c87a:	4909      	ldr	r1, [pc, #36]	(c8a0 <_ZNK7android12SortedVectorINS_16key_value_pair_tINS_7String8ES2_EEE7do_copyEPvPKvj+0x4c>)
    c87c:	447b      	add	r3, pc
    c87e:	b510      	push	{r4, lr}
    c880:	4604      	mov	r4, r0
    c882:	5858      	ldr	r0, [r3, r1]
    c884:	f110 0208 	adds.w	r2, r0, #8	; 0x8
    c888:	4620      	mov	r0, r4
    c88a:	6022      	str	r2, [r4, #0]
    c88c:	f7fb e8b4 	blx	79f8 <_ZN7android22QualcommCameraHardware18filterPictureSizesEv-0x2f4>
    c890:	4620      	mov	r0, r4
    c892:	f7fb e8b8 	blx	7a04 <_ZN7android22QualcommCameraHardware18filterPictureSizesEv-0x2e8>
    c896:	4620      	mov	r0, r4
    c898:	bd10      	pop	{r4, pc}
    c89a:	bf00      	nop
    c89c:	7e78      	ldrb	r0, [r7, #25]
    c89e:	0000      	lsls	r0, r0, #0
    c8a0:	ff10 ffff 	undefined
    c8a4:	b510      	push	{r4, lr}
    c8a6:	4604      	mov	r4, r0
    c8a8:	f7ff ffe6 	bl	c878 <_ZNK7android12SortedVectorINS_16key_value_pair_tINS_7String8ES2_EEE7do_copyEPvPKvj+0x24>
    c8ac:	4620      	mov	r0, r4
    c8ae:	f7fa ef60 	blx	7770 <_ZN7android22QualcommCameraHardware18filterPictureSizesEv-0x57c>
    c8b2:	4620      	mov	r0, r4
    c8b4:	bd10      	pop	{r4, pc}
    c8b6:	bf00      	nop

0000c8b8 <_ZNK7android22QualcommCameraHardware13getParametersEv>:
    c8b8:	b570      	push	{r4, r5, r6, lr}
    c8ba:	4a0e      	ldr	r2, [pc, #56]	(c8f4 <_ZNK7android22QualcommCameraHardware13getParametersEv+0x3c>)
    c8bc:	460e      	mov	r6, r1
    c8be:	490e      	ldr	r1, [pc, #56]	(c8f8 <_ZNK7android22QualcommCameraHardware13getParametersEv+0x40>)
    c8c0:	4605      	mov	r5, r0
    c8c2:	447a      	add	r2, pc
    c8c4:	4479      	add	r1, pc
    c8c6:	2002      	movs	r0, #2
    c8c8:	f7fa ef82 	blx	77d0 <_ZN7android22QualcommCameraHardware18filterPictureSizesEv-0x51c>
    c8cc:	4c0b      	ldr	r4, [pc, #44]	(c8fc <_ZNK7android22QualcommCameraHardware13getParametersEv+0x44>)
    c8ce:	f106 0108 	add.w	r1, r6, #8	; 0x8
    c8d2:	4628      	mov	r0, r5
    c8d4:	f7fb e89c 	blx	7a10 <_ZN7android22QualcommCameraHardware18filterPictureSizesEv-0x2dc>
    c8d8:	4909      	ldr	r1, [pc, #36]	(c900 <_ZNK7android22QualcommCameraHardware13getParametersEv+0x48>)
    c8da:	447c      	add	r4, pc
    c8dc:	5860      	ldr	r0, [r4, r1]
    c8de:	f106 011c 	add.w	r1, r6, #28	; 0x1c
    c8e2:	f110 0308 	adds.w	r3, r0, #8	; 0x8
    c8e6:	4628      	mov	r0, r5
    c8e8:	f840 3b14 	str.w	r3, [r0], #20
    c8ec:	f7fb e87e 	blx	79ec <_ZN7android22QualcommCameraHardware18filterPictureSizesEv-0x300>
    c8f0:	4628      	mov	r0, r5
    c8f2:	bd70      	pop	{r4, r5, r6, pc}
    c8f4:	5a76      	ldrh	r6, [r6, r1]
    c8f6:	0000      	lsls	r0, r0, #0
    c8f8:	3acb      	subs	r2, #203
    c8fa:	0000      	lsls	r0, r0, #0
    c8fc:	7e1a      	ldrb	r2, [r3, #24]
    c8fe:	0000      	lsls	r0, r0, #0
    c900:	ff10 ffff 	undefined

0000c904 <_ZN7android22QualcommCameraHardware23cancelAutoFocusInternalEv>:
    c904:	e92d 41f0 	stmdb	sp!, {r4, r5, r6, r7, r8, lr}
    c908:	4d20      	ldr	r5, [pc, #128]	(c98c <_ZN7android22QualcommCameraHardware23cancelAutoFocusInternalEv+0x88>)
    c90a:	4a21      	ldr	r2, [pc, #132]	(c990 <_ZN7android22QualcommCameraHardware23cancelAutoFocusInternalEv+0x8c>)
    c90c:	4606      	mov	r6, r0
    c90e:	447d      	add	r5, pc
    c910:	2002      	movs	r0, #2
    c912:	447a      	add	r2, pc
    c914:	4629      	mov	r1, r5
    c916:	f7fa ef5c 	blx	77d0 <_ZN7android22QualcommCameraHardware18filterPictureSizesEv-0x51c>
    c91a:	4b1e      	ldr	r3, [pc, #120]	(c994 <_ZN7android22QualcommCameraHardware23cancelAutoFocusInternalEv+0x90>)
    c91c:	447b      	add	r3, pc
    c91e:	681b      	ldr	r3, [r3, #0]
    c920:	7b1c      	ldrb	r4, [r3, #12]
    c922:	b934      	cbnz	r4, c932 <_ZN7android22QualcommCameraHardware23cancelAutoFocusInternalEv+0x2e>
    c924:	4a1c      	ldr	r2, [pc, #112]	(c998 <_ZN7android22QualcommCameraHardware23cancelAutoFocusInternalEv+0x94>)
    c926:	2002      	movs	r0, #2
    c928:	4629      	mov	r1, r5
    c92a:	447a      	add	r2, pc
    c92c:	f7fa ef50 	blx	77d0 <_ZN7android22QualcommCameraHardware18filterPictureSizesEv-0x51c>
    c930:	e029      	b.n	c986 <_ZN7android22QualcommCameraHardware23cancelAutoFocusInternalEv+0x82>
    c932:	f506 7796 	add.w	r7, r6, #300	; 0x12c
    c936:	4638      	mov	r0, r7
    c938:	f7fb e870 	blx	7a1c <_ZN7android22QualcommCameraHardware18filterPictureSizesEv-0x2d0>
    c93c:	4604      	mov	r4, r0
    c93e:	b948      	cbnz	r0, c954 <_ZN7android22QualcommCameraHardware23cancelAutoFocusInternalEv+0x50>
    c940:	4a16      	ldr	r2, [pc, #88]	(c99c <_ZN7android22QualcommCameraHardware23cancelAutoFocusInternalEv+0x98>)
    c942:	2002      	movs	r0, #2
    c944:	4629      	mov	r1, r5
    c946:	447a      	add	r2, pc
    c948:	f7fa ef42 	blx	77d0 <_ZN7android22QualcommCameraHardware18filterPictureSizesEv-0x51c>
    c94c:	4638      	mov	r0, r7
    c94e:	f7fa ef5e 	blx	780c <_ZN7android22QualcommCameraHardware18filterPictureSizesEv-0x4e0>
    c952:	e010      	b.n	c976 <_ZN7android22QualcommCameraHardware23cancelAutoFocusInternalEv+0x72>
    c954:	4a12      	ldr	r2, [pc, #72]	(c9a0 <_ZN7android22QualcommCameraHardware23cancelAutoFocusInternalEv+0x9c>)
    c956:	4629      	mov	r1, r5
    c958:	2002      	movs	r0, #2
    c95a:	447a      	add	r2, pc
    c95c:	f7fa ef38 	blx	77d0 <_ZN7android22QualcommCameraHardware18filterPictureSizesEv-0x51c>
    c960:	f8d6 00dc 	ldr.w	r0, [r6, #220]
    c964:	f8d6 1128 	ldr.w	r1, [r6, #296]
    c968:	f7fc fd4e 	bl	9408 <_ZN7android22QualcommCameraHardware13cancelPictureEv+0x104>
    c96c:	2800      	cmp	r0, #0
    c96e:	bf0c      	ite	eq
    c970:	f04f 4400 	moveq.w	r4, #2147483648	; 0x80000000
    c974:	2400      	movne	r4, #0
    c976:	490b      	ldr	r1, [pc, #44]	(c9a4 <_ZN7android22QualcommCameraHardware23cancelAutoFocusInternalEv+0xa0>)
    c978:	2002      	movs	r0, #2
    c97a:	4a0b      	ldr	r2, [pc, #44]	(c9a8 <_ZN7android22QualcommCameraHardware23cancelAutoFocusInternalEv+0xa4>)
    c97c:	4623      	mov	r3, r4
    c97e:	4479      	add	r1, pc
    c980:	447a      	add	r2, pc
    c982:	f7fa ef26 	blx	77d0 <_ZN7android22QualcommCameraHardware18filterPictureSizesEv-0x51c>
    c986:	4620      	mov	r0, r4
    c988:	e8bd 81f0 	ldmia.w	sp!, {r4, r5, r6, r7, r8, pc}
    c98c:	3a81      	subs	r2, #129
    c98e:	0000      	lsls	r0, r0, #0
    c990:	5a38      	ldrh	r0, [r7, r0]
    c992:	0000      	lsls	r0, r0, #0
    c994:	8040      	strh	r0, [r0, #2]
    c996:	0000      	lsls	r0, r0, #0
    c998:	5a3a      	ldrh	r2, [r7, r0]
    c99a:	0000      	lsls	r0, r0, #0
    c99c:	5a38      	ldrh	r0, [r7, r0]
    c99e:	0000      	lsls	r0, r0, #0
    c9a0:	5a63      	ldrh	r3, [r4, r1]
    c9a2:	0000      	lsls	r0, r0, #0
    c9a4:	3a11      	subs	r2, #17
    c9a6:	0000      	lsls	r0, r0, #0
    c9a8:	5a53      	ldrh	r3, [r2, r1]
	...

0000c9ac <_ZN7android22QualcommCameraHardware15cancelAutoFocusEv>:
    c9ac:	4914      	ldr	r1, [pc, #80]	(ca00 <_ZN7android22QualcommCameraHardware15cancelAutoFocusEv+0x54>)
    c9ae:	4a15      	ldr	r2, [pc, #84]	(ca04 <_ZN7android22QualcommCameraHardware15cancelAutoFocusEv+0x58>)
    c9b0:	b570      	push	{r4, r5, r6, lr}
    c9b2:	4479      	add	r1, pc
    c9b4:	4604      	mov	r4, r0
    c9b6:	447a      	add	r2, pc
    c9b8:	2002      	movs	r0, #2
    c9ba:	f7fa ef0a 	blx	77d0 <_ZN7android22QualcommCameraHardware18filterPictureSizesEv-0x51c>
    c9be:	f104 00a0 	add.w	r0, r4, #160	; 0xa0
    c9c2:	f7fb fdfb 	bl	85bc <_ZN7android22QualcommCameraHardware26receiveJpegPictureFragmentEPhj+0x114>
    c9c6:	f894 3024 	ldrb.w	r3, [r4, #36]
    c9ca:	b15b      	cbz	r3, c9e4 <_ZN7android22QualcommCameraHardware15cancelAutoFocusEv+0x38>
    c9cc:	f8d4 01ec 	ldr.w	r0, [r4, #492]
    c9d0:	b140      	cbz	r0, c9e4 <_ZN7android22QualcommCameraHardware15cancelAutoFocusEv+0x38>
    c9d2:	f8d4 11e8 	ldr.w	r1, [r4, #488]
    c9d6:	074a      	lsls	r2, r1, #29
    c9d8:	d504      	bpl.n	c9e4 <_ZN7android22QualcommCameraHardware15cancelAutoFocusEv+0x38>
    c9da:	4620      	mov	r0, r4
    c9dc:	f7ff ff92 	bl	c904 <_ZN7android22QualcommCameraHardware23cancelAutoFocusInternalEv>
    c9e0:	4605      	mov	r5, r0
    c9e2:	e000      	b.n	c9e6 <_ZN7android22QualcommCameraHardware15cancelAutoFocusEv+0x3a>
    c9e4:	2500      	movs	r5, #0
    c9e6:	4908      	ldr	r1, [pc, #32]	(ca08 <_ZN7android22QualcommCameraHardware15cancelAutoFocusEv+0x5c>)
    c9e8:	2002      	movs	r0, #2
    c9ea:	4a08      	ldr	r2, [pc, #32]	(ca0c <_ZN7android22QualcommCameraHardware15cancelAutoFocusEv+0x60>)
    c9ec:	4479      	add	r1, pc
    c9ee:	447a      	add	r2, pc
    c9f0:	f7fa eeee 	blx	77d0 <_ZN7android22QualcommCameraHardware18filterPictureSizesEv-0x51c>
    c9f4:	f104 00a0 	add.w	r0, r4, #160	; 0xa0
    c9f8:	f7fa ef08 	blx	780c <_ZN7android22QualcommCameraHardware18filterPictureSizesEv-0x4e0>
    c9fc:	4628      	mov	r0, r5
    c9fe:	bd70      	pop	{r4, r5, r6, pc}
    ca00:	39dd      	subs	r1, #221
    ca02:	0000      	lsls	r0, r0, #0
    ca04:	5a3b      	ldrh	r3, [r7, r0]
    ca06:	0000      	lsls	r0, r0, #0
    ca08:	39a3      	subs	r1, #163
    ca0a:	0000      	lsls	r0, r0, #0
    ca0c:	5a15      	ldrh	r5, [r2, r0]
	...

0000ca10 <_ZN7android22QualcommCameraHardware19stopPreviewInternalEv>:
    ca10:	494a      	ldr	r1, [pc, #296]	(cb3c <_ZN7android22QualcommCameraHardware19stopPreviewInternalEv+0x12c>)
    ca12:	4a4b      	ldr	r2, [pc, #300]	(cb40 <_ZN7android22QualcommCameraHardware19stopPreviewInternalEv+0x130>)
    ca14:	e92d 41f0 	stmdb	sp!, {r4, r5, r6, r7, r8, lr}
    ca18:	4604      	mov	r4, r0
    ca1a:	f890 3024 	ldrb.w	r3, [r0, #36]
    ca1e:	4479      	add	r1, pc
    ca20:	447a      	add	r2, pc
    ca22:	2002      	movs	r0, #2
    ca24:	4d47      	ldr	r5, [pc, #284]	(cb44 <_ZN7android22QualcommCameraHardware19stopPreviewInternalEv+0x134>)
    ca26:	f7fa eed4 	blx	77d0 <_ZN7android22QualcommCameraHardware18filterPictureSizesEv-0x51c>
    ca2a:	f894 3024 	ldrb.w	r3, [r4, #36]
    ca2e:	447d      	add	r5, pc
    ca30:	2b00      	cmp	r3, #0
    ca32:	d077      	beq.n	cb24 <_ZN7android22QualcommCameraHardware19stopPreviewInternalEv+0x114>
    ca34:	f8d4 01ec 	ldr.w	r0, [r4, #492]
    ca38:	b130      	cbz	r0, ca48 <_ZN7android22QualcommCameraHardware19stopPreviewInternalEv+0x38>
    ca3a:	f8d4 21e8 	ldr.w	r2, [r4, #488]
    ca3e:	0751      	lsls	r1, r2, #29
    ca40:	d502      	bpl.n	ca48 <_ZN7android22QualcommCameraHardware19stopPreviewInternalEv+0x38>
    ca42:	4620      	mov	r0, r4
    ca44:	f7ff ff5e 	bl	c904 <_ZN7android22QualcommCameraHardware23cancelAutoFocusInternalEv>
    ca48:	f104 00a4 	add.w	r0, r4, #164	; 0xa4
    ca4c:	f7fb fdb6 	bl	85bc <_ZN7android22QualcommCameraHardware26receiveJpegPictureFragmentEPhj+0x114>
    ca50:	f104 0028 	add.w	r0, r4, #40	; 0x28
    ca54:	f7fb fdb2 	bl	85bc <_ZN7android22QualcommCameraHardware26receiveJpegPictureFragmentEPhj+0x114>
    ca58:	f894 10a8 	ldrb.w	r1, [r4, #168]
    ca5c:	b999      	cbnz	r1, ca86 <_ZN7android22QualcommCameraHardware19stopPreviewInternalEv+0x76>
    ca5e:	483a      	ldr	r0, [pc, #232]	(cb48 <_ZN7android22QualcommCameraHardware19stopPreviewInternalEv+0x138>)
    ca60:	4478      	add	r0, pc
    ca62:	6800      	ldr	r0, [r0, #0]
    ca64:	1e83      	subs	r3, r0, #2
    ca66:	2b01      	cmp	r3, #1
    ca68:	d904      	bls.n	ca74 <_ZN7android22QualcommCameraHardware19stopPreviewInternalEv+0x64>
    ca6a:	f8d4 00dc 	ldr.w	r0, [r4, #220]
    ca6e:	f7fc fd43 	bl	94f8 <_ZN7android22QualcommCameraHardware13cancelPictureEv+0x1f4>
    ca72:	e003      	b.n	ca7c <_ZN7android22QualcommCameraHardware19stopPreviewInternalEv+0x6c>
    ca74:	f8d4 00dc 	ldr.w	r0, [r4, #220]
    ca78:	f7fc f9c6 	bl	8e08 <_ZN7android22QualcommCameraHardware17native_zoom_imageEiiiP13common_crop_t+0x140>
    ca7c:	f080 0c01 	eor.w	ip, r0, #1	; 0x1
    ca80:	f884 c024 	strb.w	ip, [r4, #36]
    ca84:	e002      	b.n	ca8c <_ZN7android22QualcommCameraHardware19stopPreviewInternalEv+0x7c>
    ca86:	2200      	movs	r2, #0
    ca88:	f884 2024 	strb.w	r2, [r4, #36]
    ca8c:	f104 0028 	add.w	r0, r4, #40	; 0x28
    ca90:	f7fa eebc 	blx	780c <_ZN7android22QualcommCameraHardware18filterPictureSizesEv-0x4e0>
    ca94:	f894 1024 	ldrb.w	r1, [r4, #36]
    ca98:	2900      	cmp	r1, #0
    ca9a:	d138      	bne.n	cb0e <_ZN7android22QualcommCameraHardware19stopPreviewInternalEv+0xfe>
    ca9c:	f894 302c 	ldrb.w	r3, [r4, #44]
    caa0:	2b00      	cmp	r3, #0
    caa2:	d034      	beq.n	cb0e <_ZN7android22QualcommCameraHardware19stopPreviewInternalEv+0xfe>
    caa4:	4620      	mov	r0, r4
    caa6:	f7fb fa67 	bl	7f78 <_ZN7android22QualcommCameraHardware13deinitPreviewEv>
    caaa:	4a28      	ldr	r2, [pc, #160]	(cb4c <_ZN7android22QualcommCameraHardware19stopPreviewInternalEv+0x13c>)
    caac:	447a      	add	r2, pc
    caae:	6812      	ldr	r2, [r2, #0]
    cab0:	1e90      	subs	r0, r2, #2
    cab2:	2801      	cmp	r0, #1
    cab4:	d827      	bhi.n	cb06 <_ZN7android22QualcommCameraHardware19stopPreviewInternalEv+0xf6>
    cab6:	f104 0664 	add.w	r6, r4, #100	; 0x64
    caba:	2701      	movs	r7, #1
    cabc:	4630      	mov	r0, r6
    cabe:	f7fb fd7d 	bl	85bc <_ZN7android22QualcommCameraHardware26receiveJpegPictureFragmentEPhj+0x114>
    cac2:	4923      	ldr	r1, [pc, #140]	(cb50 <_ZN7android22QualcommCameraHardware19stopPreviewInternalEv+0x140>)
    cac4:	4a23      	ldr	r2, [pc, #140]	(cb54 <_ZN7android22QualcommCameraHardware19stopPreviewInternalEv+0x144>)
    cac6:	2002      	movs	r0, #2
    cac8:	4479      	add	r1, pc
    caca:	447a      	add	r2, pc
    cacc:	f7fa ee80 	blx	77d0 <_ZN7android22QualcommCameraHardware18filterPictureSizesEv-0x51c>
    cad0:	4630      	mov	r0, r6
    cad2:	4e21      	ldr	r6, [pc, #132]	(cb58 <_ZN7android22QualcommCameraHardware19stopPreviewInternalEv+0x148>)
    cad4:	f884 7060 	strb.w	r7, [r4, #96]
    cad8:	447e      	add	r6, pc
    cada:	f7fa ee98 	blx	780c <_ZN7android22QualcommCameraHardware18filterPictureSizesEv-0x4e0>
    cade:	f106 0788 	add.w	r7, r6, #136	; 0x88
    cae2:	4638      	mov	r0, r7
    cae4:	f7fa ee8c 	blx	7800 <_ZN7android22QualcommCameraHardware18filterPictureSizesEv-0x4ec>
    cae8:	f106 008c 	add.w	r0, r6, #140	; 0x8c
    caec:	f7fa ef42 	blx	7974 <_ZN7android22QualcommCameraHardware18filterPictureSizesEv-0x378>
    caf0:	4638      	mov	r0, r7
    caf2:	f7fa ee8c 	blx	780c <_ZN7android22QualcommCameraHardware18filterPictureSizesEv-0x4e0>
    caf6:	f7fe fea5 	bl	b844 <_ZN7android21cam_frame_flush_videoEv>
    cafa:	f8df c060 	ldr.w	ip, [pc, #96]	; cb5c <_ZN7android22QualcommCameraHardware19stopPreviewInternalEv+0x14c>
    cafe:	f855 300c 	ldr.w	r3, [r5, ip]
    cb02:	6819      	ldr	r1, [r3, #0]
    cb04:	4788      	blx	r1
    cb06:	2000      	movs	r0, #0
    cb08:	f884 002c 	strb.w	r0, [r4, #44]
    cb0c:	e006      	b.n	cb1c <_ZN7android22QualcommCameraHardware19stopPreviewInternalEv+0x10c>
    cb0e:	4914      	ldr	r1, [pc, #80]	(cb60 <_ZN7android22QualcommCameraHardware19stopPreviewInternalEv+0x150>)
    cb10:	2006      	movs	r0, #6
    cb12:	4a14      	ldr	r2, [pc, #80]	(cb64 <_ZN7android22QualcommCameraHardware19stopPreviewInternalEv+0x154>)
    cb14:	4479      	add	r1, pc
    cb16:	447a      	add	r2, pc
    cb18:	f7fa ee5a 	blx	77d0 <_ZN7android22QualcommCameraHardware18filterPictureSizesEv-0x51c>
    cb1c:	f104 00a4 	add.w	r0, r4, #164	; 0xa4
    cb20:	f7fa ee74 	blx	780c <_ZN7android22QualcommCameraHardware18filterPictureSizesEv-0x4e0>
    cb24:	4910      	ldr	r1, [pc, #64]	(cb68 <_ZN7android22QualcommCameraHardware19stopPreviewInternalEv+0x158>)
    cb26:	2002      	movs	r0, #2
    cb28:	4a10      	ldr	r2, [pc, #64]	(cb6c <_ZN7android22QualcommCameraHardware19stopPreviewInternalEv+0x15c>)
    cb2a:	4479      	add	r1, pc
    cb2c:	f894 3024 	ldrb.w	r3, [r4, #36]
    cb30:	447a      	add	r2, pc
    cb32:	f7fa ee4e 	blx	77d0 <_ZN7android22QualcommCameraHardware18filterPictureSizesEv-0x51c>
    cb36:	e8bd 81f0 	ldmia.w	sp!, {r4, r5, r6, r7, r8, pc}
    cb3a:	bf00      	nop
    cb3c:	3971      	subs	r1, #113
    cb3e:	0000      	lsls	r0, r0, #0
    cb40:	59f5      	ldr	r5, [r6, r7]
    cb42:	0000      	lsls	r0, r0, #0
    cb44:	7cc6      	ldrb	r6, [r0, #19]
    cb46:	0000      	lsls	r0, r0, #0
    cb48:	7e64      	ldrb	r4, [r4, #25]
    cb4a:	0000      	lsls	r0, r0, #0
    cb4c:	7e18      	ldrb	r0, [r3, #24]
    cb4e:	0000      	lsls	r0, r0, #0
    cb50:	38c7      	subs	r0, #199
    cb52:	0000      	lsls	r0, r0, #0
    cb54:	5965      	ldr	r5, [r4, r5]
    cb56:	0000      	lsls	r0, r0, #0
    cb58:	7e84      	ldrb	r4, [r0, #26]
    cb5a:	0000      	lsls	r0, r0, #0
    cb5c:	ff04 ffff 	undefined
    cb60:	387b      	subs	r0, #123
    cb62:	0000      	lsls	r0, r0, #0
    cb64:	594b      	ldr	r3, [r1, r5]
    cb66:	0000      	lsls	r0, r0, #0
    cb68:	3865      	subs	r0, #101
    cb6a:	0000      	lsls	r0, r0, #0
    cb6c:	595d      	ldr	r5, [r3, r5]
	...

0000cb70 <_ZN7android22QualcommCameraHardware13stopRecordingEv>:
    cb70:	e92d 41f0 	stmdb	sp!, {r4, r5, r6, r7, r8, lr}
    cb74:	4d35      	ldr	r5, [pc, #212]	(cc4c <_ZN7android22QualcommCameraHardware13stopRecordingEv+0xdc>)
    cb76:	4a36      	ldr	r2, [pc, #216]	(cc50 <_ZN7android22QualcommCameraHardware13stopRecordingEv+0xe0>)
    cb78:	4604      	mov	r4, r0
    cb7a:	447d      	add	r5, pc
    cb7c:	2002      	movs	r0, #2
    cb7e:	447a      	add	r2, pc
    cb80:	4629      	mov	r1, r5
    cb82:	f104 06a0 	add.w	r6, r4, #160	; 0xa0
    cb86:	f7fa ee24 	blx	77d0 <_ZN7android22QualcommCameraHardware18filterPictureSizesEv-0x51c>
    cb8a:	f104 07b8 	add.w	r7, r4, #184	; 0xb8
    cb8e:	4630      	mov	r0, r6
    cb90:	f7fb fd14 	bl	85bc <_ZN7android22QualcommCameraHardware26receiveJpegPictureFragmentEPhj+0x114>
    cb94:	4638      	mov	r0, r7
    cb96:	f7fb fd11 	bl	85bc <_ZN7android22QualcommCameraHardware26receiveJpegPictureFragmentEPhj+0x114>
    cb9a:	2001      	movs	r0, #1
    cb9c:	f884 00a9 	strb.w	r0, [r4, #169]
    cba0:	f104 00bc 	add.w	r0, r4, #188	; 0xbc
    cba4:	f7fa eee6 	blx	7974 <_ZN7android22QualcommCameraHardware18filterPictureSizesEv-0x378>
    cba8:	4638      	mov	r0, r7
    cbaa:	f7fa ee30 	blx	780c <_ZN7android22QualcommCameraHardware18filterPictureSizesEv-0x4e0>
    cbae:	f8d4 31f0 	ldr.w	r3, [r4, #496]
    cbb2:	b183      	cbz	r3, cbd6 <_ZN7android22QualcommCameraHardware13stopRecordingEv+0x66>
    cbb4:	4927      	ldr	r1, [pc, #156]	(cc54 <_ZN7android22QualcommCameraHardware13stopRecordingEv+0xe4>)
    cbb6:	4479      	add	r1, pc
    cbb8:	6809      	ldr	r1, [r1, #0]
    cbba:	2902      	cmp	r1, #2
    cbbc:	d00b      	beq.n	cbd6 <_ZN7android22QualcommCameraHardware13stopRecordingEv+0x66>
    cbbe:	f8d4 21e8 	ldr.w	r2, [r4, #488]
    cbc2:	06d0      	lsls	r0, r2, #27
    cbc4:	d507      	bpl.n	cbd6 <_ZN7android22QualcommCameraHardware13stopRecordingEv+0x66>
    cbc6:	4a24      	ldr	r2, [pc, #144]	(cc58 <_ZN7android22QualcommCameraHardware13stopRecordingEv+0xe8>)
    cbc8:	2002      	movs	r0, #2
    cbca:	4629      	mov	r1, r5
    cbcc:	447a      	add	r2, pc
    cbce:	f7fa ee00 	blx	77d0 <_ZN7android22QualcommCameraHardware18filterPictureSizesEv-0x51c>
    cbd2:	4630      	mov	r0, r6
    cbd4:	e035      	b.n	cc42 <_ZN7android22QualcommCameraHardware13stopRecordingEv+0xd2>
    cbd6:	4821      	ldr	r0, [pc, #132]	(cc5c <_ZN7android22QualcommCameraHardware13stopRecordingEv+0xec>)
    cbd8:	4478      	add	r0, pc
    cbda:	6800      	ldr	r0, [r0, #0]
    cbdc:	1e83      	subs	r3, r0, #2
    cbde:	2b01      	cmp	r3, #1
    cbe0:	d81d      	bhi.n	cc1e <_ZN7android22QualcommCameraHardware13stopRecordingEv+0xae>
    cbe2:	f104 0564 	add.w	r5, r4, #100	; 0x64
    cbe6:	2601      	movs	r6, #1
    cbe8:	4628      	mov	r0, r5
    cbea:	f7fb fce7 	bl	85bc <_ZN7android22QualcommCameraHardware26receiveJpegPictureFragmentEPhj+0x114>
    cbee:	4628      	mov	r0, r5
    cbf0:	4d1b      	ldr	r5, [pc, #108]	(cc60 <_ZN7android22QualcommCameraHardware13stopRecordingEv+0xf0>)
    cbf2:	f884 6060 	strb.w	r6, [r4, #96]
    cbf6:	447d      	add	r5, pc
    cbf8:	f7fa ee08 	blx	780c <_ZN7android22QualcommCameraHardware18filterPictureSizesEv-0x4e0>
    cbfc:	f105 0688 	add.w	r6, r5, #136	; 0x88
    cc00:	f8d4 00dc 	ldr.w	r0, [r4, #220]
    cc04:	f7fb fff4 	bl	8bf0 <_ZN7android22QualcommCameraHardware18filterPreviewSizesEv+0xc4>
    cc08:	4630      	mov	r0, r6
    cc0a:	f7fa edfa 	blx	7800 <_ZN7android22QualcommCameraHardware18filterPictureSizesEv-0x4ec>
    cc0e:	f105 008c 	add.w	r0, r5, #140	; 0x8c
    cc12:	f7fa eeb0 	blx	7974 <_ZN7android22QualcommCameraHardware18filterPictureSizesEv-0x378>
    cc16:	4630      	mov	r0, r6
    cc18:	f7fa edf8 	blx	780c <_ZN7android22QualcommCameraHardware18filterPictureSizesEv-0x4e0>
    cc1c:	e002      	b.n	cc24 <_ZN7android22QualcommCameraHardware13stopRecordingEv+0xb4>
    cc1e:	4620      	mov	r0, r4
    cc20:	f7ff fef6 	bl	ca10 <_ZN7android22QualcommCameraHardware19stopPreviewInternalEv>
    cc24:	f8df c03c 	ldr.w	ip, [pc, #60]	; cc64 <_ZN7android22QualcommCameraHardware13stopRecordingEv+0xf4>
    cc28:	2100      	movs	r1, #0
    cc2a:	4a0f      	ldr	r2, [pc, #60]	(cc68 <_ZN7android22QualcommCameraHardware13stopRecordingEv+0xf8>)
    cc2c:	2002      	movs	r0, #2
    cc2e:	44fc      	add	ip, pc
    cc30:	447a      	add	r2, pc
    cc32:	f8cc 1100 	str.w	r1, [ip, #256]
    cc36:	490d      	ldr	r1, [pc, #52]	(cc6c <_ZN7android22QualcommCameraHardware13stopRecordingEv+0xfc>)
    cc38:	4479      	add	r1, pc
    cc3a:	f7fa edca 	blx	77d0 <_ZN7android22QualcommCameraHardware18filterPictureSizesEv-0x51c>
    cc3e:	f104 00a0 	add.w	r0, r4, #160	; 0xa0
    cc42:	f7fa ede4 	blx	780c <_ZN7android22QualcommCameraHardware18filterPictureSizesEv-0x4e0>
    cc46:	e8bd 81f0 	ldmia.w	sp!, {r4, r5, r6, r7, r8, pc}
    cc4a:	bf00      	nop
    cc4c:	3815      	subs	r0, #21
    cc4e:	0000      	lsls	r0, r0, #0
    cc50:	5929      	ldr	r1, [r5, r4]
    cc52:	0000      	lsls	r0, r0, #0
    cc54:	7d0e      	ldrb	r6, [r1, #20]
    cc56:	0000      	lsls	r0, r0, #0
    cc58:	58ec      	ldr	r4, [r5, r3]
    cc5a:	0000      	lsls	r0, r0, #0
    cc5c:	7cec      	ldrb	r4, [r5, #19]
    cc5e:	0000      	lsls	r0, r0, #0
    cc60:	7d66      	ldrb	r6, [r4, #21]
    cc62:	0000      	lsls	r0, r0, #0
    cc64:	7d2e      	ldrb	r6, [r5, #20]
    cc66:	0000      	lsls	r0, r0, #0
    cc68:	58b4      	ldr	r4, [r6, r2]
    cc6a:	0000      	lsls	r0, r0, #0
    cc6c:	3757      	adds	r7, #87
	...

0000cc70 <_ZN7android22QualcommCameraHardware11takePictureEv>:
    cc70:	e92d 47f0 	stmdb	sp!, {r4, r5, r6, r7, r8, r9, sl, lr}
    cc74:	4964      	ldr	r1, [pc, #400]	(ce08 <_ZN7android22QualcommCameraHardware11takePictureEv+0x198>)
    cc76:	4604      	mov	r4, r0
    cc78:	4a64      	ldr	r2, [pc, #400]	(ce0c <_ZN7android22QualcommCameraHardware11takePictureEv+0x19c>)
    cc7a:	b086      	sub	sp, #24
    cc7c:	4479      	add	r1, pc
    cc7e:	447a      	add	r2, pc
    cc80:	f8d4 31e8 	ldr.w	r3, [r4, #488]
    cc84:	2002      	movs	r0, #2
    cc86:	4e62      	ldr	r6, [pc, #392]	(ce10 <_ZN7android22QualcommCameraHardware11takePictureEv+0x1a0>)
    cc88:	f7fa eda2 	blx	77d0 <_ZN7android22QualcommCameraHardware18filterPictureSizesEv-0x51c>
    cc8c:	f104 0578 	add.w	r5, r4, #120	; 0x78
    cc90:	f104 00a0 	add.w	r0, r4, #160	; 0xa0
    cc94:	4f5f      	ldr	r7, [pc, #380]	(ce14 <_ZN7android22QualcommCameraHardware11takePictureEv+0x1a4>)
    cc96:	f8df 9180 	ldr.w	r9, [pc, #384]	; ce18 <_ZN7android22QualcommCameraHardware11takePictureEv+0x1a8>
    cc9a:	f7fb fc8f 	bl	85bc <_ZN7android22QualcommCameraHardware26receiveJpegPictureFragmentEPhj+0x114>
    cc9e:	f8df 817c 	ldr.w	r8, [pc, #380]	; ce1c <_ZN7android22QualcommCameraHardware11takePictureEv+0x1ac>
    cca2:	4628      	mov	r0, r5
    cca4:	447e      	add	r6, pc
    cca6:	f7fb fc89 	bl	85bc <_ZN7android22QualcommCameraHardware26receiveJpegPictureFragmentEPhj+0x114>
    ccaa:	f104 0a7c 	add.w	sl, r4, #124	; 0x7c
    ccae:	447f      	add	r7, pc
    ccb0:	44f9      	add	r9, pc
    ccb2:	44f8      	add	r8, pc
    ccb4:	e00d      	b.n	ccd2 <_ZN7android22QualcommCameraHardware11takePictureEv+0x62>
    ccb6:	464a      	mov	r2, r9
    ccb8:	4639      	mov	r1, r7
    ccba:	2002      	movs	r0, #2
    ccbc:	f7fa ed88 	blx	77d0 <_ZN7android22QualcommCameraHardware18filterPictureSizesEv-0x51c>
    ccc0:	4629      	mov	r1, r5
    ccc2:	4650      	mov	r0, sl
    ccc4:	f7fa ee74 	blx	79b0 <_ZN7android22QualcommCameraHardware18filterPictureSizesEv-0x33c>
    ccc8:	2002      	movs	r0, #2
    ccca:	4639      	mov	r1, r7
    cccc:	4642      	mov	r2, r8
    ccce:	f7fa ed80 	blx	77d0 <_ZN7android22QualcommCameraHardware18filterPictureSizesEv-0x51c>
    ccd2:	f894 3074 	ldrb.w	r3, [r4, #116]
    ccd6:	2b00      	cmp	r3, #0
    ccd8:	d1ed      	bne.n	ccb6 <_ZN7android22QualcommCameraHardware11takePictureEv+0x46>
    ccda:	4851      	ldr	r0, [pc, #324]	(ce20 <_ZN7android22QualcommCameraHardware11takePictureEv+0x1b0>)
    ccdc:	4478      	add	r0, pc
    ccde:	6800      	ldr	r0, [r0, #0]
    cce0:	2803      	cmp	r0, #3
    cce2:	d102      	bne.n	ccea <_ZN7android22QualcommCameraHardware11takePictureEv+0x7a>
    cce4:	4620      	mov	r0, r4
    cce6:	f7fb fb9b 	bl	8420 <_ZN7android22QualcommCameraHardware28storePreviewFrameForPostviewEv>
    ccea:	f104 0708 	add.w	r7, r4, #8	; 0x8
    ccee:	4638      	mov	r0, r7
    ccf0:	f7fa ee9a 	blx	7a28 <_ZN7android22QualcommCameraHardware18filterPictureSizesEv-0x2c4>
    ccf4:	2800      	cmp	r0, #0
    ccf6:	f000 8084 	beq.w	ce02 <_ZN7android22QualcommCameraHardware11takePictureEv+0x192>
    ccfa:	4638      	mov	r0, r7
    ccfc:	f7fa ee94 	blx	7a28 <_ZN7android22QualcommCameraHardware18filterPictureSizesEv-0x2c4>
    cd00:	4a48      	ldr	r2, [pc, #288]	(ce24 <_ZN7android22QualcommCameraHardware11takePictureEv+0x1b4>)
    cd02:	58b1      	ldr	r1, [r6, r2]
    cd04:	f7fa edac 	blx	7860 <_ZN7android22QualcommCameraHardware18filterPictureSizesEv-0x48c>
    cd08:	2800      	cmp	r0, #0
    cd0a:	d17a      	bne.n	ce02 <_ZN7android22QualcommCameraHardware11takePictureEv+0x192>
    cd0c:	2302      	movs	r3, #2
    cd0e:	f8c4 309c 	str.w	r3, [r4, #156]
    cd12:	f8d4 109c 	ldr.w	r1, [r4, #156]
    cd16:	2901      	cmp	r1, #1
    cd18:	d104      	bne.n	cd24 <_ZN7android22QualcommCameraHardware11takePictureEv+0xb4>
    cd1a:	f8d4 00dc 	ldr.w	r0, [r4, #220]
    cd1e:	f7fc fb13 	bl	9348 <_ZN7android22QualcommCameraHardware13cancelPictureEv+0x44>
    cd22:	b1c0      	cbz	r0, cd56 <_ZN7android22QualcommCameraHardware11takePictureEv+0xe6>
    cd24:	4620      	mov	r0, r4
    cd26:	f7ff fe73 	bl	ca10 <_ZN7android22QualcommCameraHardware19stopPreviewInternalEv>
    cd2a:	f8d4 309c 	ldr.w	r3, [r4, #156]
    cd2e:	2b01      	cmp	r3, #1
    cd30:	d117      	bne.n	cd62 <_ZN7android22QualcommCameraHardware11takePictureEv+0xf2>
    cd32:	f8d4 11f0 	ldr.w	r1, [r4, #496]
    cd36:	b119      	cbz	r1, cd40 <_ZN7android22QualcommCameraHardware11takePictureEv+0xd0>
    cd38:	f8d4 31e8 	ldr.w	r3, [r4, #488]
    cd3c:	f3c3 2100 	ubfx	r1, r3, #8, #1
    cd40:	4620      	mov	r0, r4
    cd42:	f7fe f81b 	bl	ad7c <_ZN7android22QualcommCameraHardware7initRawEb>
    cd46:	b9b8      	cbnz	r0, cd78 <_ZN7android22QualcommCameraHardware11takePictureEv+0x108>
    cd48:	4937      	ldr	r1, [pc, #220]	(ce28 <_ZN7android22QualcommCameraHardware11takePictureEv+0x1b8>)
    cd4a:	4a38      	ldr	r2, [pc, #224]	(ce2c <_ZN7android22QualcommCameraHardware11takePictureEv+0x1bc>)
    cd4c:	4479      	add	r1, pc
    cd4e:	447a      	add	r2, pc
    cd50:	3006      	adds	r0, #6
    cd52:	f7fa ed3e 	blx	77d0 <_ZN7android22QualcommCameraHardware18filterPictureSizesEv-0x51c>
    cd56:	4628      	mov	r0, r5
    cd58:	f04f 4500 	mov.w	r5, #2147483648	; 0x80000000
    cd5c:	f7fa ed56 	blx	780c <_ZN7android22QualcommCameraHardware18filterPictureSizesEv-0x4e0>
    cd60:	e047      	b.n	cdf2 <_ZN7android22QualcommCameraHardware11takePictureEv+0x182>
    cd62:	2b02      	cmp	r3, #2
    cd64:	d108      	bne.n	cd78 <_ZN7android22QualcommCameraHardware11takePictureEv+0x108>
    cd66:	4620      	mov	r0, r4
    cd68:	f7fc fed0 	bl	9b0c <_ZN7android22QualcommCameraHardware15initRawSnapshotEv>
    cd6c:	b920      	cbnz	r0, cd78 <_ZN7android22QualcommCameraHardware11takePictureEv+0x108>
    cd6e:	4930      	ldr	r1, [pc, #192]	(ce30 <_ZN7android22QualcommCameraHardware11takePictureEv+0x1c0>)
    cd70:	4a30      	ldr	r2, [pc, #192]	(ce34 <_ZN7android22QualcommCameraHardware11takePictureEv+0x1c4>)
    cd72:	4479      	add	r1, pc
    cd74:	447a      	add	r2, pc
    cd76:	e7eb      	b.n	cd50 <_ZN7android22QualcommCameraHardware11takePictureEv+0xe0>
    cd78:	f104 0870 	add.w	r8, r4, #112	; 0x70
    cd7c:	2701      	movs	r7, #1
    cd7e:	4640      	mov	r0, r8
    cd80:	f7fb fc1c 	bl	85bc <_ZN7android22QualcommCameraHardware26receiveJpegPictureFragmentEPhj+0x114>
    cd84:	4640      	mov	r0, r8
    cd86:	f884 706c 	strb.w	r7, [r4, #108]
    cd8a:	46e8      	mov	r8, sp
    cd8c:	f7fa ed3e 	blx	780c <_ZN7android22QualcommCameraHardware18filterPictureSizesEv-0x4e0>
    cd90:	4668      	mov	r0, sp
    cd92:	f7fa edf6 	blx	7980 <_ZN7android22QualcommCameraHardware18filterPictureSizesEv-0x36c>
    cd96:	4639      	mov	r1, r7
    cd98:	4668      	mov	r0, sp
    cd9a:	f7fa edf8 	blx	798c <_ZN7android22QualcommCameraHardware18filterPictureSizesEv-0x360>
    cd9e:	4926      	ldr	r1, [pc, #152]	(ce38 <_ZN7android22QualcommCameraHardware11takePictureEv+0x1c8>)
    cda0:	2300      	movs	r3, #0
    cda2:	f504 709c 	add.w	r0, r4, #312	; 0x138
    cda6:	5872      	ldr	r2, [r6, r1]
    cda8:	4669      	mov	r1, sp
    cdaa:	f7fa edf6 	blx	7998 <_ZN7android22QualcommCameraHardware18filterPictureSizesEv-0x354>
    cdae:	f1d0 0c01 	rsbs	ip, r0, #1	; 0x1
    cdb2:	bf38      	it	cc
    cdb4:	f04f 0c00 	movcc.w	ip, #0	; 0x0
    cdb8:	4628      	mov	r0, r5
    cdba:	f884 c074 	strb.w	ip, [r4, #116]
    cdbe:	f104 0594 	add.w	r5, r4, #148	; 0x94
    cdc2:	f7fa ed24 	blx	780c <_ZN7android22QualcommCameraHardware18filterPictureSizesEv-0x4e0>
    cdc6:	4628      	mov	r0, r5
    cdc8:	f7fb fbf8 	bl	85bc <_ZN7android22QualcommCameraHardware26receiveJpegPictureFragmentEPhj+0x114>
    cdcc:	4628      	mov	r0, r5
    cdce:	f884 7090 	strb.w	r7, [r4, #144]
    cdd2:	f7fa ed1c 	blx	780c <_ZN7android22QualcommCameraHardware18filterPictureSizesEv-0x4e0>
    cdd6:	4919      	ldr	r1, [pc, #100]	(ce3c <_ZN7android22QualcommCameraHardware11takePictureEv+0x1cc>)
    cdd8:	4a19      	ldr	r2, [pc, #100]	(ce40 <_ZN7android22QualcommCameraHardware11takePictureEv+0x1d0>)
    cdda:	2002      	movs	r0, #2
    cddc:	4479      	add	r1, pc
    cdde:	447a      	add	r2, pc
    cde0:	f7fa ecf6 	blx	77d0 <_ZN7android22QualcommCameraHardware18filterPictureSizesEv-0x51c>
    cde4:	f894 5074 	ldrb.w	r5, [r4, #116]
    cde8:	2d00      	cmp	r5, #0
    cdea:	bf0c      	ite	eq
    cdec:	f04f 4500 	moveq.w	r5, #2147483648	; 0x80000000
    cdf0:	2500      	movne	r5, #0
    cdf2:	f104 00a0 	add.w	r0, r4, #160	; 0xa0
    cdf6:	f7fa ed0a 	blx	780c <_ZN7android22QualcommCameraHardware18filterPictureSizesEv-0x4e0>
    cdfa:	4628      	mov	r0, r5
    cdfc:	b006      	add	sp, #24
    cdfe:	e8bd 87f0 	ldmia.w	sp!, {r4, r5, r6, r7, r8, r9, sl, pc}
    ce02:	2301      	movs	r3, #1
    ce04:	e783      	b.n	cd0e <_ZN7android22QualcommCameraHardware11takePictureEv+0x9e>
    ce06:	bf00      	nop
    ce08:	3713      	adds	r7, #19
    ce0a:	0000      	lsls	r0, r0, #0
    ce0c:	5877      	ldr	r7, [r6, r1]
    ce0e:	0000      	lsls	r0, r0, #0
    ce10:	7a50      	ldrb	r0, [r2, #9]
    ce12:	0000      	lsls	r0, r0, #0
    ce14:	36e1      	adds	r6, #225
    ce16:	0000      	lsls	r0, r0, #0
    ce18:	5855      	ldr	r5, [r2, r1]
    ce1a:	0000      	lsls	r0, r0, #0
    ce1c:	588d      	ldr	r5, [r1, r2]
    ce1e:	0000      	lsls	r0, r0, #0
    ce20:	7be8      	ldrb	r0, [r5, #15]
    ce22:	0000      	lsls	r0, r0, #0
    ce24:	ff14 ffff 	undefined
    ce28:	3643      	adds	r6, #67
    ce2a:	0000      	lsls	r0, r0, #0
    ce2c:	581d      	ldr	r5, [r3, r0]
    ce2e:	0000      	lsls	r0, r0, #0
    ce30:	361d      	adds	r6, #29
    ce32:	0000      	lsls	r0, r0, #0
    ce34:	581c      	ldr	r4, [r3, r0]
    ce36:	0000      	lsls	r0, r0, #0
    ce38:	ff18 ffff 	undefined
    ce3c:	35b3      	adds	r5, #179
    ce3e:	0000      	lsls	r0, r0, #0
    ce40:	57de      	ldrsb	r6, [r3, r7]
	...

0000ce44 <_ZN7android22QualcommCameraHardware11stopPreviewEv>:
    ce44:	4912      	ldr	r1, [pc, #72]	(ce90 <_ZN7android22QualcommCameraHardware11stopPreviewEv+0x4c>)
    ce46:	4a13      	ldr	r2, [pc, #76]	(ce94 <_ZN7android22QualcommCameraHardware11stopPreviewEv+0x50>)
    ce48:	b570      	push	{r4, r5, r6, lr}
    ce4a:	4604      	mov	r4, r0
    ce4c:	4479      	add	r1, pc
    ce4e:	447a      	add	r2, pc
    ce50:	2002      	movs	r0, #2
    ce52:	f104 05a0 	add.w	r5, r4, #160	; 0xa0
    ce56:	f7fa ecbc 	blx	77d0 <_ZN7android22QualcommCameraHardware18filterPictureSizesEv-0x51c>
    ce5a:	4628      	mov	r0, r5
    ce5c:	f7fb fbae 	bl	85bc <_ZN7android22QualcommCameraHardware26receiveJpegPictureFragmentEPhj+0x114>
    ce60:	f8d4 31f4 	ldr.w	r3, [r4, #500]
    ce64:	b12b      	cbz	r3, ce72 <_ZN7android22QualcommCameraHardware11stopPreviewEv+0x2e>
    ce66:	f8d4 11e8 	ldr.w	r1, [r4, #488]
    ce6a:	068b      	lsls	r3, r1, #26
    ce6c:	bf48      	it	mi
    ce6e:	4628      	movmi	r0, r5
    ce70:	d40b      	bmi.n	ce8a <_ZN7android22QualcommCameraHardware11stopPreviewEv+0x46>
    ce72:	4620      	mov	r0, r4
    ce74:	f7ff fdcc 	bl	ca10 <_ZN7android22QualcommCameraHardware19stopPreviewInternalEv>
    ce78:	4907      	ldr	r1, [pc, #28]	(ce98 <_ZN7android22QualcommCameraHardware11stopPreviewEv+0x54>)
    ce7a:	4a08      	ldr	r2, [pc, #32]	(ce9c <_ZN7android22QualcommCameraHardware11stopPreviewEv+0x58>)
    ce7c:	2002      	movs	r0, #2
    ce7e:	4479      	add	r1, pc
    ce80:	447a      	add	r2, pc
    ce82:	f7fa eca6 	blx	77d0 <_ZN7android22QualcommCameraHardware18filterPictureSizesEv-0x51c>
    ce86:	f104 00a0 	add.w	r0, r4, #160	; 0xa0
    ce8a:	f7fa ecc0 	blx	780c <_ZN7android22QualcommCameraHardware18filterPictureSizesEv-0x4e0>
    ce8e:	bd70      	pop	{r4, r5, r6, pc}
    ce90:	3543      	adds	r5, #67
    ce92:	0000      	lsls	r0, r0, #0
    ce94:	577d      	ldrsb	r5, [r7, r5]
    ce96:	0000      	lsls	r0, r0, #0
    ce98:	3511      	adds	r5, #17
    ce9a:	0000      	lsls	r0, r0, #0
    ce9c:	575a      	ldrsb	r2, [r3, r5]
	...

0000cea0 <_ZN7android12opencamerafdEPv>:
    cea0:	4805      	ldr	r0, [pc, #20]	(ceb8 <_ZN7android12opencamerafdEPv+0x18>)
    cea2:	2102      	movs	r1, #2
    cea4:	b510      	push	{r4, lr}
    cea6:	4478      	add	r0, pc
    cea8:	f7fa edc4 	blx	7a34 <_ZN7android22QualcommCameraHardware18filterPictureSizesEv-0x2b8>
    ceac:	4b03      	ldr	r3, [pc, #12]	(cebc <_ZN7android12opencamerafdEPv+0x1c>)
    ceae:	447b      	add	r3, pc
    ceb0:	f8c3 0104 	str.w	r0, [r3, #260]
    ceb4:	2000      	movs	r0, #0
    ceb6:	bd10      	pop	{r4, pc}
    ceb8:	5743      	ldrsb	r3, [r0, r5]
    ceba:	0000      	lsls	r0, r0, #0
    cebc:	7aae      	ldrb	r6, [r5, #10]
	...

0000cec0 <_ZN7android22QualcommCameraHardware12runAutoFocusEv>:
    cec0:	e92d 43f7 	stmdb	sp!, {r0, r1, r2, r4, r5, r6, r7, r8, r9, lr}
    cec4:	f500 7992 	add.w	r9, r0, #292	; 0x124
    cec8:	4604      	mov	r4, r0
    ceca:	4648      	mov	r0, r9
    cecc:	f7fb fb76 	bl	85bc <_ZN7android22QualcommCameraHardware26receiveJpegPictureFragmentEPhj+0x114>
    ced0:	4883      	ldr	r0, [pc, #524]	(d0e0 <_ZN7android22QualcommCameraHardware12runAutoFocusEv+0x220>)
    ced2:	4d84      	ldr	r5, [pc, #528]	(d0e4 <_ZN7android22QualcommCameraHardware12runAutoFocusEv+0x224>)
    ced4:	4478      	add	r0, pc
    ced6:	6800      	ldr	r0, [r0, #0]
    ced8:	447d      	add	r5, pc
    ceda:	7b03      	ldrb	r3, [r0, #12]
    cedc:	b9d3      	cbnz	r3, cf14 <_ZN7android22QualcommCameraHardware12runAutoFocusEv+0x54>
    cede:	f104 00ac 	add.w	r0, r4, #172	; 0xac
    cee2:	f7fb fb6b 	bl	85bc <_ZN7android22QualcommCameraHardware26receiveJpegPictureFragmentEPhj+0x114>
    cee6:	f8d4 51ec 	ldr.w	r5, [r4, #492]
    ceea:	462f      	mov	r7, r5
    ceec:	b11d      	cbz	r5, cef6 <_ZN7android22QualcommCameraHardware12runAutoFocusEv+0x36>
    ceee:	f8d4 71e8 	ldr.w	r7, [r4, #488]
    cef2:	f3c7 0780 	ubfx	r7, r7, #2, #1
    cef6:	f104 00ac 	add.w	r0, r4, #172	; 0xac
    cefa:	f8d4 61f8 	ldr.w	r6, [r4, #504]
    cefe:	f7fa ec86 	blx	780c <_ZN7android22QualcommCameraHardware18filterPictureSizesEv-0x4e0>
    cf02:	2f00      	cmp	r7, #0
    cf04:	f000 80af 	beq.w	d066 <_ZN7android22QualcommCameraHardware12runAutoFocusEv+0x1a6>
    cf08:	2004      	movs	r0, #4
    cf0a:	2101      	movs	r1, #1
    cf0c:	2200      	movs	r2, #0
    cf0e:	4633      	mov	r3, r6
    cf10:	47a8      	blx	r5
    cf12:	e0a8      	b.n	d066 <_ZN7android22QualcommCameraHardware12runAutoFocusEv+0x1a6>
    cf14:	4974      	ldr	r1, [pc, #464]	(d0e8 <_ZN7android22QualcommCameraHardware12runAutoFocusEv+0x228>)
    cf16:	f104 0808 	add.w	r8, r4, #8	; 0x8
    cf1a:	4640      	mov	r0, r8
    cf1c:	586f      	ldr	r7, [r5, r1]
    cf1e:	4639      	mov	r1, r7
    cf20:	f7fa ecec 	blx	78fc <_ZN7android22QualcommCameraHardware18filterPictureSizesEv-0x3f0>
    cf24:	2800      	cmp	r0, #0
    cf26:	f000 809e 	beq.w	d066 <_ZN7android22QualcommCameraHardware12runAutoFocusEv+0x1a6>
    cf2a:	4639      	mov	r1, r7
    cf2c:	4640      	mov	r0, r8
    cf2e:	f7fa ece6 	blx	78fc <_ZN7android22QualcommCameraHardware18filterPictureSizesEv-0x3f0>
    cf32:	4a6e      	ldr	r2, [pc, #440]	(d0ec <_ZN7android22QualcommCameraHardware12runAutoFocusEv+0x22c>)
    cf34:	58a9      	ldr	r1, [r5, r2]
    cf36:	f7fa ec94 	blx	7860 <_ZN7android22QualcommCameraHardware18filterPictureSizesEv-0x48c>
    cf3a:	2800      	cmp	r0, #0
    cf3c:	f000 8093 	beq.w	d066 <_ZN7android22QualcommCameraHardware12runAutoFocusEv+0x1a6>
    cf40:	e0c0      	b.n	d0c4 <_ZN7android22QualcommCameraHardware12runAutoFocusEv+0x204>
    cf42:	f7fa ec9a 	blx	7878 <_ZN7android22QualcommCameraHardware18filterPictureSizesEv-0x474>
    cf46:	6800      	ldr	r0, [r0, #0]
    cf48:	f7fa ec9c 	blx	7884 <_ZN7android22QualcommCameraHardware18filterPictureSizesEv-0x468>
    cf4c:	4968      	ldr	r1, [pc, #416]	(d0f0 <_ZN7android22QualcommCameraHardware12runAutoFocusEv+0x230>)
    cf4e:	4a69      	ldr	r2, [pc, #420]	(d0f4 <_ZN7android22QualcommCameraHardware12runAutoFocusEv+0x234>)
    cf50:	462b      	mov	r3, r5
    cf52:	4479      	add	r1, pc
    cf54:	447a      	add	r2, pc
    cf56:	9000      	str	r0, [sp, #0]
    cf58:	2006      	movs	r0, #6
    cf5a:	f7fa ec3a 	blx	77d0 <_ZN7android22QualcommCameraHardware18filterPictureSizesEv-0x51c>
    cf5e:	2300      	movs	r3, #0
    cf60:	f884 3122 	strb.w	r3, [r4, #290]
    cf64:	e022      	b.n	cfac <_ZN7android22QualcommCameraHardware12runAutoFocusEv+0xec>
    cf66:	4864      	ldr	r0, [pc, #400]	(d0f8 <_ZN7android22QualcommCameraHardware12runAutoFocusEv+0x238>)
    cf68:	2100      	movs	r1, #0
    cf6a:	4d64      	ldr	r5, [pc, #400]	(d0fc <_ZN7android22QualcommCameraHardware12runAutoFocusEv+0x23c>)
    cf6c:	4478      	add	r0, pc
    cf6e:	f7fa ed68 	blx	7a40 <_ZN7android22QualcommCameraHardware18filterPictureSizesEv-0x2ac>
    cf72:	4a63      	ldr	r2, [pc, #396]	(d100 <_ZN7android22QualcommCameraHardware12runAutoFocusEv+0x240>)
    cf74:	447d      	add	r5, pc
    cf76:	447a      	add	r2, pc
    cf78:	4629      	mov	r1, r5
    cf7a:	4606      	mov	r6, r0
    cf7c:	2002      	movs	r0, #2
    cf7e:	4633      	mov	r3, r6
    cf80:	f7fa ec26 	blx	77d0 <_ZN7android22QualcommCameraHardware18filterPictureSizesEv-0x51c>
    cf84:	b9b6      	cbnz	r6, cfb4 <_ZN7android22QualcommCameraHardware12runAutoFocusEv+0xf4>
    cf86:	f7fa ed62 	blx	7a4c <_ZN7android22QualcommCameraHardware18filterPictureSizesEv-0x2a0>
    cf8a:	4a5e      	ldr	r2, [pc, #376]	(d104 <_ZN7android22QualcommCameraHardware12runAutoFocusEv+0x244>)
    cf8c:	4629      	mov	r1, r5
    cf8e:	447a      	add	r2, pc
    cf90:	4603      	mov	r3, r0
    cf92:	2006      	movs	r0, #6
    cf94:	f7fa ec1c 	blx	77d0 <_ZN7android22QualcommCameraHardware18filterPictureSizesEv-0x51c>
    cf98:	f8d4 0128 	ldr.w	r0, [r4, #296]
    cf9c:	f7fa ec78 	blx	7890 <_ZN7android22QualcommCameraHardware18filterPictureSizesEv-0x45c>
    cfa0:	f04f 30ff 	mov.w	r0, #4294967295	; 0xffffffff
    cfa4:	f884 6122 	strb.w	r6, [r4, #290]
    cfa8:	f8c4 0128 	str.w	r0, [r4, #296]
    cfac:	4648      	mov	r0, r9
    cfae:	f7fa ec2e 	blx	780c <_ZN7android22QualcommCameraHardware18filterPictureSizesEv-0x4e0>
    cfb2:	e093      	b.n	d0dc <_ZN7android22QualcommCameraHardware12runAutoFocusEv+0x21c>
    cfb4:	4639      	mov	r1, r7
    cfb6:	4640      	mov	r0, r8
    cfb8:	f7fa eca0 	blx	78fc <_ZN7android22QualcommCameraHardware18filterPictureSizesEv-0x3f0>
    cfbc:	4f52      	ldr	r7, [pc, #328]	(d108 <_ZN7android22QualcommCameraHardware12runAutoFocusEv+0x248>)
    cfbe:	2104      	movs	r1, #4
    cfc0:	f504 7896 	add.w	r8, r4, #300	; 0x12c
    cfc4:	447f      	add	r7, pc
    cfc6:	4602      	mov	r2, r0
    cfc8:	f117 0010 	adds.w	r0, r7, #16	; 0x10
    cfcc:	f7fb fd5a 	bl	8a84 <_ZN7android22QualcommCameraHardware7MemPoolD2Ev+0xd4>
    cfd0:	4a4e      	ldr	r2, [pc, #312]	(d10c <_ZN7android22QualcommCameraHardware12runAutoFocusEv+0x24c>)
    cfd2:	4629      	mov	r1, r5
    cfd4:	f8d4 3128 	ldr.w	r3, [r4, #296]
    cfd8:	447a      	add	r2, pc
    cfda:	9000      	str	r0, [sp, #0]
    cfdc:	4607      	mov	r7, r0
    cfde:	2002      	movs	r0, #2
    cfe0:	f7fa ebf6 	blx	77d0 <_ZN7android22QualcommCameraHardware18filterPictureSizesEv-0x51c>
    cfe4:	4640      	mov	r0, r8
    cfe6:	f7fa ed1a 	blx	7a1c <_ZN7android22QualcommCameraHardware18filterPictureSizesEv-0x2d0>
    cfea:	bb20      	cbnz	r0, d036 <_ZN7android22QualcommCameraHardware12runAutoFocusEv+0x176>
    cfec:	f104 0028 	add.w	r0, r4, #40	; 0x28
    cff0:	f7fb fae4 	bl	85bc <_ZN7android22QualcommCameraHardware26receiveJpegPictureFragmentEPhj+0x114>
    cff4:	f894 9024 	ldrb.w	r9, [r4, #36]
    cff8:	f1b9 0f00 	cmp.w	r9, #0	; 0x0
    cffc:	d00c      	beq.n	d018 <_ZN7android22QualcommCameraHardware12runAutoFocusEv+0x158>
    cffe:	4a44      	ldr	r2, [pc, #272]	(d110 <_ZN7android22QualcommCameraHardware12runAutoFocusEv+0x250>)
    d000:	4629      	mov	r1, r5
    d002:	2002      	movs	r0, #2
    d004:	447a      	add	r2, pc
    d006:	f7fa ebe4 	blx	77d0 <_ZN7android22QualcommCameraHardware18filterPictureSizesEv-0x51c>
    d00a:	f8d4 0128 	ldr.w	r0, [r4, #296]
    d00e:	4639      	mov	r1, r7
    d010:	f7fc fa2a 	bl	9468 <_ZN7android22QualcommCameraHardware13cancelPictureEv+0x164>
    d014:	4605      	mov	r5, r0
    d016:	e006      	b.n	d026 <_ZN7android22QualcommCameraHardware12runAutoFocusEv+0x166>
    d018:	4a3e      	ldr	r2, [pc, #248]	(d114 <_ZN7android22QualcommCameraHardware12runAutoFocusEv+0x254>)
    d01a:	4629      	mov	r1, r5
    d01c:	2002      	movs	r0, #2
    d01e:	464d      	mov	r5, r9
    d020:	447a      	add	r2, pc
    d022:	f7fa ebd6 	blx	77d0 <_ZN7android22QualcommCameraHardware18filterPictureSizesEv-0x51c>
    d026:	f104 0028 	add.w	r0, r4, #40	; 0x28
    d02a:	f7fa ebf0 	blx	780c <_ZN7android22QualcommCameraHardware18filterPictureSizesEv-0x4e0>
    d02e:	4640      	mov	r0, r8
    d030:	f7fa ebec 	blx	780c <_ZN7android22QualcommCameraHardware18filterPictureSizesEv-0x4e0>
    d034:	e006      	b.n	d044 <_ZN7android22QualcommCameraHardware12runAutoFocusEv+0x184>
    d036:	4a38      	ldr	r2, [pc, #224]	(d118 <_ZN7android22QualcommCameraHardware12runAutoFocusEv+0x258>)
    d038:	4629      	mov	r1, r5
    d03a:	2002      	movs	r0, #2
    d03c:	2500      	movs	r5, #0
    d03e:	447a      	add	r2, pc
    d040:	f7fa ebc6 	blx	77d0 <_ZN7android22QualcommCameraHardware18filterPictureSizesEv-0x51c>
    d044:	4935      	ldr	r1, [pc, #212]	(d11c <_ZN7android22QualcommCameraHardware12runAutoFocusEv+0x25c>)
    d046:	462b      	mov	r3, r5
    d048:	4a35      	ldr	r2, [pc, #212]	(d120 <_ZN7android22QualcommCameraHardware12runAutoFocusEv+0x260>)
    d04a:	2002      	movs	r0, #2
    d04c:	4479      	add	r1, pc
    d04e:	447a      	add	r2, pc
    d050:	f7fa ebbe 	blx	77d0 <_ZN7android22QualcommCameraHardware18filterPictureSizesEv-0x51c>
    d054:	f8d4 0128 	ldr.w	r0, [r4, #296]
    d058:	f7fa ec1a 	blx	7890 <_ZN7android22QualcommCameraHardware18filterPictureSizesEv-0x45c>
    d05c:	f04f 31ff 	mov.w	r1, #4294967295	; 0xffffffff
    d060:	f8c4 1128 	str.w	r1, [r4, #296]
    d064:	e001      	b.n	d06a <_ZN7android22QualcommCameraHardware12runAutoFocusEv+0x1aa>
    d066:	2600      	movs	r6, #0
    d068:	2501      	movs	r5, #1
    d06a:	2200      	movs	r2, #0
    d06c:	f504 7092 	add.w	r0, r4, #292	; 0x124
    d070:	f884 2122 	strb.w	r2, [r4, #290]
    d074:	f7fa ebca 	blx	780c <_ZN7android22QualcommCameraHardware18filterPictureSizesEv-0x4e0>
    d078:	f104 00ac 	add.w	r0, r4, #172	; 0xac
    d07c:	f7fb fa9e 	bl	85bc <_ZN7android22QualcommCameraHardware26receiveJpegPictureFragmentEPhj+0x114>
    d080:	f8d4 71ec 	ldr.w	r7, [r4, #492]
    d084:	46b9      	mov	r9, r7
    d086:	b11f      	cbz	r7, d090 <_ZN7android22QualcommCameraHardware12runAutoFocusEv+0x1d0>
    d088:	f8d4 31e8 	ldr.w	r3, [r4, #488]
    d08c:	f3c3 0980 	ubfx	r9, r3, #2, #1
    d090:	f104 00ac 	add.w	r0, r4, #172	; 0xac
    d094:	f8d4 81f8 	ldr.w	r8, [r4, #504]
    d098:	f7fa ebb8 	blx	780c <_ZN7android22QualcommCameraHardware18filterPictureSizesEv-0x4e0>
    d09c:	f1b9 0f00 	cmp.w	r9, #0	; 0x0
    d0a0:	d004      	beq.n	d0ac <_ZN7android22QualcommCameraHardware12runAutoFocusEv+0x1ec>
    d0a2:	2004      	movs	r0, #4
    d0a4:	4629      	mov	r1, r5
    d0a6:	2200      	movs	r2, #0
    d0a8:	4643      	mov	r3, r8
    d0aa:	47b8      	blx	r7
    d0ac:	b1b6      	cbz	r6, d0dc <_ZN7android22QualcommCameraHardware12runAutoFocusEv+0x21c>
    d0ae:	4630      	mov	r0, r6
    d0b0:	f7fa ecd2 	blx	7a58 <_ZN7android22QualcommCameraHardware18filterPictureSizesEv-0x294>
    d0b4:	491b      	ldr	r1, [pc, #108]	(d124 <_ZN7android22QualcommCameraHardware12runAutoFocusEv+0x264>)
    d0b6:	4a1c      	ldr	r2, [pc, #112]	(d128 <_ZN7android22QualcommCameraHardware12runAutoFocusEv+0x268>)
    d0b8:	2002      	movs	r0, #2
    d0ba:	4479      	add	r1, pc
    d0bc:	447a      	add	r2, pc
    d0be:	f7fa eb88 	blx	77d0 <_ZN7android22QualcommCameraHardware18filterPictureSizesEv-0x51c>
    d0c2:	e00b      	b.n	d0dc <_ZN7android22QualcommCameraHardware12runAutoFocusEv+0x21c>
    d0c4:	4d19      	ldr	r5, [pc, #100]	(d12c <_ZN7android22QualcommCameraHardware12runAutoFocusEv+0x26c>)
    d0c6:	2102      	movs	r1, #2
    d0c8:	447d      	add	r5, pc
    d0ca:	4628      	mov	r0, r5
    d0cc:	f7fa ecb2 	blx	7a34 <_ZN7android22QualcommCameraHardware18filterPictureSizesEv-0x2b8>
    d0d0:	2800      	cmp	r0, #0
    d0d2:	f8c4 0128 	str.w	r0, [r4, #296]
    d0d6:	f6bf af46 	bge.w	cf66 <_ZN7android22QualcommCameraHardware12runAutoFocusEv+0xa6>
    d0da:	e732      	b.n	cf42 <_ZN7android22QualcommCameraHardware12runAutoFocusEv+0x82>
    d0dc:	e8bd 83fe 	ldmia.w	sp!, {r1, r2, r3, r4, r5, r6, r7, r8, r9, pc}
    d0e0:	7a88      	ldrb	r0, [r1, #10]
    d0e2:	0000      	lsls	r0, r0, #0
    d0e4:	781c      	ldrb	r4, [r3, #0]
    d0e6:	0000      	lsls	r0, r0, #0
    d0e8:	fea0 ffff 	mcr2	15, 5, pc, cr0, cr15, {7}
    d0ec:	ff1c ffff 	undefined
    d0f0:	343d      	adds	r4, #61
    d0f2:	0000      	lsls	r0, r0, #0
    d0f4:	56ae      	ldrsb	r6, [r5, r2]
    d0f6:	0000      	lsls	r0, r0, #0
    d0f8:	56b4      	ldrsb	r4, [r6, r2]
    d0fa:	0000      	lsls	r0, r0, #0
    d0fc:	341b      	adds	r4, #27
    d0fe:	0000      	lsls	r0, r0, #0
    d100:	56ba      	ldrsb	r2, [r7, r2]
    d102:	0000      	lsls	r0, r0, #0
    d104:	56bf      	ldrsb	r7, [r7, r2]
    d106:	0000      	lsls	r0, r0, #0
    d108:	71b8      	strb	r0, [r7, #6]
    d10a:	0000      	lsls	r0, r0, #0
    d10c:	56a7      	ldrsb	r7, [r4, r2]
    d10e:	0000      	lsls	r0, r0, #0
    d110:	5694      	ldrsb	r4, [r2, r2]
    d112:	0000      	lsls	r0, r0, #0
    d114:	5681      	ldrsb	r1, [r0, r2]
    d116:	0000      	lsls	r0, r0, #0
    d118:	5693      	ldrsb	r3, [r2, r2]
    d11a:	0000      	lsls	r0, r0, #0
    d11c:	3343      	adds	r3, #67
    d11e:	0000      	lsls	r0, r0, #0
    d120:	56c6      	ldrsb	r6, [r0, r3]
    d122:	0000      	lsls	r0, r0, #0
    d124:	32d5      	adds	r2, #213
    d126:	0000      	lsls	r0, r0, #0
    d128:	5664      	ldrsb	r4, [r4, r1]
    d12a:	0000      	lsls	r0, r0, #0
    d12c:	5521      	strb	r1, [r4, r4]
	...

0000d130 <_ZN7android17auto_focus_threadEPv>:
    d130:	b513      	push	{r0, r1, r4, lr}
    d132:	4c11      	ldr	r4, [pc, #68]	(d178 <_ZN7android17auto_focus_threadEPv+0x48>)
    d134:	4a11      	ldr	r2, [pc, #68]	(d17c <_ZN7android17auto_focus_threadEPv+0x4c>)
    d136:	2002      	movs	r0, #2
    d138:	447c      	add	r4, pc
    d13a:	447a      	add	r2, pc
    d13c:	4621      	mov	r1, r4
    d13e:	f7fa eb48 	blx	77d0 <_ZN7android22QualcommCameraHardware18filterPictureSizesEv-0x51c>
    d142:	a801      	add	r0, sp, #4
    d144:	f7ff fa32 	bl	c5ac <_ZN7android22QualcommCameraHardware11getInstanceEv>
    d148:	9801      	ldr	r0, [sp, #4]
    d14a:	b110      	cbz	r0, d152 <_ZN7android17auto_focus_threadEPv+0x22>
    d14c:	f7ff feb8 	bl	cec0 <_ZN7android22QualcommCameraHardware12runAutoFocusEv>
    d150:	e005      	b.n	d15e <_ZN7android17auto_focus_threadEPv+0x2e>
    d152:	4a0b      	ldr	r2, [pc, #44]	(d180 <_ZN7android17auto_focus_threadEPv+0x50>)
    d154:	2005      	movs	r0, #5
    d156:	4621      	mov	r1, r4
    d158:	447a      	add	r2, pc
    d15a:	f7fa eb3a 	blx	77d0 <_ZN7android22QualcommCameraHardware18filterPictureSizesEv-0x51c>
    d15e:	4909      	ldr	r1, [pc, #36]	(d184 <_ZN7android17auto_focus_threadEPv+0x54>)
    d160:	2002      	movs	r0, #2
    d162:	4a09      	ldr	r2, [pc, #36]	(d188 <_ZN7android17auto_focus_threadEPv+0x58>)
    d164:	4479      	add	r1, pc
    d166:	447a      	add	r2, pc
    d168:	f7fa eb32 	blx	77d0 <_ZN7android22QualcommCameraHardware18filterPictureSizesEv-0x51c>
    d16c:	a801      	add	r0, sp, #4
    d16e:	f7fb f93f 	bl	83f0 <_ZN7android2spINS_22QualcommCameraHardwareEED1Ev>
    d172:	2000      	movs	r0, #0
    d174:	bd1c      	pop	{r2, r3, r4, pc}
    d176:	bf00      	nop
    d178:	3257      	adds	r2, #87
    d17a:	0000      	lsls	r0, r0, #0
    d17c:	55fe      	strb	r6, [r7, r7]
    d17e:	0000      	lsls	r0, r0, #0
    d180:	55f4      	strb	r4, [r6, r7]
    d182:	0000      	lsls	r0, r0, #0
    d184:	322b      	adds	r2, #43
    d186:	0000      	lsls	r0, r0, #0
    d188:	5614      	ldrsb	r4, [r2, r0]
	...

0000d18c <_ZN7android22QualcommCameraHardware7releaseEv>:
    d18c:	b5f0      	push	{r4, r5, r6, r7, lr}
    d18e:	4e63      	ldr	r6, [pc, #396]	(d31c <_ZN7android22QualcommCameraHardware7releaseEv+0x190>)
    d190:	4a63      	ldr	r2, [pc, #396]	(d320 <_ZN7android22QualcommCameraHardware7releaseEv+0x194>)
    d192:	4604      	mov	r4, r0
    d194:	447e      	add	r6, pc
    d196:	b089      	sub	sp, #36
    d198:	447a      	add	r2, pc
    d19a:	4631      	mov	r1, r6
    d19c:	2003      	movs	r0, #3
    d19e:	f104 07a0 	add.w	r7, r4, #160	; 0xa0
    d1a2:	f7fa eb16 	blx	77d0 <_ZN7android22QualcommCameraHardware18filterPictureSizesEv-0x51c>
    d1a6:	4638      	mov	r0, r7
    d1a8:	4d5e      	ldr	r5, [pc, #376]	(d324 <_ZN7android22QualcommCameraHardware7releaseEv+0x198>)
    d1aa:	f7fb fa07 	bl	85bc <_ZN7android22QualcommCameraHardware26receiveJpegPictureFragmentEPhj+0x114>
    d1ae:	f8d4 30d8 	ldr.w	r3, [r4, #216]
    d1b2:	447d      	add	r5, pc
    d1b4:	b93b      	cbnz	r3, d1c6 <_ZN7android22QualcommCameraHardware7releaseEv+0x3a>
    d1b6:	4a5c      	ldr	r2, [pc, #368]	(d328 <_ZN7android22QualcommCameraHardware7releaseEv+0x19c>)
    d1b8:	2006      	movs	r0, #6
    d1ba:	4631      	mov	r1, r6
    d1bc:	447a      	add	r2, pc
    d1be:	f7fa eb08 	blx	77d0 <_ZN7android22QualcommCameraHardware18filterPictureSizesEv-0x51c>
    d1c2:	4638      	mov	r0, r7
    d1c4:	e0a3      	b.n	d30e <_ZN7android22QualcommCameraHardware7releaseEv+0x182>
    d1c6:	f894 0024 	ldrb.w	r0, [r4, #36]
    d1ca:	b1c0      	cbz	r0, d1fe <_ZN7android22QualcommCameraHardware7releaseEv+0x72>
    d1cc:	f8d4 11f4 	ldr.w	r1, [r4, #500]
    d1d0:	b191      	cbz	r1, d1f8 <_ZN7android22QualcommCameraHardware7releaseEv+0x6c>
    d1d2:	f8d4 61e8 	ldr.w	r6, [r4, #488]
    d1d6:	06b2      	lsls	r2, r6, #26
    d1d8:	d50e      	bpl.n	d1f8 <_ZN7android22QualcommCameraHardware7releaseEv+0x6c>
    d1da:	f104 07b8 	add.w	r7, r4, #184	; 0xb8
    d1de:	4638      	mov	r0, r7
    d1e0:	f7fb f9ec 	bl	85bc <_ZN7android22QualcommCameraHardware26receiveJpegPictureFragmentEPhj+0x114>
    d1e4:	2201      	movs	r2, #1
    d1e6:	f104 00bc 	add.w	r0, r4, #188	; 0xbc
    d1ea:	f884 20a9 	strb.w	r2, [r4, #169]
    d1ee:	f7fa ebc2 	blx	7974 <_ZN7android22QualcommCameraHardware18filterPictureSizesEv-0x378>
    d1f2:	4638      	mov	r0, r7
    d1f4:	f7fa eb0a 	blx	780c <_ZN7android22QualcommCameraHardware18filterPictureSizesEv-0x4e0>
    d1f8:	4620      	mov	r0, r4
    d1fa:	f7ff fc09 	bl	ca10 <_ZN7android22QualcommCameraHardware19stopPreviewInternalEv>
    d1fe:	4b4b      	ldr	r3, [pc, #300]	(d32c <_ZN7android22QualcommCameraHardware7releaseEv+0x1a0>)
    d200:	447b      	add	r3, pc
    d202:	681b      	ldr	r3, [r3, #0]
    d204:	2b03      	cmp	r3, #3
    d206:	d108      	bne.n	d21a <_ZN7android22QualcommCameraHardware7releaseEv+0x8e>
    d208:	f104 0650 	add.w	r6, r4, #80	; 0x50
    d20c:	4630      	mov	r0, r6
    d20e:	f7fb f89d 	bl	834c <_ZN7android2spINS_22QualcommCameraHardware8PmemPoolEE5clearEv>
    d212:	4630      	mov	r0, r6
    d214:	2100      	movs	r1, #0
    d216:	f7fb f889 	bl	832c <_ZN7android2spINS_22QualcommCameraHardware8PmemPoolEEaSEPS2_>
    d21a:	f8df e114 	ldr.w	lr, [pc, #276]	; d330 <_ZN7android22QualcommCameraHardware7releaseEv+0x1a4>
    d21e:	2600      	movs	r6, #0
    d220:	f855 700e 	ldr.w	r7, [r5, lr]
    d224:	6839      	ldr	r1, [r7, #0]
    d226:	f104 0788 	add.w	r7, r4, #136	; 0x88
    d22a:	4788      	blx	r1
    d22c:	4620      	mov	r0, r4
    d22e:	f7fb f897 	bl	8360 <_ZN7android22QualcommCameraHardware9deinitRawEv>
    d232:	4638      	mov	r0, r7
    d234:	f7fb f9c2 	bl	85bc <_ZN7android22QualcommCameraHardware26receiveJpegPictureFragmentEPhj+0x114>
    d238:	f884 6084 	strb.w	r6, [r4, #132]
    d23c:	f104 008c 	add.w	r0, r4, #140	; 0x8c
    d240:	f7fa eb98 	blx	7974 <_ZN7android22QualcommCameraHardware18filterPictureSizesEv-0x378>
    d244:	4638      	mov	r0, r7
    d246:	f7fa eae2 	blx	780c <_ZN7android22QualcommCameraHardware18filterPictureSizesEv-0x4e0>
    d24a:	4620      	mov	r0, r4
    d24c:	f7fb f8b0 	bl	83b0 <_ZN7android22QualcommCameraHardware17deinitRawSnapshotEv>
    d250:	f241 3088 	movw	r0, #5000	; 0x1388
    d254:	9006      	str	r0, [sp, #24]
    d256:	aa03      	add	r2, sp, #12
    d258:	f8d4 00dc 	ldr.w	r0, [r4, #220]
    d25c:	f04f 0c2b 	mov.w	ip, #43	; 0x2b
    d260:	492d      	ldr	r1, [pc, #180]	(d318 <_ZN7android22QualcommCameraHardware7releaseEv+0x18c>)
    d262:	f8ad 600e 	strh.w	r6, [sp, #14]
    d266:	f8ad c00c 	strh.w	ip, [sp, #12]
    d26a:	9007      	str	r0, [sp, #28]
    d26c:	f7fa eafe 	blx	786c <_ZN7android22QualcommCameraHardware18filterPictureSizesEv-0x480>
    d270:	42b0      	cmp	r0, r6
    d272:	da0f      	bge.n	d294 <_ZN7android22QualcommCameraHardware7releaseEv+0x108>
    d274:	f7fa eb00 	blx	7878 <_ZN7android22QualcommCameraHardware18filterPictureSizesEv-0x474>
    d278:	f8d4 60dc 	ldr.w	r6, [r4, #220]
    d27c:	6800      	ldr	r0, [r0, #0]
    d27e:	f7fa eb02 	blx	7884 <_ZN7android22QualcommCameraHardware18filterPictureSizesEv-0x468>
    d282:	492c      	ldr	r1, [pc, #176]	(d334 <_ZN7android22QualcommCameraHardware7releaseEv+0x1a8>)
    d284:	4a2c      	ldr	r2, [pc, #176]	(d338 <_ZN7android22QualcommCameraHardware7releaseEv+0x1ac>)
    d286:	4633      	mov	r3, r6
    d288:	4479      	add	r1, pc
    d28a:	447a      	add	r2, pc
    d28c:	9000      	str	r0, [sp, #0]
    d28e:	2006      	movs	r0, #6
    d290:	f7fa ea9e 	blx	77d0 <_ZN7android22QualcommCameraHardware18filterPictureSizesEv-0x51c>
    d294:	4b29      	ldr	r3, [pc, #164]	(d33c <_ZN7android22QualcommCameraHardware7releaseEv+0x1b0>)
    d296:	f04f 36ff 	mov.w	r6, #4294967295	; 0xffffffff
    d29a:	58ea      	ldr	r2, [r5, r3]
    d29c:	6815      	ldr	r5, [r2, #0]
    d29e:	47a8      	blx	r5
    d2a0:	4d27      	ldr	r5, [pc, #156]	(d340 <_ZN7android22QualcommCameraHardware7releaseEv+0x1b4>)
    d2a2:	f8d4 00dc 	ldr.w	r0, [r4, #220]
    d2a6:	447d      	add	r5, pc
    d2a8:	f7fa eaf2 	blx	7890 <_ZN7android22QualcommCameraHardware18filterPictureSizesEv-0x45c>
    d2ac:	f8c4 60dc 	str.w	r6, [r4, #220]
    d2b0:	6868      	ldr	r0, [r5, #4]
    d2b2:	2800      	cmp	r0, #0
    d2b4:	db02      	blt.n	d2bc <_ZN7android22QualcommCameraHardware7releaseEv+0x130>
    d2b6:	f7fa eaec 	blx	7890 <_ZN7android22QualcommCameraHardware18filterPictureSizesEv-0x45c>
    d2ba:	606e      	str	r6, [r5, #4]
    d2bc:	f8d4 00d8 	ldr.w	r0, [r4, #216]
    d2c0:	b158      	cbz	r0, d2da <_ZN7android22QualcommCameraHardware7releaseEv+0x14e>
    d2c2:	f7fa ebca 	blx	7a58 <_ZN7android22QualcommCameraHardware18filterPictureSizesEv-0x294>
    d2c6:	491f      	ldr	r1, [pc, #124]	(d344 <_ZN7android22QualcommCameraHardware7releaseEv+0x1b8>)
    d2c8:	4a1f      	ldr	r2, [pc, #124]	(d348 <_ZN7android22QualcommCameraHardware7releaseEv+0x1bc>)
    d2ca:	2002      	movs	r0, #2
    d2cc:	4479      	add	r1, pc
    d2ce:	447a      	add	r2, pc
    d2d0:	f7fa ea7e 	blx	77d0 <_ZN7android22QualcommCameraHardware18filterPictureSizesEv-0x51c>
    d2d4:	2000      	movs	r0, #0
    d2d6:	f8c4 00d8 	str.w	r0, [r4, #216]
    d2da:	4d1c      	ldr	r5, [pc, #112]	(d34c <_ZN7android22QualcommCameraHardware7releaseEv+0x1c0>)
    d2dc:	447d      	add	r5, pc
    d2de:	f505 7684 	add.w	r6, r5, #264	; 0x108
    d2e2:	4630      	mov	r0, r6
    d2e4:	f7fb f96a 	bl	85bc <_ZN7android22QualcommCameraHardware26receiveJpegPictureFragmentEPhj+0x114>
    d2e8:	2001      	movs	r0, #1
    d2ea:	f885 010c 	strb.w	r0, [r5, #268]
    d2ee:	f7fa eb66 	blx	79bc <_ZN7android22QualcommCameraHardware18filterPictureSizesEv-0x330>
    d2f2:	e9c5 0144 	strd	r0, r1, [r5, #272]
    d2f6:	4630      	mov	r0, r6
    d2f8:	f7fa ea88 	blx	780c <_ZN7android22QualcommCameraHardware18filterPictureSizesEv-0x4e0>
    d2fc:	4914      	ldr	r1, [pc, #80]	(d350 <_ZN7android22QualcommCameraHardware7releaseEv+0x1c4>)
    d2fe:	4a15      	ldr	r2, [pc, #84]	(d354 <_ZN7android22QualcommCameraHardware7releaseEv+0x1c8>)
    d300:	2003      	movs	r0, #3
    d302:	4479      	add	r1, pc
    d304:	447a      	add	r2, pc
    d306:	f7fa ea64 	blx	77d0 <_ZN7android22QualcommCameraHardware18filterPictureSizesEv-0x51c>
    d30a:	f104 00a0 	add.w	r0, r4, #160	; 0xa0
    d30e:	f7fa ea7e 	blx	780c <_ZN7android22QualcommCameraHardware18filterPictureSizesEv-0x4e0>
    d312:	b009      	add	sp, #36
    d314:	bdf0      	pop	{r4, r5, r6, r7, pc}
    d316:	bf00      	nop
    d318:	6d04      	ldr	r4, [r0, #80]
    d31a:	4004      	ands	r4, r0
    d31c:	31fb      	adds	r1, #251
    d31e:	0000      	lsls	r0, r0, #0
    d320:	55f6      	strb	r6, [r6, r7]
    d322:	0000      	lsls	r0, r0, #0
    d324:	7542      	strb	r2, [r0, #21]
    d326:	0000      	lsls	r0, r0, #0
    d328:	55dc      	strb	r4, [r3, r7]
    d32a:	0000      	lsls	r0, r0, #0
    d32c:	76c4      	strb	r4, [r0, #27]
    d32e:	0000      	lsls	r0, r0, #0
    d330:	ff20 ffff 	undefined
    d334:	3107      	adds	r1, #7
    d336:	0000      	lsls	r0, r0, #0
    d338:	5527      	strb	r7, [r4, r4]
    d33a:	0000      	lsls	r0, r0, #0
    d33c:	ff24 ffff 	undefined
    d340:	761e      	strb	r6, [r3, #24]
    d342:	0000      	lsls	r0, r0, #0
    d344:	30c3      	adds	r0, #195
    d346:	0000      	lsls	r0, r0, #0
    d348:	5504      	strb	r4, [r0, r4]
    d34a:	0000      	lsls	r0, r0, #0
    d34c:	7680      	strb	r0, [r0, #26]
    d34e:	0000      	lsls	r0, r0, #0
    d350:	308d      	adds	r0, #141
    d352:	0000      	lsls	r0, r0, #0
    d354:	54e2      	strb	r2, [r4, r3]
	...

0000d358 <_ZN7android22QualcommCameraHardware14runFrameThreadEPv>:
    d358:	e92d 41f0 	stmdb	sp!, {r4, r5, r6, r7, r8, lr}
    d35c:	4d2c      	ldr	r5, [pc, #176]	(d410 <_ZN7android22QualcommCameraHardware14runFrameThreadEPv+0xb8>)
    d35e:	4a2d      	ldr	r2, [pc, #180]	(d414 <_ZN7android22QualcommCameraHardware14runFrameThreadEPv+0xbc>)
    d360:	4604      	mov	r4, r0
    d362:	447d      	add	r5, pc
    d364:	4688      	mov	r8, r1
    d366:	447a      	add	r2, pc
    d368:	4629      	mov	r1, r5
    d36a:	2002      	movs	r0, #2
    d36c:	4f2a      	ldr	r7, [pc, #168]	(d418 <_ZN7android22QualcommCameraHardware14runFrameThreadEPv+0xc0>)
    d36e:	f7fa ea30 	blx	77d0 <_ZN7android22QualcommCameraHardware18filterPictureSizesEv-0x51c>
    d372:	482a      	ldr	r0, [pc, #168]	(d41c <_ZN7android22QualcommCameraHardware14runFrameThreadEPv+0xc4>)
    d374:	2100      	movs	r1, #0
    d376:	447f      	add	r7, pc
    d378:	4478      	add	r0, pc
    d37a:	f7fa eb62 	blx	7a40 <_ZN7android22QualcommCameraHardware18filterPictureSizesEv-0x2ac>
    d37e:	4a28      	ldr	r2, [pc, #160]	(d420 <_ZN7android22QualcommCameraHardware14runFrameThreadEPv+0xc8>)
    d380:	4629      	mov	r1, r5
    d382:	447a      	add	r2, pc
    d384:	4606      	mov	r6, r0
    d386:	2002      	movs	r0, #2
    d388:	4633      	mov	r3, r6
    d38a:	f7fa ea22 	blx	77d0 <_ZN7android22QualcommCameraHardware18filterPictureSizesEv-0x51c>
    d38e:	b94e      	cbnz	r6, d3a4 <_ZN7android22QualcommCameraHardware14runFrameThreadEPv+0x4c>
    d390:	f7fa eb5c 	blx	7a4c <_ZN7android22QualcommCameraHardware18filterPictureSizesEv-0x2a0>
    d394:	4a23      	ldr	r2, [pc, #140]	(d424 <_ZN7android22QualcommCameraHardware14runFrameThreadEPv+0xcc>)
    d396:	4629      	mov	r1, r5
    d398:	447a      	add	r2, pc
    d39a:	4603      	mov	r3, r0
    d39c:	2006      	movs	r0, #6
    d39e:	f7fa ea18 	blx	77d0 <_ZN7android22QualcommCameraHardware18filterPictureSizesEv-0x51c>
    d3a2:	e004      	b.n	d3ae <_ZN7android22QualcommCameraHardware14runFrameThreadEPv+0x56>
    d3a4:	4920      	ldr	r1, [pc, #128]	(d428 <_ZN7android22QualcommCameraHardware14runFrameThreadEPv+0xd0>)
    d3a6:	5878      	ldr	r0, [r7, r1]
    d3a8:	6803      	ldr	r3, [r0, #0]
    d3aa:	4640      	mov	r0, r8
    d3ac:	4798      	blx	r3
    d3ae:	4d1f      	ldr	r5, [pc, #124]	(d42c <_ZN7android22QualcommCameraHardware14runFrameThreadEPv+0xd4>)
    d3b0:	f104 0030 	add.w	r0, r4, #48	; 0x30
    d3b4:	f7fa ffca 	bl	834c <_ZN7android2spINS_22QualcommCameraHardware8PmemPoolEE5clearEv>
    d3b8:	447d      	add	r5, pc
    d3ba:	682d      	ldr	r5, [r5, #0]
    d3bc:	1eaa      	subs	r2, r5, #2
    d3be:	2a01      	cmp	r2, #1
    d3c0:	d803      	bhi.n	d3ca <_ZN7android22QualcommCameraHardware14runFrameThreadEPv+0x72>
    d3c2:	f104 0034 	add.w	r0, r4, #52	; 0x34
    d3c6:	f7fa ffc1 	bl	834c <_ZN7android2spINS_22QualcommCameraHardware8PmemPoolEE5clearEv>
    d3ca:	b14e      	cbz	r6, d3e0 <_ZN7android22QualcommCameraHardware14runFrameThreadEPv+0x88>
    d3cc:	4630      	mov	r0, r6
    d3ce:	f7fa eb44 	blx	7a58 <_ZN7android22QualcommCameraHardware18filterPictureSizesEv-0x294>
    d3d2:	4917      	ldr	r1, [pc, #92]	(d430 <_ZN7android22QualcommCameraHardware14runFrameThreadEPv+0xd8>)
    d3d4:	4a17      	ldr	r2, [pc, #92]	(d434 <_ZN7android22QualcommCameraHardware14runFrameThreadEPv+0xdc>)
    d3d6:	2002      	movs	r0, #2
    d3d8:	4479      	add	r1, pc
    d3da:	447a      	add	r2, pc
    d3dc:	f7fa e9f8 	blx	77d0 <_ZN7android22QualcommCameraHardware18filterPictureSizesEv-0x51c>
    d3e0:	f104 0558 	add.w	r5, r4, #88	; 0x58
    d3e4:	4628      	mov	r0, r5
    d3e6:	f7fb f8e9 	bl	85bc <_ZN7android22QualcommCameraHardware26receiveJpegPictureFragmentEPhj+0x114>
    d3ea:	2300      	movs	r3, #0
    d3ec:	f104 005c 	add.w	r0, r4, #92	; 0x5c
    d3f0:	f884 3054 	strb.w	r3, [r4, #84]
    d3f4:	f7fa eabe 	blx	7974 <_ZN7android22QualcommCameraHardware18filterPictureSizesEv-0x378>
    d3f8:	4628      	mov	r0, r5
    d3fa:	f7fa ea08 	blx	780c <_ZN7android22QualcommCameraHardware18filterPictureSizesEv-0x4e0>
    d3fe:	490e      	ldr	r1, [pc, #56]	(d438 <_ZN7android22QualcommCameraHardware14runFrameThreadEPv+0xe0>)
    d400:	4a0e      	ldr	r2, [pc, #56]	(d43c <_ZN7android22QualcommCameraHardware14runFrameThreadEPv+0xe4>)
    d402:	2002      	movs	r0, #2
    d404:	4479      	add	r1, pc
    d406:	447a      	add	r2, pc
    d408:	f7fa e9e2 	blx	77d0 <_ZN7android22QualcommCameraHardware18filterPictureSizesEv-0x51c>
    d40c:	e8bd 81f0 	ldmia.w	sp!, {r4, r5, r6, r7, r8, pc}
    d410:	302d      	adds	r0, #45
    d412:	0000      	lsls	r0, r0, #0
    d414:	548a      	strb	r2, [r1, r2]
    d416:	0000      	lsls	r0, r0, #0
    d418:	737e      	strb	r6, [r7, #13]
    d41a:	0000      	lsls	r0, r0, #0
    d41c:	52a8      	strh	r0, [r5, r2]
    d41e:	0000      	lsls	r0, r0, #0
    d420:	547f      	strb	r7, [r7, r1]
    d422:	0000      	lsls	r0, r0, #0
    d424:	52b5      	strh	r5, [r6, r2]
    d426:	0000      	lsls	r0, r0, #0
    d428:	ff28 ffff 	undefined
    d42c:	750c      	strb	r4, [r1, #20]
    d42e:	0000      	lsls	r0, r0, #0
    d430:	2fb7      	cmp	r7, #183
    d432:	0000      	lsls	r0, r0, #0
    d434:	5447      	strb	r7, [r0, r1]
    d436:	0000      	lsls	r0, r0, #0
    d438:	2f8b      	cmp	r7, #139
    d43a:	0000      	lsls	r0, r0, #0
    d43c:	5436      	strb	r6, [r6, r0]
	...

0000d440 <_ZN7android12frame_threadEPv>:
    d440:	b537      	push	{r0, r1, r2, r4, r5, lr}
    d442:	4c12      	ldr	r4, [pc, #72]	(d48c <_ZN7android12frame_threadEPv+0x4c>)
    d444:	4a12      	ldr	r2, [pc, #72]	(d490 <_ZN7android12frame_threadEPv+0x50>)
    d446:	4605      	mov	r5, r0
    d448:	447c      	add	r4, pc
    d44a:	2003      	movs	r0, #3
    d44c:	447a      	add	r2, pc
    d44e:	4621      	mov	r1, r4
    d450:	f7fa e9be 	blx	77d0 <_ZN7android22QualcommCameraHardware18filterPictureSizesEv-0x51c>
    d454:	a801      	add	r0, sp, #4
    d456:	f7ff f8a9 	bl	c5ac <_ZN7android22QualcommCameraHardware11getInstanceEv>
    d45a:	9801      	ldr	r0, [sp, #4]
    d45c:	b118      	cbz	r0, d466 <_ZN7android12frame_threadEPv+0x26>
    d45e:	4629      	mov	r1, r5
    d460:	f7ff ff7a 	bl	d358 <_ZN7android22QualcommCameraHardware14runFrameThreadEPv>
    d464:	e005      	b.n	d472 <_ZN7android12frame_threadEPv+0x32>
    d466:	4a0b      	ldr	r2, [pc, #44]	(d494 <_ZN7android12frame_threadEPv+0x54>)
    d468:	2005      	movs	r0, #5
    d46a:	4621      	mov	r1, r4
    d46c:	447a      	add	r2, pc
    d46e:	f7fa e9b0 	blx	77d0 <_ZN7android22QualcommCameraHardware18filterPictureSizesEv-0x51c>
    d472:	4909      	ldr	r1, [pc, #36]	(d498 <_ZN7android12frame_threadEPv+0x58>)
    d474:	2003      	movs	r0, #3
    d476:	4a09      	ldr	r2, [pc, #36]	(d49c <_ZN7android12frame_threadEPv+0x5c>)
    d478:	4479      	add	r1, pc
    d47a:	447a      	add	r2, pc
    d47c:	f7fa e9a8 	blx	77d0 <_ZN7android22QualcommCameraHardware18filterPictureSizesEv-0x51c>
    d480:	a801      	add	r0, sp, #4
    d482:	f7fa ffb5 	bl	83f0 <_ZN7android2spINS_22QualcommCameraHardwareEED1Ev>
    d486:	2000      	movs	r0, #0
    d488:	bd3e      	pop	{r1, r2, r3, r4, r5, pc}
    d48a:	bf00      	nop
    d48c:	2f47      	cmp	r7, #71
    d48e:	0000      	lsls	r0, r0, #0
    d490:	5401      	strb	r1, [r0, r0]
    d492:	0000      	lsls	r0, r0, #0
    d494:	53f0      	strh	r0, [r6, r7]
    d496:	0000      	lsls	r0, r0, #0
    d498:	2f17      	cmp	r7, #23
    d49a:	0000      	lsls	r0, r0, #0
    d49c:	5413      	strb	r3, [r2, r0]
	...

0000d4a0 <_ZN7android22QualcommCameraHardwareD1Ev>:
    d4a0:	e92d 41f0 	stmdb	sp!, {r4, r5, r6, r7, r8, lr}
    d4a4:	4d78      	ldr	r5, [pc, #480]	(d688 <_ZN7android22QualcommCameraHardwareD1Ev+0x1e8>)
    d4a6:	f8df c1e4 	ldr.w	ip, [pc, #484]	; d68c <_ZN7android22QualcommCameraHardwareD1Ev+0x1ec>
    d4aa:	4604      	mov	r4, r0
    d4ac:	447d      	add	r5, pc
    d4ae:	4978      	ldr	r1, [pc, #480]	(d690 <_ZN7android22QualcommCameraHardwareD1Ev+0x1f0>)
    d4b0:	f855 700c 	ldr.w	r7, [r5, ip]
    d4b4:	4479      	add	r1, pc
    d4b6:	f117 0294 	adds.w	r2, r7, #148	; 0x94
    d4ba:	f8c0 220c 	str.w	r2, [r0, #524]
    d4be:	4a75      	ldr	r2, [pc, #468]	(d694 <_ZN7android22QualcommCameraHardwareD1Ev+0x1f4>)
    d4c0:	f107 060c 	add.w	r6, r7, #12	; 0xc
    d4c4:	6006      	str	r6, [r0, #0]
    d4c6:	f500 7603 	add.w	r6, r0, #524	; 0x20c
    d4ca:	447a      	add	r2, pc
    d4cc:	2003      	movs	r0, #3
    d4ce:	f7fa e980 	blx	77d0 <_ZN7android22QualcommCameraHardware18filterPictureSizesEv-0x51c>
    d4d2:	4971      	ldr	r1, [pc, #452]	(d698 <_ZN7android22QualcommCameraHardwareD1Ev+0x1f8>)
    d4d4:	4479      	add	r1, pc
    d4d6:	f501 7084 	add.w	r0, r1, #264	; 0x108
    d4da:	f7fb f86f 	bl	85bc <_ZN7android22QualcommCameraHardware26receiveJpegPictureFragmentEPhj+0x114>
    d4de:	486f      	ldr	r0, [pc, #444]	(d69c <_ZN7android22QualcommCameraHardwareD1Ev+0x1fc>)
    d4e0:	4478      	add	r0, pc
    d4e2:	6800      	ldr	r0, [r0, #0]
    d4e4:	1e83      	subs	r3, r0, #2
    d4e6:	2b01      	cmp	r3, #1
    d4e8:	d807      	bhi.n	d4fa <_ZN7android22QualcommCameraHardwareD1Ev+0x5a>
    d4ea:	f8d4 01dc 	ldr.w	r0, [r4, #476]
    d4ee:	b108      	cbz	r0, d4f4 <_ZN7android22QualcommCameraHardwareD1Ev+0x54>
    d4f0:	f7fa e9b0 	blx	7854 <_ZN7android22QualcommCameraHardware18filterPictureSizesEv-0x498>
    d4f4:	2300      	movs	r3, #0
    d4f6:	f8c4 31dc 	str.w	r3, [r4, #476]
    d4fa:	f8df e1a4 	ldr.w	lr, [pc, #420]	; d6a0 <_ZN7android22QualcommCameraHardwareD1Ev+0x200>
    d4fe:	f855 700e 	ldr.w	r7, [r5, lr]
    d502:	6838      	ldr	r0, [r7, #0]
    d504:	b128      	cbz	r0, d512 <_ZN7android22QualcommCameraHardwareD1Ev+0x72>
    d506:	4639      	mov	r1, r7
    d508:	6878      	ldr	r0, [r7, #4]
    d50a:	f7fa e950 	blx	77ac <_ZN7android22QualcommCameraHardware18filterPictureSizesEv-0x540>
    d50e:	2100      	movs	r1, #0
    d510:	6039      	str	r1, [r7, #0]
    d512:	4f64      	ldr	r7, [pc, #400]	(d6a4 <_ZN7android22QualcommCameraHardwareD1Ev+0x204>)
    d514:	2300      	movs	r3, #0
    d516:	2200      	movs	r2, #0
    d518:	447f      	add	r7, pc
    d51a:	f507 708c 	add.w	r0, r7, #280	; 0x118
    d51e:	f887 210c 	strb.w	r2, [r7, #268]
    d522:	2200      	movs	r2, #0
    d524:	e9c7 2344 	strd	r2, r3, [r7, #272]
    d528:	f7fa ea24 	blx	7974 <_ZN7android22QualcommCameraHardware18filterPictureSizesEv-0x378>
    d52c:	f507 7084 	add.w	r0, r7, #264	; 0x108
    d530:	f7fa e96c 	blx	780c <_ZN7android22QualcommCameraHardware18filterPictureSizesEv-0x4e0>
    d534:	495c      	ldr	r1, [pc, #368]	(d6a8 <_ZN7android22QualcommCameraHardwareD1Ev+0x208>)
    d536:	4a5d      	ldr	r2, [pc, #372]	(d6ac <_ZN7android22QualcommCameraHardwareD1Ev+0x20c>)
    d538:	2003      	movs	r0, #3
    d53a:	4479      	add	r1, pc
    d53c:	447a      	add	r2, pc
    d53e:	f7fa e948 	blx	77d0 <_ZN7android22QualcommCameraHardware18filterPictureSizesEv-0x51c>
    d542:	f8d4 31e4 	ldr.w	r3, [r4, #484]
    d546:	b13b      	cbz	r3, d558 <_ZN7android22QualcommCameraHardwareD1Ev+0xb8>
    d548:	6819      	ldr	r1, [r3, #0]
    d54a:	f851 0c0c 	ldr.w	r0, [r1, #-12]
    d54e:	f504 71f2 	add.w	r1, r4, #484	; 0x1e4
    d552:	1818      	adds	r0, r3, r0
    d554:	f7fa e948 	blx	77e8 <_ZN7android22QualcommCameraHardware18filterPictureSizesEv-0x504>
    d558:	f504 7096 	add.w	r0, r4, #300	; 0x12c
    d55c:	f7fa e932 	blx	77c4 <_ZN7android22QualcommCameraHardware18filterPictureSizesEv-0x528>
    d560:	f504 7092 	add.w	r0, r4, #292	; 0x124
    d564:	f7fa e92e 	blx	77c4 <_ZN7android22QualcommCameraHardware18filterPictureSizesEv-0x528>
    d568:	f104 00c0 	add.w	r0, r4, #192	; 0xc0
    d56c:	f7fa e924 	blx	77b8 <_ZN7android22QualcommCameraHardware18filterPictureSizesEv-0x534>
    d570:	f104 00bc 	add.w	r0, r4, #188	; 0xbc
    d574:	f7fa e920 	blx	77b8 <_ZN7android22QualcommCameraHardware18filterPictureSizesEv-0x534>
    d578:	f104 00b8 	add.w	r0, r4, #184	; 0xb8
    d57c:	f7fa e922 	blx	77c4 <_ZN7android22QualcommCameraHardware18filterPictureSizesEv-0x528>
    d580:	f104 00b4 	add.w	r0, r4, #180	; 0xb4
    d584:	f7fa e91e 	blx	77c4 <_ZN7android22QualcommCameraHardware18filterPictureSizesEv-0x528>
    d588:	f104 00b0 	add.w	r0, r4, #176	; 0xb0
    d58c:	f7fa e91a 	blx	77c4 <_ZN7android22QualcommCameraHardware18filterPictureSizesEv-0x528>
    d590:	f104 00ac 	add.w	r0, r4, #172	; 0xac
    d594:	f7fa e916 	blx	77c4 <_ZN7android22QualcommCameraHardware18filterPictureSizesEv-0x528>
    d598:	f104 00a4 	add.w	r0, r4, #164	; 0xa4
    d59c:	f7fa e912 	blx	77c4 <_ZN7android22QualcommCameraHardware18filterPictureSizesEv-0x528>
    d5a0:	f104 00a0 	add.w	r0, r4, #160	; 0xa0
    d5a4:	f7fa e90e 	blx	77c4 <_ZN7android22QualcommCameraHardware18filterPictureSizesEv-0x528>
    d5a8:	f104 0098 	add.w	r0, r4, #152	; 0x98
    d5ac:	f7fa e904 	blx	77b8 <_ZN7android22QualcommCameraHardware18filterPictureSizesEv-0x534>
    d5b0:	f104 0094 	add.w	r0, r4, #148	; 0x94
    d5b4:	f7fa e906 	blx	77c4 <_ZN7android22QualcommCameraHardware18filterPictureSizesEv-0x528>
    d5b8:	f104 008c 	add.w	r0, r4, #140	; 0x8c
    d5bc:	f7fa e8fc 	blx	77b8 <_ZN7android22QualcommCameraHardware18filterPictureSizesEv-0x534>
    d5c0:	f104 0088 	add.w	r0, r4, #136	; 0x88
    d5c4:	f7fa e8fe 	blx	77c4 <_ZN7android22QualcommCameraHardware18filterPictureSizesEv-0x528>
    d5c8:	f104 0080 	add.w	r0, r4, #128	; 0x80
    d5cc:	f7fa e8fa 	blx	77c4 <_ZN7android22QualcommCameraHardware18filterPictureSizesEv-0x528>
    d5d0:	f104 007c 	add.w	r0, r4, #124	; 0x7c
    d5d4:	f7fa e8f0 	blx	77b8 <_ZN7android22QualcommCameraHardware18filterPictureSizesEv-0x534>
    d5d8:	f104 0078 	add.w	r0, r4, #120	; 0x78
    d5dc:	f7fa e8f2 	blx	77c4 <_ZN7android22QualcommCameraHardware18filterPictureSizesEv-0x528>
    d5e0:	f104 0070 	add.w	r0, r4, #112	; 0x70
    d5e4:	f7fa e8ee 	blx	77c4 <_ZN7android22QualcommCameraHardware18filterPictureSizesEv-0x528>
    d5e8:	f104 0068 	add.w	r0, r4, #104	; 0x68
    d5ec:	f7fa e8e4 	blx	77b8 <_ZN7android22QualcommCameraHardware18filterPictureSizesEv-0x534>
    d5f0:	f104 0064 	add.w	r0, r4, #100	; 0x64
    d5f4:	f7fa e8e6 	blx	77c4 <_ZN7android22QualcommCameraHardware18filterPictureSizesEv-0x528>
    d5f8:	f104 005c 	add.w	r0, r4, #92	; 0x5c
    d5fc:	f7fa e8dc 	blx	77b8 <_ZN7android22QualcommCameraHardware18filterPictureSizesEv-0x534>
    d600:	f104 0058 	add.w	r0, r4, #88	; 0x58
    d604:	f7fa e8de 	blx	77c4 <_ZN7android22QualcommCameraHardware18filterPictureSizesEv-0x528>
    d608:	f104 0050 	add.w	r0, r4, #80	; 0x50
    d60c:	f7fa fefe 	bl	840c <_ZN7android2spINS_22QualcommCameraHardware8PmemPoolEED1Ev>
    d610:	6ce0      	ldr	r0, [r4, #76]
    d612:	b118      	cbz	r0, d61c <_ZN7android22QualcommCameraHardwareD1Ev+0x17c>
    d614:	f104 014c 	add.w	r1, r4, #76	; 0x4c
    d618:	f7fa e8e6 	blx	77e8 <_ZN7android22QualcommCameraHardware18filterPictureSizesEv-0x504>
    d61c:	f104 0048 	add.w	r0, r4, #72	; 0x48
    d620:	f7fa fef4 	bl	840c <_ZN7android2spINS_22QualcommCameraHardware8PmemPoolEED1Ev>
    d624:	6c60      	ldr	r0, [r4, #68]
    d626:	b118      	cbz	r0, d630 <_ZN7android22QualcommCameraHardwareD1Ev+0x190>
    d628:	f104 0144 	add.w	r1, r4, #68	; 0x44
    d62c:	f7fa e8dc 	blx	77e8 <_ZN7android22QualcommCameraHardware18filterPictureSizesEv-0x504>
    d630:	f104 0040 	add.w	r0, r4, #64	; 0x40
    d634:	f7fa feea 	bl	840c <_ZN7android2spINS_22QualcommCameraHardware8PmemPoolEED1Ev>
    d638:	f104 003c 	add.w	r0, r4, #60	; 0x3c
    d63c:	f7fa fee6 	bl	840c <_ZN7android2spINS_22QualcommCameraHardware8PmemPoolEED1Ev>
    d640:	f104 0038 	add.w	r0, r4, #56	; 0x38
    d644:	f7fa fee2 	bl	840c <_ZN7android2spINS_22QualcommCameraHardware8PmemPoolEED1Ev>
    d648:	f104 0034 	add.w	r0, r4, #52	; 0x34
    d64c:	f7fa fede 	bl	840c <_ZN7android2spINS_22QualcommCameraHardware8PmemPoolEED1Ev>
    d650:	f104 0030 	add.w	r0, r4, #48	; 0x30
    d654:	f7fa feda 	bl	840c <_ZN7android2spINS_22QualcommCameraHardware8PmemPoolEED1Ev>
    d658:	f104 0028 	add.w	r0, r4, #40	; 0x28
    d65c:	f7fa e8b2 	blx	77c4 <_ZN7android22QualcommCameraHardware18filterPictureSizesEv-0x528>
    d660:	f104 0008 	add.w	r0, r4, #8	; 0x8
    d664:	f7fa e9fe 	blx	7a64 <_ZN7android22QualcommCameraHardware18filterPictureSizesEv-0x288>
    d668:	f8df c044 	ldr.w	ip, [pc, #68]	; d6b0 <_ZN7android22QualcommCameraHardwareD1Ev+0x210>
    d66c:	f855 000c 	ldr.w	r0, [r5, ip]
    d670:	6841      	ldr	r1, [r0, #4]
    d672:	6883      	ldr	r3, [r0, #8]
    d674:	4630      	mov	r0, r6
    d676:	6021      	str	r1, [r4, #0]
    d678:	f851 2c0c 	ldr.w	r2, [r1, #-12]
    d67c:	50a3      	str	r3, [r4, r2]
    d67e:	f7fa e872 	blx	7764 <_ZN7android22QualcommCameraHardware18filterPictureSizesEv-0x588>
    d682:	4620      	mov	r0, r4
    d684:	e8bd 81f0 	ldmia.w	sp!, {r4, r5, r6, r7, r8, pc}
    d688:	7248      	strb	r0, [r1, #9]
    d68a:	0000      	lsls	r0, r0, #0
    d68c:	ff2c ffff 	undefined
    d690:	2edb      	cmp	r6, #219
    d692:	0000      	lsls	r0, r0, #0
    d694:	53d2      	strh	r2, [r2, r7]
    d696:	0000      	lsls	r0, r0, #0
    d698:	7488      	strb	r0, [r1, #18]
    d69a:	0000      	lsls	r0, r0, #0
    d69c:	73e4      	strb	r4, [r4, #15]
    d69e:	0000      	lsls	r0, r0, #0
    d6a0:	ff0c ffff 	undefined
    d6a4:	7444      	strb	r4, [r0, #17]
    d6a6:	0000      	lsls	r0, r0, #0
    d6a8:	2e55      	cmp	r6, #85
    d6aa:	0000      	lsls	r0, r0, #0
    d6ac:	537a      	strh	r2, [r7, r5]
    d6ae:	0000      	lsls	r0, r0, #0
    d6b0:	ff30 ffff 	undefined

0000d6b4 <_ZN7android22QualcommCameraHardwareD0Ev>:
    d6b4:	b510      	push	{r4, lr}
    d6b6:	4604      	mov	r4, r0
    d6b8:	f7ff fef2 	bl	d4a0 <_ZN7android22QualcommCameraHardwareD1Ev>
    d6bc:	4620      	mov	r0, r4
    d6be:	f7fa e858 	blx	7770 <_ZN7android22QualcommCameraHardware18filterPictureSizesEv-0x57c>
    d6c2:	4620      	mov	r0, r4
    d6c4:	bd10      	pop	{r4, pc}
    d6c6:	bf00      	nop

0000d6c8 <_ZN7android22QualcommCameraHardwareD2Ev>:
    d6c8:	b570      	push	{r4, r5, r6, lr}
    d6ca:	4604      	mov	r4, r0
    d6cc:	6808      	ldr	r0, [r1, #0]
    d6ce:	4d6d      	ldr	r5, [pc, #436]	(d884 <_ZN7android22QualcommCameraHardwareD2Ev+0x1bc>)
    d6d0:	6020      	str	r0, [r4, #0]
    d6d2:	447d      	add	r5, pc
    d6d4:	f850 3c0c 	ldr.w	r3, [r0, #-12]
    d6d8:	2003      	movs	r0, #3
    d6da:	68ca      	ldr	r2, [r1, #12]
    d6dc:	496a      	ldr	r1, [pc, #424]	(d888 <_ZN7android22QualcommCameraHardwareD2Ev+0x1c0>)
    d6de:	50e2      	str	r2, [r4, r3]
    d6e0:	4479      	add	r1, pc
    d6e2:	4a6a      	ldr	r2, [pc, #424]	(d88c <_ZN7android22QualcommCameraHardwareD2Ev+0x1c4>)
    d6e4:	447a      	add	r2, pc
    d6e6:	f7fa e874 	blx	77d0 <_ZN7android22QualcommCameraHardware18filterPictureSizesEv-0x51c>
    d6ea:	4969      	ldr	r1, [pc, #420]	(d890 <_ZN7android22QualcommCameraHardwareD2Ev+0x1c8>)
    d6ec:	4479      	add	r1, pc
    d6ee:	f501 7084 	add.w	r0, r1, #264	; 0x108
    d6f2:	f7fa ff63 	bl	85bc <_ZN7android22QualcommCameraHardware26receiveJpegPictureFragmentEPhj+0x114>
    d6f6:	4867      	ldr	r0, [pc, #412]	(d894 <_ZN7android22QualcommCameraHardwareD2Ev+0x1cc>)
    d6f8:	4478      	add	r0, pc
    d6fa:	6800      	ldr	r0, [r0, #0]
    d6fc:	1e83      	subs	r3, r0, #2
    d6fe:	2b01      	cmp	r3, #1
    d700:	d807      	bhi.n	d712 <_ZN7android22QualcommCameraHardwareD2Ev+0x4a>
    d702:	f8d4 01dc 	ldr.w	r0, [r4, #476]
    d706:	b108      	cbz	r0, d70c <_ZN7android22QualcommCameraHardwareD2Ev+0x44>
    d708:	f7fa e8a4 	blx	7854 <_ZN7android22QualcommCameraHardware18filterPictureSizesEv-0x498>
    d70c:	2100      	movs	r1, #0
    d70e:	f8c4 11dc 	str.w	r1, [r4, #476]
    d712:	f8df c184 	ldr.w	ip, [pc, #388]	; d898 <_ZN7android22QualcommCameraHardwareD2Ev+0x1d0>
    d716:	f855 500c 	ldr.w	r5, [r5, ip]
    d71a:	682a      	ldr	r2, [r5, #0]
    d71c:	b12a      	cbz	r2, d72a <_ZN7android22QualcommCameraHardwareD2Ev+0x62>
    d71e:	6868      	ldr	r0, [r5, #4]
    d720:	4629      	mov	r1, r5
    d722:	f7fa e844 	blx	77ac <_ZN7android22QualcommCameraHardware18filterPictureSizesEv-0x540>
    d726:	2300      	movs	r3, #0
    d728:	602b      	str	r3, [r5, #0]
    d72a:	4d5c      	ldr	r5, [pc, #368]	(d89c <_ZN7android22QualcommCameraHardwareD2Ev+0x1d4>)
    d72c:	2300      	movs	r3, #0
    d72e:	2200      	movs	r2, #0
    d730:	2000      	movs	r0, #0
    d732:	447d      	add	r5, pc
    d734:	e9c5 2344 	strd	r2, r3, [r5, #272]
    d738:	f885 010c 	strb.w	r0, [r5, #268]
    d73c:	f505 708c 	add.w	r0, r5, #280	; 0x118
    d740:	f7fa e918 	blx	7974 <_ZN7android22QualcommCameraHardware18filterPictureSizesEv-0x378>
    d744:	f505 7084 	add.w	r0, r5, #264	; 0x108
    d748:	f7fa e860 	blx	780c <_ZN7android22QualcommCameraHardware18filterPictureSizesEv-0x4e0>
    d74c:	4954      	ldr	r1, [pc, #336]	(d8a0 <_ZN7android22QualcommCameraHardwareD2Ev+0x1d8>)
    d74e:	4a55      	ldr	r2, [pc, #340]	(d8a4 <_ZN7android22QualcommCameraHardwareD2Ev+0x1dc>)
    d750:	2003      	movs	r0, #3
    d752:	4479      	add	r1, pc
    d754:	447a      	add	r2, pc
    d756:	f7fa e83c 	blx	77d0 <_ZN7android22QualcommCameraHardware18filterPictureSizesEv-0x51c>
    d75a:	f8d4 31e4 	ldr.w	r3, [r4, #484]
    d75e:	b13b      	cbz	r3, d770 <_ZN7android22QualcommCameraHardwareD2Ev+0xa8>
    d760:	681a      	ldr	r2, [r3, #0]
    d762:	f852 1c0c 	ldr.w	r1, [r2, #-12]
    d766:	1858      	adds	r0, r3, r1
    d768:	f504 71f2 	add.w	r1, r4, #484	; 0x1e4
    d76c:	f7fa e83c 	blx	77e8 <_ZN7android22QualcommCameraHardware18filterPictureSizesEv-0x504>
    d770:	f504 7096 	add.w	r0, r4, #300	; 0x12c
    d774:	f7fa e826 	blx	77c4 <_ZN7android22QualcommCameraHardware18filterPictureSizesEv-0x528>
    d778:	f504 7092 	add.w	r0, r4, #292	; 0x124
    d77c:	f7fa e822 	blx	77c4 <_ZN7android22QualcommCameraHardware18filterPictureSizesEv-0x528>
    d780:	f104 00c0 	add.w	r0, r4, #192	; 0xc0
    d784:	f7fa e818 	blx	77b8 <_ZN7android22QualcommCameraHardware18filterPictureSizesEv-0x534>
    d788:	f104 00bc 	add.w	r0, r4, #188	; 0xbc
    d78c:	f7fa e814 	blx	77b8 <_ZN7android22QualcommCameraHardware18filterPictureSizesEv-0x534>
    d790:	f104 00b8 	add.w	r0, r4, #184	; 0xb8
    d794:	f7fa e816 	blx	77c4 <_ZN7android22QualcommCameraHardware18filterPictureSizesEv-0x528>
    d798:	f104 00b4 	add.w	r0, r4, #180	; 0xb4
    d79c:	f7fa e812 	blx	77c4 <_ZN7android22QualcommCameraHardware18filterPictureSizesEv-0x528>
    d7a0:	f104 00b0 	add.w	r0, r4, #176	; 0xb0
    d7a4:	f7fa e80e 	blx	77c4 <_ZN7android22QualcommCameraHardware18filterPictureSizesEv-0x528>
    d7a8:	f104 00ac 	add.w	r0, r4, #172	; 0xac
    d7ac:	f7fa e80a 	blx	77c4 <_ZN7android22QualcommCameraHardware18filterPictureSizesEv-0x528>
    d7b0:	f104 00a4 	add.w	r0, r4, #164	; 0xa4
    d7b4:	f7fa e806 	blx	77c4 <_ZN7android22QualcommCameraHardware18filterPictureSizesEv-0x528>
    d7b8:	f104 00a0 	add.w	r0, r4, #160	; 0xa0
    d7bc:	f7fa e802 	blx	77c4 <_ZN7android22QualcommCameraHardware18filterPictureSizesEv-0x528>
    d7c0:	f104 0098 	add.w	r0, r4, #152	; 0x98
    d7c4:	f7f9 eff8 	blx	77b8 <_ZN7android22QualcommCameraHardware18filterPictureSizesEv-0x534>
    d7c8:	f104 0094 	add.w	r0, r4, #148	; 0x94
    d7cc:	f7f9 effa 	blx	77c4 <_ZN7android22QualcommCameraHardware18filterPictureSizesEv-0x528>
    d7d0:	f104 008c 	add.w	r0, r4, #140	; 0x8c
    d7d4:	f7f9 eff0 	blx	77b8 <_ZN7android22QualcommCameraHardware18filterPictureSizesEv-0x534>
    d7d8:	f104 0088 	add.w	r0, r4, #136	; 0x88
    d7dc:	f7f9 eff2 	blx	77c4 <_ZN7android22QualcommCameraHardware18filterPictureSizesEv-0x528>
    d7e0:	f104 0080 	add.w	r0, r4, #128	; 0x80
    d7e4:	f7f9 efee 	blx	77c4 <_ZN7android22QualcommCameraHardware18filterPictureSizesEv-0x528>
    d7e8:	f104 007c 	add.w	r0, r4, #124	; 0x7c
    d7ec:	f7f9 efe4 	blx	77b8 <_ZN7android22QualcommCameraHardware18filterPictureSizesEv-0x534>
    d7f0:	f104 0078 	add.w	r0, r4, #120	; 0x78
    d7f4:	f7f9 efe6 	blx	77c4 <_ZN7android22QualcommCameraHardware18filterPictureSizesEv-0x528>
    d7f8:	f104 0070 	add.w	r0, r4, #112	; 0x70
    d7fc:	f7f9 efe2 	blx	77c4 <_ZN7android22QualcommCameraHardware18filterPictureSizesEv-0x528>
    d800:	f104 0068 	add.w	r0, r4, #104	; 0x68
    d804:	f7f9 efd8 	blx	77b8 <_ZN7android22QualcommCameraHardware18filterPictureSizesEv-0x534>
    d808:	f104 0064 	add.w	r0, r4, #100	; 0x64
    d80c:	f7f9 efda 	blx	77c4 <_ZN7android22QualcommCameraHardware18filterPictureSizesEv-0x528>
    d810:	f104 005c 	add.w	r0, r4, #92	; 0x5c
    d814:	f7f9 efd0 	blx	77b8 <_ZN7android22QualcommCameraHardware18filterPictureSizesEv-0x534>
    d818:	f104 0058 	add.w	r0, r4, #88	; 0x58
    d81c:	f7f9 efd2 	blx	77c4 <_ZN7android22QualcommCameraHardware18filterPictureSizesEv-0x528>
    d820:	f104 0050 	add.w	r0, r4, #80	; 0x50
    d824:	f7fa fdf2 	bl	840c <_ZN7android2spINS_22QualcommCameraHardware8PmemPoolEED1Ev>
    d828:	6ce0      	ldr	r0, [r4, #76]
    d82a:	b118      	cbz	r0, d834 <_ZN7android22QualcommCameraHardwareD2Ev+0x16c>
    d82c:	f104 014c 	add.w	r1, r4, #76	; 0x4c
    d830:	f7f9 efda 	blx	77e8 <_ZN7android22QualcommCameraHardware18filterPictureSizesEv-0x504>
    d834:	f104 0048 	add.w	r0, r4, #72	; 0x48
    d838:	f7fa fde8 	bl	840c <_ZN7android2spINS_22QualcommCameraHardware8PmemPoolEED1Ev>
    d83c:	6c60      	ldr	r0, [r4, #68]
    d83e:	b118      	cbz	r0, d848 <_ZN7android22QualcommCameraHardwareD2Ev+0x180>
    d840:	f104 0144 	add.w	r1, r4, #68	; 0x44
    d844:	f7f9 efd0 	blx	77e8 <_ZN7android22QualcommCameraHardware18filterPictureSizesEv-0x504>
    d848:	f104 0040 	add.w	r0, r4, #64	; 0x40
    d84c:	f7fa fdde 	bl	840c <_ZN7android2spINS_22QualcommCameraHardware8PmemPoolEED1Ev>
    d850:	f104 003c 	add.w	r0, r4, #60	; 0x3c
    d854:	f7fa fdda 	bl	840c <_ZN7android2spINS_22QualcommCameraHardware8PmemPoolEED1Ev>
    d858:	f104 0038 	add.w	r0, r4, #56	; 0x38
    d85c:	f7fa fdd6 	bl	840c <_ZN7android2spINS_22QualcommCameraHardware8PmemPoolEED1Ev>
    d860:	f104 0034 	add.w	r0, r4, #52	; 0x34
    d864:	f7fa fdd2 	bl	840c <_ZN7android2spINS_22QualcommCameraHardware8PmemPoolEED1Ev>
    d868:	f104 0030 	add.w	r0, r4, #48	; 0x30
    d86c:	f7fa fdce 	bl	840c <_ZN7android2spINS_22QualcommCameraHardware8PmemPoolEED1Ev>
    d870:	f104 0028 	add.w	r0, r4, #40	; 0x28
    d874:	f7f9 efa6 	blx	77c4 <_ZN7android22QualcommCameraHardware18filterPictureSizesEv-0x528>
    d878:	f104 0008 	add.w	r0, r4, #8	; 0x8
    d87c:	f7fa e8f2 	blx	7a64 <_ZN7android22QualcommCameraHardware18filterPictureSizesEv-0x288>
    d880:	4620      	mov	r0, r4
    d882:	bd70      	pop	{r4, r5, r6, pc}
    d884:	7022      	strb	r2, [r4, #0]
    d886:	0000      	lsls	r0, r0, #0
    d888:	2caf      	cmp	r4, #175
    d88a:	0000      	lsls	r0, r0, #0
    d88c:	51b8      	str	r0, [r7, r6]
    d88e:	0000      	lsls	r0, r0, #0
    d890:	7270      	strb	r0, [r6, #9]
    d892:	0000      	lsls	r0, r0, #0
    d894:	71cc      	strb	r4, [r1, #7]
    d896:	0000      	lsls	r0, r0, #0
    d898:	ff0c ffff 	undefined
    d89c:	722a      	strb	r2, [r5, #8]
    d89e:	0000      	lsls	r0, r0, #0
    d8a0:	2c3d      	cmp	r4, #61
    d8a2:	0000      	lsls	r0, r0, #0
    d8a4:	5162      	str	r2, [r4, r5]
	...

0000d8a8 <_ZN7android22QualcommCameraHardware17jpeg_set_locationEv>:
    d8a8:	e92d 43f0 	stmdb	sp!, {r4, r5, r6, r7, r8, r9, lr}
    d8ac:	ed2d 8b02 	vstmdb	sp!, {d8}
    d8b0:	4c79      	ldr	r4, [pc, #484]	(da98 <_ZN7android22QualcommCameraHardware17jpeg_set_locationEv+0x1f0>)
    d8b2:	f100 0708 	add.w	r7, r0, #8	; 0x8
    d8b6:	b087      	sub	sp, #28
    d8b8:	447c      	add	r4, pc
    d8ba:	4638      	mov	r0, r7
    d8bc:	4621      	mov	r1, r4
    d8be:	4d77      	ldr	r5, [pc, #476]	(da9c <_ZN7android22QualcommCameraHardware17jpeg_set_locationEv+0x1f4>)
    d8c0:	f7fa e81c 	blx	78fc <_ZN7android22QualcommCameraHardware18filterPictureSizesEv-0x3f0>
    d8c4:	4a76      	ldr	r2, [pc, #472]	(daa0 <_ZN7android22QualcommCameraHardware17jpeg_set_locationEv+0x1f8>)
    d8c6:	447d      	add	r5, pc
    d8c8:	4623      	mov	r3, r4
    d8ca:	447a      	add	r2, pc
    d8cc:	4629      	mov	r1, r5
    d8ce:	4606      	mov	r6, r0
    d8d0:	9000      	str	r0, [sp, #0]
    d8d2:	2002      	movs	r0, #2
    d8d4:	f7f9 ef7c 	blx	77d0 <_ZN7android22QualcommCameraHardware18filterPictureSizesEv-0x51c>
    d8d8:	b1b6      	cbz	r6, d908 <_ZN7android22QualcommCameraHardware17jpeg_set_locationEv+0x60>
    d8da:	aa06      	add	r2, sp, #24
    d8dc:	4971      	ldr	r1, [pc, #452]	(daa4 <_ZN7android22QualcommCameraHardware17jpeg_set_locationEv+0x1fc>)
    d8de:	2300      	movs	r3, #0
    d8e0:	4630      	mov	r0, r6
    d8e2:	f842 3d08 	str.w	r3, [r2, #-8]!
    d8e6:	4479      	add	r1, pc
    d8e8:	f7fa e8c2 	blx	7a70 <_ZN7android22QualcommCameraHardware18filterPictureSizesEv-0x27c>
    d8ec:	2801      	cmp	r0, #1
    d8ee:	d103      	bne.n	d8f8 <_ZN7android22QualcommCameraHardware17jpeg_set_locationEv+0x50>
    d8f0:	9904      	ldr	r1, [sp, #16]
    d8f2:	4604      	mov	r4, r0
    d8f4:	b999      	cbnz	r1, d91e <_ZN7android22QualcommCameraHardware17jpeg_set_locationEv+0x76>
    d8f6:	e00e      	b.n	d916 <_ZN7android22QualcommCameraHardware17jpeg_set_locationEv+0x6e>
    d8f8:	4a6b      	ldr	r2, [pc, #428]	(daa8 <_ZN7android22QualcommCameraHardware17jpeg_set_locationEv+0x200>)
    d8fa:	2006      	movs	r0, #6
    d8fc:	4629      	mov	r1, r5
    d8fe:	4633      	mov	r3, r6
    d900:	447a      	add	r2, pc
    d902:	f7f9 ef66 	blx	77d0 <_ZN7android22QualcommCameraHardware18filterPictureSizesEv-0x51c>
    d906:	e0ba      	b.n	da7e <_ZN7android22QualcommCameraHardware17jpeg_set_locationEv+0x1d6>
    d908:	4a68      	ldr	r2, [pc, #416]	(daac <_ZN7android22QualcommCameraHardware17jpeg_set_locationEv+0x204>)
    d90a:	2002      	movs	r0, #2
    d90c:	4629      	mov	r1, r5
    d90e:	447a      	add	r2, pc
    d910:	f7f9 ef5e 	blx	77d0 <_ZN7android22QualcommCameraHardware18filterPictureSizesEv-0x51c>
    d914:	e0b3      	b.n	da7e <_ZN7android22QualcommCameraHardware17jpeg_set_locationEv+0x1d6>
    d916:	4604      	mov	r4, r0
    d918:	2000      	movs	r0, #0
    d91a:	f7fa e8b0 	blx	7a7c <_ZN7android22QualcommCameraHardware18filterPictureSizesEv-0x270>
    d91e:	f8df 8190 	ldr.w	r8, [pc, #400]	; dab0 <_ZN7android22QualcommCameraHardware17jpeg_set_locationEv+0x208>
    d922:	4638      	mov	r0, r7
    d924:	4e63      	ldr	r6, [pc, #396]	(dab4 <_ZN7android22QualcommCameraHardware17jpeg_set_locationEv+0x20c>)
    d926:	44f8      	add	r8, pc
    d928:	4641      	mov	r1, r8
    d92a:	447e      	add	r6, pc
    d92c:	f7f9 efe6 	blx	78fc <_ZN7android22QualcommCameraHardware18filterPictureSizesEv-0x3f0>
    d930:	4a61      	ldr	r2, [pc, #388]	(dab8 <_ZN7android22QualcommCameraHardware17jpeg_set_locationEv+0x210>)
    d932:	4631      	mov	r1, r6
    d934:	4643      	mov	r3, r8
    d936:	447a      	add	r2, pc
    d938:	4605      	mov	r5, r0
    d93a:	9000      	str	r0, [sp, #0]
    d93c:	2002      	movs	r0, #2
    d93e:	f7f9 ef48 	blx	77d0 <_ZN7android22QualcommCameraHardware18filterPictureSizesEv-0x51c>
    d942:	b1bd      	cbz	r5, d974 <_ZN7android22QualcommCameraHardware17jpeg_set_locationEv+0xcc>
    d944:	aa06      	add	r2, sp, #24
    d946:	495d      	ldr	r1, [pc, #372]	(dabc <_ZN7android22QualcommCameraHardware17jpeg_set_locationEv+0x214>)
    d948:	f04f 0000 	mov.w	r0, #0	; 0x0
    d94c:	4479      	add	r1, pc
    d94e:	f822 0d08 	strh.w	r0, [r2, #-8]!
    d952:	4628      	mov	r0, r5
    d954:	f7fa e88c 	blx	7a70 <_ZN7android22QualcommCameraHardware18filterPictureSizesEv-0x27c>
    d958:	2801      	cmp	r0, #1
    d95a:	bf08      	it	eq
    d95c:	f8bd 8010 	ldrheq.w	r8, [sp, #16]
    d960:	d010      	beq.n	d984 <_ZN7android22QualcommCameraHardware17jpeg_set_locationEv+0xdc>
    d962:	4a57      	ldr	r2, [pc, #348]	(dac0 <_ZN7android22QualcommCameraHardware17jpeg_set_locationEv+0x218>)
    d964:	2006      	movs	r0, #6
    d966:	4631      	mov	r1, r6
    d968:	462b      	mov	r3, r5
    d96a:	447a      	add	r2, pc
    d96c:	2400      	movs	r4, #0
    d96e:	f7f9 ef30 	blx	77d0 <_ZN7android22QualcommCameraHardware18filterPictureSizesEv-0x51c>
    d972:	e006      	b.n	d982 <_ZN7android22QualcommCameraHardware17jpeg_set_locationEv+0xda>
    d974:	4a53      	ldr	r2, [pc, #332]	(dac4 <_ZN7android22QualcommCameraHardware17jpeg_set_locationEv+0x21c>)
    d976:	2002      	movs	r0, #2
    d978:	4631      	mov	r1, r6
    d97a:	462c      	mov	r4, r5
    d97c:	447a      	add	r2, pc
    d97e:	f7f9 ef28 	blx	77d0 <_ZN7android22QualcommCameraHardware18filterPictureSizesEv-0x51c>
    d982:	46a0      	mov	r8, r4
    d984:	f8df 9140 	ldr.w	r9, [pc, #320]	; dac8 <_ZN7android22QualcommCameraHardware17jpeg_set_locationEv+0x220>
    d988:	4638      	mov	r0, r7
    d98a:	4e50      	ldr	r6, [pc, #320]	(dacc <_ZN7android22QualcommCameraHardware17jpeg_set_locationEv+0x224>)
    d98c:	44f9      	add	r9, pc
    d98e:	4649      	mov	r1, r9
    d990:	447e      	add	r6, pc
    d992:	f7f9 efb4 	blx	78fc <_ZN7android22QualcommCameraHardware18filterPictureSizesEv-0x3f0>
    d996:	4a4e      	ldr	r2, [pc, #312]	(dad0 <_ZN7android22QualcommCameraHardware17jpeg_set_locationEv+0x228>)
    d998:	4631      	mov	r1, r6
    d99a:	464b      	mov	r3, r9
    d99c:	447a      	add	r2, pc
    d99e:	4605      	mov	r5, r0
    d9a0:	9000      	str	r0, [sp, #0]
    d9a2:	2002      	movs	r0, #2
    d9a4:	f7f9 ef14 	blx	77d0 <_ZN7android22QualcommCameraHardware18filterPictureSizesEv-0x51c>
    d9a8:	b1cd      	cbz	r5, d9de <_ZN7android22QualcommCameraHardware17jpeg_set_locationEv+0x136>
    d9aa:	aa06      	add	r2, sp, #24
    d9ac:	2000      	movs	r0, #0
    d9ae:	2100      	movs	r1, #0
    d9b0:	e962 0102 	strd	r0, r1, [r2, #-8]!
    d9b4:	4628      	mov	r0, r5
    d9b6:	4947      	ldr	r1, [pc, #284]	(dad4 <_ZN7android22QualcommCameraHardware17jpeg_set_locationEv+0x22c>)
    d9b8:	4479      	add	r1, pc
    d9ba:	f7fa e85a 	blx	7a70 <_ZN7android22QualcommCameraHardware18filterPictureSizesEv-0x27c>
    d9be:	2801      	cmp	r0, #1
    d9c0:	d102      	bne.n	d9c8 <_ZN7android22QualcommCameraHardware17jpeg_set_locationEv+0x120>
    d9c2:	ed9d 8b04 	vldr	d8, [sp, #16]
    d9c6:	e013      	b.n	d9f0 <_ZN7android22QualcommCameraHardware17jpeg_set_locationEv+0x148>
    d9c8:	4a43      	ldr	r2, [pc, #268]	(dad8 <_ZN7android22QualcommCameraHardware17jpeg_set_locationEv+0x230>)
    d9ca:	2006      	movs	r0, #6
    d9cc:	4631      	mov	r1, r6
    d9ce:	462b      	mov	r3, r5
    d9d0:	447a      	add	r2, pc
    d9d2:	ed9f 8b2f 	vldr	d8, [pc, #188]	; da92 <_ZN7android22QualcommCameraHardware17jpeg_set_locationEv+0x1ea>
    d9d6:	f7f9 eefc 	blx	77d0 <_ZN7android22QualcommCameraHardware18filterPictureSizesEv-0x51c>
    d9da:	2400      	movs	r4, #0
    d9dc:	e008      	b.n	d9f0 <_ZN7android22QualcommCameraHardware17jpeg_set_locationEv+0x148>
    d9de:	4a3f      	ldr	r2, [pc, #252]	(dadc <_ZN7android22QualcommCameraHardware17jpeg_set_locationEv+0x234>)
    d9e0:	2002      	movs	r0, #2
    d9e2:	4631      	mov	r1, r6
    d9e4:	462c      	mov	r4, r5
    d9e6:	447a      	add	r2, pc
    d9e8:	ed9f 8b29 	vldr	d8, [pc, #164]	; da90 <_ZN7android22QualcommCameraHardware17jpeg_set_locationEv+0x1e8>
    d9ec:	f7f9 eef0 	blx	77d0 <_ZN7android22QualcommCameraHardware18filterPictureSizesEv-0x51c>
    d9f0:	f8df 90ec 	ldr.w	r9, [pc, #236]	; dae0 <_ZN7android22QualcommCameraHardware17jpeg_set_locationEv+0x238>
    d9f4:	4638      	mov	r0, r7
    d9f6:	4d3b      	ldr	r5, [pc, #236]	(dae4 <_ZN7android22QualcommCameraHardware17jpeg_set_locationEv+0x23c>)
    d9f8:	44f9      	add	r9, pc
    d9fa:	4649      	mov	r1, r9
    d9fc:	447d      	add	r5, pc
    d9fe:	f7f9 ef7e 	blx	78fc <_ZN7android22QualcommCameraHardware18filterPictureSizesEv-0x3f0>
    da02:	4a39      	ldr	r2, [pc, #228]	(dae8 <_ZN7android22QualcommCameraHardware17jpeg_set_locationEv+0x240>)
    da04:	4629      	mov	r1, r5
    da06:	464b      	mov	r3, r9
    da08:	447a      	add	r2, pc
    da0a:	4606      	mov	r6, r0
    da0c:	9000      	str	r0, [sp, #0]
    da0e:	2002      	movs	r0, #2
    da10:	f7f9 eede 	blx	77d0 <_ZN7android22QualcommCameraHardware18filterPictureSizesEv-0x51c>
    da14:	b1be      	cbz	r6, da46 <_ZN7android22QualcommCameraHardware17jpeg_set_locationEv+0x19e>
    da16:	aa06      	add	r2, sp, #24
    da18:	2000      	movs	r0, #0
    da1a:	2100      	movs	r1, #0
    da1c:	e962 0102 	strd	r0, r1, [r2, #-8]!
    da20:	4630      	mov	r0, r6
    da22:	4932      	ldr	r1, [pc, #200]	(daec <_ZN7android22QualcommCameraHardware17jpeg_set_locationEv+0x244>)
    da24:	4479      	add	r1, pc
    da26:	f7fa e824 	blx	7a70 <_ZN7android22QualcommCameraHardware18filterPictureSizesEv-0x27c>
    da2a:	2801      	cmp	r0, #1
    da2c:	d103      	bne.n	da36 <_ZN7android22QualcommCameraHardware17jpeg_set_locationEv+0x18e>
    da2e:	eddd 0b04 	vldr	d16, [sp, #16]
    da32:	b97c      	cbnz	r4, da54 <_ZN7android22QualcommCameraHardware17jpeg_set_locationEv+0x1ac>
    da34:	e01b      	b.n	da6e <_ZN7android22QualcommCameraHardware17jpeg_set_locationEv+0x1c6>
    da36:	4a2e      	ldr	r2, [pc, #184]	(daf0 <_ZN7android22QualcommCameraHardware17jpeg_set_locationEv+0x248>)
    da38:	2006      	movs	r0, #6
    da3a:	4629      	mov	r1, r5
    da3c:	4633      	mov	r3, r6
    da3e:	447a      	add	r2, pc
    da40:	f7f9 eec6 	blx	77d0 <_ZN7android22QualcommCameraHardware18filterPictureSizesEv-0x51c>
    da44:	e013      	b.n	da6e <_ZN7android22QualcommCameraHardware17jpeg_set_locationEv+0x1c6>
    da46:	4a2b      	ldr	r2, [pc, #172]	(daf4 <_ZN7android22QualcommCameraHardware17jpeg_set_locationEv+0x24c>)
    da48:	2002      	movs	r0, #2
    da4a:	4629      	mov	r1, r5
    da4c:	447a      	add	r2, pc
    da4e:	f7f9 eec0 	blx	77d0 <_ZN7android22QualcommCameraHardware18filterPictureSizesEv-0x51c>
    da52:	e00c      	b.n	da6e <_ZN7android22QualcommCameraHardware17jpeg_set_locationEv+0x1c6>
    da54:	4a28      	ldr	r2, [pc, #160]	(daf8 <_ZN7android22QualcommCameraHardware17jpeg_set_locationEv+0x250>)
    da56:	fa0f f388 	sxth.w	r3, r8
    da5a:	2003      	movs	r0, #3
    da5c:	4629      	mov	r1, r5
    da5e:	447a      	add	r2, pc
    da60:	ed8d 8b00 	vstr	d8, [sp]
    da64:	edcd 0b02 	vstr	d16, [sp, #8]
    da68:	f7f9 eeb2 	blx	77d0 <_ZN7android22QualcommCameraHardware18filterPictureSizesEv-0x51c>
    da6c:	e009      	b.n	da82 <_ZN7android22QualcommCameraHardware17jpeg_set_locationEv+0x1da>
    da6e:	4923      	ldr	r1, [pc, #140]	(dafc <_ZN7android22QualcommCameraHardware17jpeg_set_locationEv+0x254>)
    da70:	2002      	movs	r0, #2
    da72:	4a23      	ldr	r2, [pc, #140]	(db00 <_ZN7android22QualcommCameraHardware17jpeg_set_locationEv+0x258>)
    da74:	4479      	add	r1, pc
    da76:	447a      	add	r2, pc
    da78:	f7f9 eeaa 	blx	77d0 <_ZN7android22QualcommCameraHardware18filterPictureSizesEv-0x51c>
    da7c:	e001      	b.n	da82 <_ZN7android22QualcommCameraHardware17jpeg_set_locationEv+0x1da>
    da7e:	2400      	movs	r4, #0
    da80:	e74a      	b.n	d918 <_ZN7android22QualcommCameraHardware17jpeg_set_locationEv+0x70>
    da82:	b007      	add	sp, #28
    da84:	ecbd 8b02 	vldmia	sp!, {d8}
    da88:	e8bd 83f0 	ldmia.w	sp!, {r4, r5, r6, r7, r8, r9, pc}
    da8c:	f3af 8000 	nop.w
	...
    da98:	5018      	str	r0, [r3, r0]
    da9a:	0000      	lsls	r0, r0, #0
    da9c:	2ac9      	cmp	r2, #201
    da9e:	0000      	lsls	r0, r0, #0
    daa0:	5014      	str	r4, [r2, r0]
    daa2:	0000      	lsls	r0, r0, #0
    daa4:	500d      	str	r5, [r1, r0]
    daa6:	0000      	lsls	r0, r0, #0
    daa8:	4ff7      	ldr	r7, [pc, #988]	(de88 <_ZN7android22QualcommCameraHardware11startCameraEv+0x228>)
    daaa:	0000      	lsls	r0, r0, #0
    daac:	501a      	str	r2, [r3, r0]
    daae:	0000      	lsls	r0, r0, #0
    dab0:	5042      	str	r2, [r0, r1]
    dab2:	0000      	lsls	r0, r0, #0
    dab4:	2a65      	cmp	r2, #101
    dab6:	0000      	lsls	r0, r0, #0
    dab8:	4fa8      	ldr	r7, [pc, #672]	(dd5c <_ZN7android22QualcommCameraHardware11startCameraEv+0xfc>)
    daba:	0000      	lsls	r0, r0, #0
    dabc:	5029      	str	r1, [r5, r0]
    dabe:	0000      	lsls	r0, r0, #0
    dac0:	500f      	str	r7, [r1, r0]
    dac2:	0000      	lsls	r0, r0, #0
    dac4:	502e      	str	r6, [r5, r0]
    dac6:	0000      	lsls	r0, r0, #0
    dac8:	505d      	str	r5, [r3, r1]
    daca:	0000      	lsls	r0, r0, #0
    dacc:	29ff      	cmp	r1, #255
    dace:	0000      	lsls	r0, r0, #0
    dad0:	4f42      	ldr	r7, [pc, #264]	(dbdc <_ZNK7android22QualcommCameraHardware4dumpEiRKNS_6VectorINS_8String16EEE+0xd4>)
    dad2:	0000      	lsls	r0, r0, #0
    dad4:	503e      	str	r6, [r7, r0]
    dad6:	0000      	lsls	r0, r0, #0
    dad8:	502a      	str	r2, [r5, r0]
    dada:	0000      	lsls	r0, r0, #0
    dadc:	504c      	str	r4, [r1, r1]
    dade:	0000      	lsls	r0, r0, #0
    dae0:	5079      	str	r1, [r7, r1]
    dae2:	0000      	lsls	r0, r0, #0
    dae4:	2993      	cmp	r1, #147
    dae6:	0000      	lsls	r0, r0, #0
    dae8:	4ed6      	ldr	r6, [pc, #856]	(de44 <_ZN7android22QualcommCameraHardware11startCameraEv+0x1e4>)
    daea:	0000      	lsls	r0, r0, #0
    daec:	4fd2      	ldr	r7, [pc, #840]	(de38 <_ZN7android22QualcommCameraHardware11startCameraEv+0x1d8>)
    daee:	0000      	lsls	r0, r0, #0
    daf0:	5041      	str	r1, [r0, r1]
    daf2:	0000      	lsls	r0, r0, #0
    daf4:	506c      	str	r4, [r5, r1]
    daf6:	0000      	lsls	r0, r0, #0
    daf8:	509a      	str	r2, [r3, r2]
    dafa:	0000      	lsls	r0, r0, #0
    dafc:	291b      	cmp	r1, #27
    dafe:	0000      	lsls	r0, r0, #0
    db00:	50b0      	str	r0, [r6, r2]
    db02:	0000      	lsls	r0, r0, #0
    db04:	f3af 8000 	nop.w

0000db08 <_ZNK7android22QualcommCameraHardware4dumpEiRKNS_6VectorINS_8String16EEE>:
    db08:	e92d 4ff0 	stmdb	sp!, {r4, r5, r6, r7, r8, r9, sl, fp, lr}
    db0c:	f8df b134 	ldr.w	fp, [pc, #308]	; dc44 <_ZNK7android22QualcommCameraHardware4dumpEiRKNS_6VectorINS_8String16EEE+0x13c>
    db10:	4f4d      	ldr	r7, [pc, #308]	(dc48 <_ZNK7android22QualcommCameraHardware4dumpEiRKNS_6VectorINS_8String16EEE+0x140>)
    db12:	b0cb      	sub	sp, #300
    db14:	44fb      	add	fp, pc
    db16:	4604      	mov	r4, r0
    db18:	4688      	mov	r8, r1
    db1a:	4691      	mov	r9, r2
    db1c:	f85b 6007 	ldr.w	r6, [fp, r7]
    db20:	f10d 0a1c 	add.w	sl, sp, #28	; 0x1c
    db24:	af06      	add	r7, sp, #24
    db26:	6835      	ldr	r5, [r6, #0]
    db28:	ae08      	add	r6, sp, #32
    db2a:	4630      	mov	r0, r6
    db2c:	9549      	str	r5, [sp, #292]
    db2e:	f7f9 ee26 	blx	777c <_ZN7android22QualcommCameraHardware18filterPictureSizesEv-0x570>
    db32:	4946      	ldr	r1, [pc, #280]	(dc4c <_ZNK7android22QualcommCameraHardware4dumpEiRKNS_6VectorINS_8String16EEE+0x144>)
    db34:	4630      	mov	r0, r6
    db36:	ad09      	add	r5, sp, #36
    db38:	4479      	add	r1, pc
    db3a:	f7f9 ee6e 	blx	7818 <_ZN7android22QualcommCameraHardware18filterPictureSizesEv-0x4d4>
    db3e:	4a44      	ldr	r2, [pc, #272]	(dc50 <_ZNK7android22QualcommCameraHardware4dumpEiRKNS_6VectorINS_8String16EEE+0x148>)
    db40:	f8d4 31e8 	ldr.w	r3, [r4, #488]
    db44:	21ff      	movs	r1, #255
    db46:	447a      	add	r2, pc
    db48:	4628      	mov	r0, r5
    db4a:	f7f9 ee6c 	blx	7824 <_ZN7android22QualcommCameraHardware18filterPictureSizesEv-0x4c8>
    db4e:	4629      	mov	r1, r5
    db50:	4630      	mov	r0, r6
    db52:	f7f9 ee62 	blx	7818 <_ZN7android22QualcommCameraHardware18filterPictureSizesEv-0x4d4>
    db56:	f104 0208 	add.w	r2, r4, #8	; 0x8
    db5a:	4610      	mov	r0, r2
    db5c:	9205      	str	r2, [sp, #20]
    db5e:	4651      	mov	r1, sl
    db60:	463a      	mov	r2, r7
    db62:	f7f9 eefc 	blx	795c <_ZN7android22QualcommCameraHardware18filterPictureSizesEv-0x390>
    db66:	6838      	ldr	r0, [r7, #0]
    db68:	4a3a      	ldr	r2, [pc, #232]	(dc54 <_ZNK7android22QualcommCameraHardware4dumpEiRKNS_6VectorINS_8String16EEE+0x14c>)
    db6a:	21ff      	movs	r1, #255
    db6c:	447a      	add	r2, pc
    db6e:	9000      	str	r0, [sp, #0]
    db70:	4628      	mov	r0, r5
    db72:	f8da 3000 	ldr.w	r3, [sl]
    db76:	f7f9 ee56 	blx	7824 <_ZN7android22QualcommCameraHardware18filterPictureSizesEv-0x4c8>
    db7a:	4629      	mov	r1, r5
    db7c:	4630      	mov	r0, r6
    db7e:	f7f9 ee4c 	blx	7818 <_ZN7android22QualcommCameraHardware18filterPictureSizesEv-0x4d4>
    db82:	9805      	ldr	r0, [sp, #20]
    db84:	4651      	mov	r1, sl
    db86:	463a      	mov	r2, r7
    db88:	f7f9 eed0 	blx	792c <_ZN7android22QualcommCameraHardware18filterPictureSizesEv-0x3c0>
    db8c:	683b      	ldr	r3, [r7, #0]
    db8e:	4a32      	ldr	r2, [pc, #200]	(dc58 <_ZNK7android22QualcommCameraHardware4dumpEiRKNS_6VectorINS_8String16EEE+0x150>)
    db90:	21ff      	movs	r1, #255
    db92:	4628      	mov	r0, r5
    db94:	447a      	add	r2, pc
    db96:	9300      	str	r3, [sp, #0]
    db98:	f8da 3000 	ldr.w	r3, [sl]
    db9c:	f7f9 ee42 	blx	7824 <_ZN7android22QualcommCameraHardware18filterPictureSizesEv-0x4c8>
    dba0:	4629      	mov	r1, r5
    dba2:	4630      	mov	r0, r6
    dba4:	f7f9 ee38 	blx	7818 <_ZN7android22QualcommCameraHardware18filterPictureSizesEv-0x4d4>
    dba8:	f8d4 10d0 	ldr.w	r1, [r4, #208]
    dbac:	f8d4 00c4 	ldr.w	r0, [r4, #196]
    dbb0:	f8d4 30d4 	ldr.w	r3, [r4, #212]
    dbb4:	4a29      	ldr	r2, [pc, #164]	(dc5c <_ZNK7android22QualcommCameraHardware4dumpEiRKNS_6VectorINS_8String16EEE+0x154>)
    dbb6:	9100      	str	r1, [sp, #0]
    dbb8:	21ff      	movs	r1, #255
    dbba:	447a      	add	r2, pc
    dbbc:	9001      	str	r0, [sp, #4]
    dbbe:	9302      	str	r3, [sp, #8]
    dbc0:	4628      	mov	r0, r5
    dbc2:	f8d4 30c8 	ldr.w	r3, [r4, #200]
    dbc6:	f7f9 ee2e 	blx	7824 <_ZN7android22QualcommCameraHardware18filterPictureSizesEv-0x4c8>
    dbca:	4629      	mov	r1, r5
    dbcc:	4630      	mov	r0, r6
    dbce:	f7f9 ee24 	blx	7818 <_ZN7android22QualcommCameraHardware18filterPictureSizesEv-0x4d4>
    dbd2:	6831      	ldr	r1, [r6, #0]
    dbd4:	4640      	mov	r0, r8
    dbd6:	f851 2c0c 	ldr.w	r2, [r1, #-12]
    dbda:	3a01      	subs	r2, #1
    dbdc:	f7f9 ee2e 	blx	783c <_ZN7android22QualcommCameraHardware18filterPictureSizesEv-0x4b0>
    dbe0:	6b20      	ldr	r0, [r4, #48]
    dbe2:	b120      	cbz	r0, dbee <_ZNK7android22QualcommCameraHardware4dumpEiRKNS_6VectorINS_8String16EEE+0xe6>
    dbe4:	6801      	ldr	r1, [r0, #0]
    dbe6:	464a      	mov	r2, r9
    dbe8:	698b      	ldr	r3, [r1, #24]
    dbea:	4641      	mov	r1, r8
    dbec:	4798      	blx	r3
    dbee:	6be0      	ldr	r0, [r4, #60]
    dbf0:	b120      	cbz	r0, dbfc <_ZNK7android22QualcommCameraHardware4dumpEiRKNS_6VectorINS_8String16EEE+0xf4>
    dbf2:	6802      	ldr	r2, [r0, #0]
    dbf4:	4641      	mov	r1, r8
    dbf6:	6993      	ldr	r3, [r2, #24]
    dbf8:	464a      	mov	r2, r9
    dbfa:	4798      	blx	r3
    dbfc:	6c60      	ldr	r0, [r4, #68]
    dbfe:	b120      	cbz	r0, dc0a <_ZNK7android22QualcommCameraHardware4dumpEiRKNS_6VectorINS_8String16EEE+0x102>
    dc00:	6801      	ldr	r1, [r0, #0]
    dc02:	464a      	mov	r2, r9
    dc04:	698b      	ldr	r3, [r1, #24]
    dc06:	4641      	mov	r1, r8
    dc08:	4798      	blx	r3
    dc0a:	6ce0      	ldr	r0, [r4, #76]
    dc0c:	b120      	cbz	r0, dc18 <_ZNK7android22QualcommCameraHardware4dumpEiRKNS_6VectorINS_8String16EEE+0x110>
    dc0e:	6802      	ldr	r2, [r0, #0]
    dc10:	4641      	mov	r1, r8
    dc12:	6993      	ldr	r3, [r2, #24]
    dc14:	464a      	mov	r2, r9
    dc16:	4798      	blx	r3
    dc18:	4641      	mov	r1, r8
    dc1a:	464a      	mov	r2, r9
    dc1c:	9805      	ldr	r0, [sp, #20]
    dc1e:	f7f9 ef34 	blx	7a88 <_ZN7android22QualcommCameraHardware18filterPictureSizesEv-0x264>
    dc22:	a808      	add	r0, sp, #32
    dc24:	f7f9 edb0 	blx	7788 <_ZN7android22QualcommCameraHardware18filterPictureSizesEv-0x564>
    dc28:	f8df c01c 	ldr.w	ip, [pc, #28]	; dc48 <_ZNK7android22QualcommCameraHardware4dumpEiRKNS_6VectorINS_8String16EEE+0x140>
    dc2c:	9949      	ldr	r1, [sp, #292]
    dc2e:	2000      	movs	r0, #0
    dc30:	f85b 200c 	ldr.w	r2, [fp, ip]
    dc34:	6813      	ldr	r3, [r2, #0]
    dc36:	4299      	cmp	r1, r3
    dc38:	d001      	beq.n	dc3e <_ZNK7android22QualcommCameraHardware4dumpEiRKNS_6VectorINS_8String16EEE+0x136>
    dc3a:	f7f9 ee06 	blx	7848 <_ZN7android22QualcommCameraHardware18filterPictureSizesEv-0x4a4>
    dc3e:	b04b      	add	sp, #300
    dc40:	e8bd 8ff0 	ldmia.w	sp!, {r4, r5, r6, r7, r8, r9, sl, fp, pc}
    dc44:	6be0      	ldr	r0, [r4, #60]
    dc46:	0000      	lsls	r0, r0, #0
    dc48:	fe80 ffff 	mcr2	15, 4, pc, cr0, cr15, {7}
    dc4c:	5009      	str	r1, [r1, r0]
    dc4e:	0000      	lsls	r0, r0, #0
    dc50:	5018      	str	r0, [r3, r0]
    dc52:	0000      	lsls	r0, r0, #0
    dc54:	5004      	str	r4, [r0, r0]
    dc56:	0000      	lsls	r0, r0, #0
    dc58:	4ffd      	ldr	r7, [pc, #1012]	(e050 <_ZN7android22QualcommCameraHardware11startCameraEv+0x3f0>)
    dc5a:	0000      	lsls	r0, r0, #0
    dc5c:	4ff4      	ldr	r7, [pc, #976]	(e030 <_ZN7android22QualcommCameraHardware11startCameraEv+0x3d0>)
	...

0000dc60 <_ZN7android22QualcommCameraHardware11startCameraEv>:
    dc60:	e92d 41f3 	stmdb	sp!, {r0, r1, r4, r5, r6, r7, r8, lr}
    dc64:	4ec5      	ldr	r6, [pc, #788]	(df7c <_ZN7android22QualcommCameraHardware11startCameraEv+0x31c>)
    dc66:	4fc6      	ldr	r7, [pc, #792]	(df80 <_ZN7android22QualcommCameraHardware11startCameraEv+0x320>)
    dc68:	4604      	mov	r4, r0
    dc6a:	4ac6      	ldr	r2, [pc, #792]	(df84 <_ZN7android22QualcommCameraHardware11startCameraEv+0x324>)
    dc6c:	447e      	add	r6, pc
    dc6e:	447f      	add	r7, pc
    dc70:	2002      	movs	r0, #2
    dc72:	447a      	add	r2, pc
    dc74:	4631      	mov	r1, r6
    dc76:	f7f9 edac 	blx	77d0 <_ZN7android22QualcommCameraHardware18filterPictureSizesEv-0x51c>
    dc7a:	683b      	ldr	r3, [r7, #0]
    dc7c:	4dc2      	ldr	r5, [pc, #776]	(df88 <_ZN7android22QualcommCameraHardware11startCameraEv+0x328>)
    dc7e:	2b04      	cmp	r3, #4
    dc80:	447d      	add	r5, pc
    dc82:	d102      	bne.n	dc8a <_ZN7android22QualcommCameraHardware11startCameraEv+0x2a>
    dc84:	4ac1      	ldr	r2, [pc, #772]	(df8c <_ZN7android22QualcommCameraHardware11startCameraEv+0x32c>)
    dc86:	447a      	add	r2, pc
    dc88:	e0fa      	b.n	de80 <_ZN7android22QualcommCameraHardware11startCameraEv+0x220>
    dc8a:	48c1      	ldr	r0, [pc, #772]	(df90 <_ZN7android22QualcommCameraHardware11startCameraEv+0x330>)
    dc8c:	2100      	movs	r1, #0
    dc8e:	4478      	add	r0, pc
    dc90:	f7f9 eed6 	blx	7a40 <_ZN7android22QualcommCameraHardware18filterPictureSizesEv-0x2ac>
    dc94:	4abf      	ldr	r2, [pc, #764]	(df94 <_ZN7android22QualcommCameraHardware11startCameraEv+0x334>)
    dc96:	4631      	mov	r1, r6
    dc98:	447a      	add	r2, pc
    dc9a:	4603      	mov	r3, r0
    dc9c:	f8c4 00d8 	str.w	r0, [r4, #216]
    dca0:	2002      	movs	r0, #2
    dca2:	f7f9 ed96 	blx	77d0 <_ZN7android22QualcommCameraHardware18filterPictureSizesEv-0x51c>
    dca6:	f8d4 80d8 	ldr.w	r8, [r4, #216]
    dcaa:	f1b8 0f00 	cmp.w	r8, #0	; 0x0
    dcae:	d105      	bne.n	dcbc <_ZN7android22QualcommCameraHardware11startCameraEv+0x5c>
    dcb0:	f7f9 eecc 	blx	7a4c <_ZN7android22QualcommCameraHardware18filterPictureSizesEv-0x2a0>
    dcb4:	4ab8      	ldr	r2, [pc, #736]	(df98 <_ZN7android22QualcommCameraHardware11startCameraEv+0x338>)
    dcb6:	447a      	add	r2, pc
    dcb8:	4603      	mov	r3, r0
    dcba:	e113      	b.n	dee4 <_ZN7android22QualcommCameraHardware11startCameraEv+0x284>
    dcbc:	49b7      	ldr	r1, [pc, #732]	(df9c <_ZN7android22QualcommCameraHardware11startCameraEv+0x33c>)
    dcbe:	4640      	mov	r0, r8
    dcc0:	f8df 82dc 	ldr.w	r8, [pc, #732]	; dfa0 <_ZN7android22QualcommCameraHardware11startCameraEv+0x340>
    dcc4:	4479      	add	r1, pc
    dcc6:	f7f9 eee6 	blx	7a94 <_ZN7android22QualcommCameraHardware18filterPictureSizesEv-0x258>
    dcca:	49b6      	ldr	r1, [pc, #728]	(dfa4 <_ZN7android22QualcommCameraHardware11startCameraEv+0x344>)
    dccc:	586b      	ldr	r3, [r5, r1]
    dcce:	49b6      	ldr	r1, [pc, #728]	(dfa8 <_ZN7android22QualcommCameraHardware11startCameraEv+0x348>)
    dcd0:	4479      	add	r1, pc
    dcd2:	6018      	str	r0, [r3, #0]
    dcd4:	f8d4 00d8 	ldr.w	r0, [r4, #216]
    dcd8:	f7f9 eedc 	blx	7a94 <_ZN7android22QualcommCameraHardware18filterPictureSizesEv-0x258>
    dcdc:	f8df c2cc 	ldr.w	ip, [pc, #716]	; dfac <_ZN7android22QualcommCameraHardware11startCameraEv+0x34c>
    dce0:	49b3      	ldr	r1, [pc, #716]	(dfb0 <_ZN7android22QualcommCameraHardware11startCameraEv+0x350>)
    dce2:	f855 200c 	ldr.w	r2, [r5, ip]
    dce6:	4479      	add	r1, pc
    dce8:	6010      	str	r0, [r2, #0]
    dcea:	f8d4 00d8 	ldr.w	r0, [r4, #216]
    dcee:	f7f9 eed2 	blx	7a94 <_ZN7android22QualcommCameraHardware18filterPictureSizesEv-0x258>
    dcf2:	f855 1008 	ldr.w	r1, [r5, r8]
    dcf6:	f8df 82bc 	ldr.w	r8, [pc, #700]	; dfb4 <_ZN7android22QualcommCameraHardware11startCameraEv+0x354>
    dcfa:	6008      	str	r0, [r1, #0]
    dcfc:	49ae      	ldr	r1, [pc, #696]	(dfb8 <_ZN7android22QualcommCameraHardware11startCameraEv+0x358>)
    dcfe:	f8d4 00d8 	ldr.w	r0, [r4, #216]
    dd02:	4479      	add	r1, pc
    dd04:	f7f9 eec6 	blx	7a94 <_ZN7android22QualcommCameraHardware18filterPictureSizesEv-0x258>
    dd08:	4bac      	ldr	r3, [pc, #688]	(dfbc <_ZN7android22QualcommCameraHardware11startCameraEv+0x35c>)
    dd0a:	49ad      	ldr	r1, [pc, #692]	(dfc0 <_ZN7android22QualcommCameraHardware11startCameraEv+0x360>)
    dd0c:	58ea      	ldr	r2, [r5, r3]
    dd0e:	4479      	add	r1, pc
    dd10:	6010      	str	r0, [r2, #0]
    dd12:	f8d4 00d8 	ldr.w	r0, [r4, #216]
    dd16:	f7f9 eebe 	blx	7a94 <_ZN7android22QualcommCameraHardware18filterPictureSizesEv-0x258>
    dd1a:	f8df c2a8 	ldr.w	ip, [pc, #680]	; dfc4 <_ZN7android22QualcommCameraHardware11startCameraEv+0x364>
    dd1e:	f855 100c 	ldr.w	r1, [r5, ip]
    dd22:	6008      	str	r0, [r1, #0]
    dd24:	49a8      	ldr	r1, [pc, #672]	(dfc8 <_ZN7android22QualcommCameraHardware11startCameraEv+0x368>)
    dd26:	f8d4 00d8 	ldr.w	r0, [r4, #216]
    dd2a:	4479      	add	r1, pc
    dd2c:	f7f9 eeb2 	blx	7a94 <_ZN7android22QualcommCameraHardware18filterPictureSizesEv-0x258>
    dd30:	f855 3008 	ldr.w	r3, [r5, r8]
    dd34:	4aa5      	ldr	r2, [pc, #660]	(dfcc <_ZN7android22QualcommCameraHardware11startCameraEv+0x36c>)
    dd36:	49a6      	ldr	r1, [pc, #664]	(dfd0 <_ZN7android22QualcommCameraHardware11startCameraEv+0x370>)
    dd38:	447a      	add	r2, pc
    dd3a:	f8df 8298 	ldr.w	r8, [pc, #664]	; dfd4 <_ZN7android22QualcommCameraHardware11startCameraEv+0x374>
    dd3e:	4479      	add	r1, pc
    dd40:	6018      	str	r0, [r3, #0]
    dd42:	6002      	str	r2, [r0, #0]
    dd44:	f8d4 00d8 	ldr.w	r0, [r4, #216]
    dd48:	f7f9 eea4 	blx	7a94 <_ZN7android22QualcommCameraHardware18filterPictureSizesEv-0x258>
    dd4c:	f8df c288 	ldr.w	ip, [pc, #648]	; dfd8 <_ZN7android22QualcommCameraHardware11startCameraEv+0x378>
    dd50:	4ba2      	ldr	r3, [pc, #648]	(dfdc <_ZN7android22QualcommCameraHardware11startCameraEv+0x37c>)
    dd52:	f855 100c 	ldr.w	r1, [r5, ip]
    dd56:	447b      	add	r3, pc
    dd58:	6008      	str	r0, [r1, #0]
    dd5a:	49a1      	ldr	r1, [pc, #644]	(dfe0 <_ZN7android22QualcommCameraHardware11startCameraEv+0x380>)
    dd5c:	6003      	str	r3, [r0, #0]
    dd5e:	4479      	add	r1, pc
    dd60:	f8d4 00d8 	ldr.w	r0, [r4, #216]
    dd64:	f7f9 ee96 	blx	7a94 <_ZN7android22QualcommCameraHardware18filterPictureSizesEv-0x258>
    dd68:	f855 2008 	ldr.w	r2, [r5, r8]
    dd6c:	499d      	ldr	r1, [pc, #628]	(dfe4 <_ZN7android22QualcommCameraHardware11startCameraEv+0x384>)
    dd6e:	f8df 8278 	ldr.w	r8, [pc, #632]	; dfe8 <_ZN7android22QualcommCameraHardware11startCameraEv+0x388>
    dd72:	4479      	add	r1, pc
    dd74:	6010      	str	r0, [r2, #0]
    dd76:	6001      	str	r1, [r0, #0]
    dd78:	499c      	ldr	r1, [pc, #624]	(dfec <_ZN7android22QualcommCameraHardware11startCameraEv+0x38c>)
    dd7a:	f8d4 00d8 	ldr.w	r0, [r4, #216]
    dd7e:	4479      	add	r1, pc
    dd80:	f7f9 ee88 	blx	7a94 <_ZN7android22QualcommCameraHardware18filterPictureSizesEv-0x258>
    dd84:	f8df c268 	ldr.w	ip, [pc, #616]	; dff0 <_ZN7android22QualcommCameraHardware11startCameraEv+0x390>
    dd88:	4a9a      	ldr	r2, [pc, #616]	(dff4 <_ZN7android22QualcommCameraHardware11startCameraEv+0x394>)
    dd8a:	499b      	ldr	r1, [pc, #620]	(dff8 <_ZN7android22QualcommCameraHardware11startCameraEv+0x398>)
    dd8c:	f855 300c 	ldr.w	r3, [r5, ip]
    dd90:	447a      	add	r2, pc
    dd92:	4479      	add	r1, pc
    dd94:	6018      	str	r0, [r3, #0]
    dd96:	6002      	str	r2, [r0, #0]
    dd98:	f8d4 00d8 	ldr.w	r0, [r4, #216]
    dd9c:	f7f9 ee7a 	blx	7a94 <_ZN7android22QualcommCameraHardware18filterPictureSizesEv-0x258>
    dda0:	4996      	ldr	r1, [pc, #600]	(dffc <_ZN7android22QualcommCameraHardware11startCameraEv+0x39c>)
    dda2:	586b      	ldr	r3, [r5, r1]
    dda4:	4996      	ldr	r1, [pc, #600]	(e000 <_ZN7android22QualcommCameraHardware11startCameraEv+0x3a0>)
    dda6:	4479      	add	r1, pc
    dda8:	6018      	str	r0, [r3, #0]
    ddaa:	f8d4 00d8 	ldr.w	r0, [r4, #216]
    ddae:	f7f9 ee72 	blx	7a94 <_ZN7android22QualcommCameraHardware18filterPictureSizesEv-0x258>
    ddb2:	f855 2008 	ldr.w	r2, [r5, r8]
    ddb6:	4993      	ldr	r1, [pc, #588]	(e004 <_ZN7android22QualcommCameraHardware11startCameraEv+0x3a4>)
    ddb8:	f8df 824c 	ldr.w	r8, [pc, #588]	; e008 <_ZN7android22QualcommCameraHardware11startCameraEv+0x3a8>
    ddbc:	4479      	add	r1, pc
    ddbe:	6010      	str	r0, [r2, #0]
    ddc0:	f8d4 00d8 	ldr.w	r0, [r4, #216]
    ddc4:	f7f9 ee66 	blx	7a94 <_ZN7android22QualcommCameraHardware18filterPictureSizesEv-0x258>
    ddc8:	f8df c240 	ldr.w	ip, [pc, #576]	; e00c <_ZN7android22QualcommCameraHardware11startCameraEv+0x3ac>
    ddcc:	4b90      	ldr	r3, [pc, #576]	(e010 <_ZN7android22QualcommCameraHardware11startCameraEv+0x3b0>)
    ddce:	f855 100c 	ldr.w	r1, [r5, ip]
    ddd2:	447b      	add	r3, pc
    ddd4:	6008      	str	r0, [r1, #0]
    ddd6:	498f      	ldr	r1, [pc, #572]	(e014 <_ZN7android22QualcommCameraHardware11startCameraEv+0x3b4>)
    ddd8:	6003      	str	r3, [r0, #0]
    ddda:	4479      	add	r1, pc
    dddc:	f8d4 00d8 	ldr.w	r0, [r4, #216]
    dde0:	f7f9 ee58 	blx	7a94 <_ZN7android22QualcommCameraHardware18filterPictureSizesEv-0x258>
    dde4:	f855 2008 	ldr.w	r2, [r5, r8]
    dde8:	498b      	ldr	r1, [pc, #556]	(e018 <_ZN7android22QualcommCameraHardware11startCameraEv+0x3b8>)
    ddea:	f8df 8230 	ldr.w	r8, [pc, #560]	; e01c <_ZN7android22QualcommCameraHardware11startCameraEv+0x3bc>
    ddee:	4479      	add	r1, pc
    ddf0:	6010      	str	r0, [r2, #0]
    ddf2:	6001      	str	r1, [r0, #0]
    ddf4:	498a      	ldr	r1, [pc, #552]	(e020 <_ZN7android22QualcommCameraHardware11startCameraEv+0x3c0>)
    ddf6:	f8d4 00d8 	ldr.w	r0, [r4, #216]
    ddfa:	4479      	add	r1, pc
    ddfc:	f7f9 ee4a 	blx	7a94 <_ZN7android22QualcommCameraHardware18filterPictureSizesEv-0x258>
    de00:	4b88      	ldr	r3, [pc, #544]	(e024 <_ZN7android22QualcommCameraHardware11startCameraEv+0x3c4>)
    de02:	4989      	ldr	r1, [pc, #548]	(e028 <_ZN7android22QualcommCameraHardware11startCameraEv+0x3c8>)
    de04:	58ea      	ldr	r2, [r5, r3]
    de06:	4479      	add	r1, pc
    de08:	6010      	str	r0, [r2, #0]
    de0a:	f8d4 00d8 	ldr.w	r0, [r4, #216]
    de0e:	f7f9 ee42 	blx	7a94 <_ZN7android22QualcommCameraHardware18filterPictureSizesEv-0x258>
    de12:	f8df c218 	ldr.w	ip, [pc, #536]	; e02c <_ZN7android22QualcommCameraHardware11startCameraEv+0x3cc>
    de16:	f855 100c 	ldr.w	r1, [r5, ip]
    de1a:	6008      	str	r0, [r1, #0]
    de1c:	4984      	ldr	r1, [pc, #528]	(e030 <_ZN7android22QualcommCameraHardware11startCameraEv+0x3d0>)
    de1e:	f8d4 00d8 	ldr.w	r0, [r4, #216]
    de22:	4479      	add	r1, pc
    de24:	f7f9 ee36 	blx	7a94 <_ZN7android22QualcommCameraHardware18filterPictureSizesEv-0x258>
    de28:	f855 3008 	ldr.w	r3, [r5, r8]
    de2c:	4981      	ldr	r1, [pc, #516]	(e034 <_ZN7android22QualcommCameraHardware11startCameraEv+0x3d4>)
    de2e:	f8df 8208 	ldr.w	r8, [pc, #520]	; e038 <_ZN7android22QualcommCameraHardware11startCameraEv+0x3d8>
    de32:	4479      	add	r1, pc
    de34:	6018      	str	r0, [r3, #0]
    de36:	f8d4 00d8 	ldr.w	r0, [r4, #216]
    de3a:	f7f9 ee2c 	blx	7a94 <_ZN7android22QualcommCameraHardware18filterPictureSizesEv-0x258>
    de3e:	4a7f      	ldr	r2, [pc, #508]	(e03c <_ZN7android22QualcommCameraHardware11startCameraEv+0x3dc>)
    de40:	58a9      	ldr	r1, [r5, r2]
    de42:	6008      	str	r0, [r1, #0]
    de44:	497e      	ldr	r1, [pc, #504]	(e040 <_ZN7android22QualcommCameraHardware11startCameraEv+0x3e0>)
    de46:	f8d4 00d8 	ldr.w	r0, [r4, #216]
    de4a:	4479      	add	r1, pc
    de4c:	f7f9 ee22 	blx	7a94 <_ZN7android22QualcommCameraHardware18filterPictureSizesEv-0x258>
    de50:	f8df c1f0 	ldr.w	ip, [pc, #496]	; e044 <_ZN7android22QualcommCameraHardware11startCameraEv+0x3e4>
    de54:	497c      	ldr	r1, [pc, #496]	(e048 <_ZN7android22QualcommCameraHardware11startCameraEv+0x3e8>)
    de56:	f855 300c 	ldr.w	r3, [r5, ip]
    de5a:	4479      	add	r1, pc
    de5c:	6018      	str	r0, [r3, #0]
    de5e:	f8d4 00d8 	ldr.w	r0, [r4, #216]
    de62:	f7f9 ee18 	blx	7a94 <_ZN7android22QualcommCameraHardware18filterPictureSizesEv-0x258>
    de66:	f855 2008 	ldr.w	r2, [r5, r8]
    de6a:	6010      	str	r0, [r2, #0]
    de6c:	4877      	ldr	r0, [pc, #476]	(e04c <_ZN7android22QualcommCameraHardware11startCameraEv+0x3ec>)
    de6e:	5829      	ldr	r1, [r5, r0]
    de70:	6808      	ldr	r0, [r1, #0]
    de72:	2100      	movs	r1, #0
    de74:	f7f9 ee14 	blx	7aa0 <_ZN7android22QualcommCameraHardware18filterPictureSizesEv-0x24c>
    de78:	4680      	mov	r8, r0
    de7a:	b140      	cbz	r0, de8e <_ZN7android22QualcommCameraHardware11startCameraEv+0x22e>
    de7c:	4a74      	ldr	r2, [pc, #464]	(e050 <_ZN7android22QualcommCameraHardware11startCameraEv+0x3f0>)
    de7e:	447a      	add	r2, pc
    de80:	2006      	movs	r0, #6
    de82:	4631      	mov	r1, r6
    de84:	f7f9 eca4 	blx	77d0 <_ZN7android22QualcommCameraHardware18filterPictureSizesEv-0x51c>
    de88:	f04f 0800 	mov.w	r8, #0	; 0x0
    de8c:	e071      	b.n	df72 <_ZN7android22QualcommCameraHardware11startCameraEv+0x312>
    de8e:	f8df e1c4 	ldr.w	lr, [pc, #452]	; e054 <_ZN7android22QualcommCameraHardware11startCameraEv+0x3f4>
    de92:	44fe      	add	lr, pc
    de94:	f8de 0104 	ldr.w	r0, [lr, #260]
    de98:	2800      	cmp	r0, #0
    de9a:	f8c4 00dc 	str.w	r0, [r4, #220]
    de9e:	da0e      	bge.n	debe <_ZN7android22QualcommCameraHardware11startCameraEv+0x25e>
    dea0:	f7f9 ecea 	blx	7878 <_ZN7android22QualcommCameraHardware18filterPictureSizesEv-0x474>
    dea4:	6800      	ldr	r0, [r0, #0]
    dea6:	f7f9 ecee 	blx	7884 <_ZN7android22QualcommCameraHardware18filterPictureSizesEv-0x468>
    deaa:	4a6b      	ldr	r2, [pc, #428]	(e058 <_ZN7android22QualcommCameraHardware11startCameraEv+0x3f8>)
    deac:	4b6b      	ldr	r3, [pc, #428]	(e05c <_ZN7android22QualcommCameraHardware11startCameraEv+0x3fc>)
    deae:	4631      	mov	r1, r6
    deb0:	447a      	add	r2, pc
    deb2:	447b      	add	r3, pc
    deb4:	9000      	str	r0, [sp, #0]
    deb6:	2006      	movs	r0, #6
    deb8:	f7f9 ec8a 	blx	77d0 <_ZN7android22QualcommCameraHardware18filterPictureSizesEv-0x51c>
    debc:	e059      	b.n	df72 <_ZN7android22QualcommCameraHardware11startCameraEv+0x312>
    debe:	683a      	ldr	r2, [r7, #0]
    dec0:	2a03      	cmp	r2, #3
    dec2:	d014      	beq.n	deee <_ZN7android22QualcommCameraHardware11startCameraEv+0x28e>
    dec4:	4866      	ldr	r0, [pc, #408]	(e060 <_ZN7android22QualcommCameraHardware11startCameraEv+0x400>)
    dec6:	2102      	movs	r1, #2
    dec8:	4478      	add	r0, pc
    deca:	f7f9 edb4 	blx	7a34 <_ZN7android22QualcommCameraHardware18filterPictureSizesEv-0x2b8>
    dece:	2800      	cmp	r0, #0
    ded0:	6078      	str	r0, [r7, #4]
    ded2:	da0c      	bge.n	deee <_ZN7android22QualcommCameraHardware11startCameraEv+0x28e>
    ded4:	f7f9 ecd0 	blx	7878 <_ZN7android22QualcommCameraHardware18filterPictureSizesEv-0x474>
    ded8:	6800      	ldr	r0, [r0, #0]
    deda:	f7f9 ecd4 	blx	7884 <_ZN7android22QualcommCameraHardware18filterPictureSizesEv-0x468>
    dede:	4a61      	ldr	r2, [pc, #388]	(e064 <_ZN7android22QualcommCameraHardware11startCameraEv+0x404>)
    dee0:	447a      	add	r2, pc
    dee2:	4603      	mov	r3, r0
    dee4:	2006      	movs	r0, #6
    dee6:	4631      	mov	r1, r6
    dee8:	f7f9 ec72 	blx	77d0 <_ZN7android22QualcommCameraHardware18filterPictureSizesEv-0x51c>
    deec:	e041      	b.n	df72 <_ZN7android22QualcommCameraHardware11startCameraEv+0x312>
    deee:	f8df 8154 	ldr.w	r8, [pc, #340]	; e044 <_ZN7android22QualcommCameraHardware11startCameraEv+0x3e4>
    def2:	f855 1008 	ldr.w	r1, [r5, r8]
    def6:	680b      	ldr	r3, [r1, #0]
    def8:	4798      	blx	r3
    defa:	4601      	mov	r1, r0
    defc:	b128      	cbz	r0, df0a <_ZN7android22QualcommCameraHardware11startCameraEv+0x2aa>
    defe:	495a      	ldr	r1, [pc, #360]	(e068 <_ZN7android22QualcommCameraHardware11startCameraEv+0x408>)
    df00:	2006      	movs	r0, #6
    df02:	4a5a      	ldr	r2, [pc, #360]	(e06c <_ZN7android22QualcommCameraHardware11startCameraEv+0x40c>)
    df04:	4479      	add	r1, pc
    df06:	447a      	add	r2, pc
    df08:	e7bc      	b.n	de84 <_ZN7android22QualcommCameraHardware11startCameraEv+0x224>
    df0a:	f104 05e0 	add.w	r5, r4, #224	; 0xe0
    df0e:	2222      	movs	r2, #34
    df10:	4628      	mov	r0, r5
    df12:	f7f9 edcc 	blx	7aac <_ZN7android22QualcommCameraHardware18filterPictureSizesEv-0x240>
    df16:	f8d4 00dc 	ldr.w	r0, [r4, #220]
    df1a:	4917      	ldr	r1, [pc, #92]	(df78 <_ZN7android22QualcommCameraHardware11startCameraEv+0x318>)
    df1c:	462a      	mov	r2, r5
    df1e:	f7f9 eca6 	blx	786c <_ZN7android22QualcommCameraHardware18filterPictureSizesEv-0x480>
    df22:	2800      	cmp	r0, #0
    df24:	da0c      	bge.n	df40 <_ZN7android22QualcommCameraHardware11startCameraEv+0x2e0>
    df26:	f8df c148 	ldr.w	ip, [pc, #328]	; e070 <_ZN7android22QualcommCameraHardware11startCameraEv+0x410>
    df2a:	2005      	movs	r0, #5
    df2c:	4951      	ldr	r1, [pc, #324]	(e074 <_ZN7android22QualcommCameraHardware11startCameraEv+0x414>)
    df2e:	4a52      	ldr	r2, [pc, #328]	(e078 <_ZN7android22QualcommCameraHardware11startCameraEv+0x418>)
    df30:	44fc      	add	ip, pc
    df32:	4479      	add	r1, pc
    df34:	f50c 73a0 	add.w	r3, ip, #320	; 0x140
    df38:	447a      	add	r2, pc
    df3a:	f7f9 ec4a 	blx	77d0 <_ZN7android22QualcommCameraHardware18filterPictureSizesEv-0x51c>
    df3e:	e00f      	b.n	df60 <_ZN7android22QualcommCameraHardware11startCameraEv+0x300>
    df40:	f894 0100 	ldrb.w	r0, [r4, #256]
    df44:	f8df e134 	ldr.w	lr, [pc, #308]	; e07c <_ZN7android22QualcommCameraHardware11startCameraEv+0x41c>
    df48:	494d      	ldr	r1, [pc, #308]	(e080 <_ZN7android22QualcommCameraHardware11startCameraEv+0x420>)
    df4a:	4a4e      	ldr	r2, [pc, #312]	(e084 <_ZN7android22QualcommCameraHardware11startCameraEv+0x424>)
    df4c:	44fe      	add	lr, pc
    df4e:	9001      	str	r0, [sp, #4]
    df50:	4479      	add	r1, pc
    df52:	447a      	add	r2, pc
    df54:	f50e 73a0 	add.w	r3, lr, #320	; 0x140
    df58:	2004      	movs	r0, #4
    df5a:	9500      	str	r5, [sp, #0]
    df5c:	f7f9 ec38 	blx	77d0 <_ZN7android22QualcommCameraHardware18filterPictureSizesEv-0x51c>
    df60:	4949      	ldr	r1, [pc, #292]	(e088 <_ZN7android22QualcommCameraHardware11startCameraEv+0x428>)
    df62:	2002      	movs	r0, #2
    df64:	4a49      	ldr	r2, [pc, #292]	(e08c <_ZN7android22QualcommCameraHardware11startCameraEv+0x42c>)
    df66:	f04f 0801 	mov.w	r8, #1	; 0x1
    df6a:	4479      	add	r1, pc
    df6c:	447a      	add	r2, pc
    df6e:	f7f9 ec30 	blx	77d0 <_ZN7android22QualcommCameraHardware18filterPictureSizesEv-0x51c>
    df72:	4640      	mov	r0, r8
    df74:	e8bd 81fc 	ldmia.w	sp!, {r2, r3, r4, r5, r6, r7, r8, pc}
    df78:	6d01      	ldr	r1, [r0, #80]
    df7a:	8004      	strh	r4, [r0, #0]
    df7c:	2723      	movs	r7, #35
    df7e:	0000      	lsls	r0, r0, #0
    df80:	6c56      	ldr	r6, [r2, #68]
    df82:	0000      	lsls	r0, r0, #0
    df84:	4f8a      	ldr	r7, [pc, #552]	(e1b0 <_ZN7android22QualcommCameraHardware15storeTargetTypeEv+0x84>)
    df86:	0000      	lsls	r0, r0, #0
    df88:	6a74      	ldr	r4, [r6, #36]
    df8a:	0000      	lsls	r0, r0, #0
    df8c:	4f84      	ldr	r7, [pc, #528]	(e1a0 <_ZN7android22QualcommCameraHardware15storeTargetTypeEv+0x74>)
    df8e:	0000      	lsls	r0, r0, #0
    df90:	4992      	ldr	r1, [pc, #584]	(e1dc <_ZN7android22QualcommCameraHardwareC1Ev>)
    df92:	0000      	lsls	r0, r0, #0
    df94:	4fae      	ldr	r7, [pc, #696]	(e250 <_ZN7android22QualcommCameraHardwareC1Ev+0x74>)
    df96:	0000      	lsls	r0, r0, #0
    df98:	4997      	ldr	r1, [pc, #604]	(e1f8 <_ZN7android22QualcommCameraHardwareC1Ev+0x1c>)
    df9a:	0000      	lsls	r0, r0, #0
    df9c:	4f9d      	ldr	r7, [pc, #628]	(e214 <_ZN7android22QualcommCameraHardwareC1Ev+0x38>)
    df9e:	0000      	lsls	r0, r0, #0
    dfa0:	ff34 ffff 	undefined
    dfa4:	ff28 ffff 	undefined
    dfa8:	4f9b      	ldr	r7, [pc, #620]	(e218 <_ZN7android22QualcommCameraHardwareC1Ev+0x3c>)
    dfaa:	0000      	lsls	r0, r0, #0
    dfac:	fe7c ffff 	mrc2	15, 3, pc, cr12, cr15, {7}
    dfb0:	4f98      	ldr	r7, [pc, #608]	(e214 <_ZN7android22QualcommCameraHardwareC1Ev+0x38>)
    dfb2:	0000      	lsls	r0, r0, #0
    dfb4:	ff38 ffff 	undefined
    dfb8:	4f8e      	ldr	r7, [pc, #568]	(e1f4 <_ZN7android22QualcommCameraHardwareC1Ev+0x18>)
    dfba:	0000      	lsls	r0, r0, #0
    dfbc:	ff3c ffff 	undefined
    dfc0:	4f96      	ldr	r7, [pc, #600]	(e21c <_ZN7android22QualcommCameraHardwareC1Ev+0x40>)
    dfc2:	0000      	lsls	r0, r0, #0
    dfc4:	ff20 ffff 	undefined
    dfc8:	4f8c      	ldr	r7, [pc, #560]	(e1fc <_ZN7android22QualcommCameraHardwareC1Ev+0x20>)
    dfca:	0000      	lsls	r0, r0, #0
    dfcc:	ea4d ffff 	undefined
    dfd0:	4f93      	ldr	r7, [pc, #588]	(e220 <_ZN7android22QualcommCameraHardwareC1Ev+0x44>)
    dfd2:	0000      	lsls	r0, r0, #0
    dfd4:	ff40 ffff 	undefined
    dfd8:	ff44 ffff 	undefined
    dfdc:	e9e3 ffff 	strd	pc, pc, [r3, #1020]!
    dfe0:	4f92      	ldr	r7, [pc, #584]	(e22c <_ZN7android22QualcommCameraHardwareC1Ev+0x50>)
    dfe2:	0000      	lsls	r0, r0, #0
    dfe4:	e97b ffff 	ldrd	pc, pc, [fp, #-1020]!
    dfe8:	fefc ffff 	mrc2	15, 7, pc, cr12, cr15, {7}
    dfec:	4f89      	ldr	r7, [pc, #548]	(e214 <_ZN7android22QualcommCameraHardwareC1Ev+0x38>)
    dfee:	0000      	lsls	r0, r0, #0
    dff0:	ff48 ffff 	undefined
    dff4:	e945 ffff 	strd	pc, pc, [r5, #-1020]
    dff8:	4f8f      	ldr	r7, [pc, #572]	(e238 <_ZN7android22QualcommCameraHardwareC1Ev+0x5c>)
    dffa:	0000      	lsls	r0, r0, #0
    dffc:	ff04 ffff 	undefined
    e000:	4f96      	ldr	r7, [pc, #600]	(e25c <_ZN7android22QualcommCameraHardwareC1Ev+0x80>)
    e002:	0000      	lsls	r0, r0, #0
    e004:	4f99      	ldr	r7, [pc, #612]	(e26c <_ZN7android22QualcommCameraHardwareC1Ev+0x90>)
    e006:	0000      	lsls	r0, r0, #0
    e008:	ff4c ffff 	undefined
    e00c:	ff50 ffff 	undefined
    e010:	e8bb ffff 	ldmia.w	fp!, {r0, r1, r2, r3, r4, r5, r6, r7, r8, r9, sl, fp, ip, sp, lr, pc}
    e014:	4f9b      	ldr	r7, [pc, #620]	(e284 <_ZN7android22QualcommCameraHardwareC1Ev+0xa8>)
    e016:	0000      	lsls	r0, r0, #0
    e018:	a1c7      	add	r1, pc, #796	(adr r1, e338 <_ZN7android22QualcommCameraHardwareC1Ev+0x15c>)
    e01a:	ffff ff54 	vcvt.u32.f32	<illegal reg q15.5>, q2, #1
    e01e:	ffff 4f95 	undefined
    e022:	0000      	lsls	r0, r0, #0
    e024:	ff58 ffff 	undefined
    e028:	4faa      	ldr	r7, [pc, #680]	(e2d4 <_ZN7android22QualcommCameraHardwareC1Ev+0xf8>)
    e02a:	0000      	lsls	r0, r0, #0
    e02c:	ff5c ffff 	undefined
    e030:	4faf      	ldr	r7, [pc, #700]	(e2f0 <_ZN7android22QualcommCameraHardwareC1Ev+0x114>)
    e032:	0000      	lsls	r0, r0, #0
    e034:	4fb8      	ldr	r7, [pc, #736]	(e318 <_ZN7android22QualcommCameraHardwareC1Ev+0x13c>)
    e036:	0000      	lsls	r0, r0, #0
    e038:	ff24 ffff 	undefined
    e03c:	ff60 ffff 	undefined
    e040:	4fa9      	ldr	r7, [pc, #676]	(e2e8 <_ZN7android22QualcommCameraHardwareC1Ev+0x10c>)
    e042:	0000      	lsls	r0, r0, #0
    e044:	ff64 ffff 	undefined
    e048:	4fb0      	ldr	r7, [pc, #704]	(e30c <_ZN7android22QualcommCameraHardwareC1Ev+0x130>)
    e04a:	0000      	lsls	r0, r0, #0
    e04c:	ff68 ffff 	undefined
    e050:	4fa4      	ldr	r7, [pc, #656]	(e2e4 <_ZN7android22QualcommCameraHardwareC1Ev+0x108>)
    e052:	0000      	lsls	r0, r0, #0
    e054:	6aca      	ldr	r2, [r1, #44]
    e056:	0000      	lsls	r0, r0, #0
    e058:	4f91      	ldr	r7, [pc, #580]	(e2a0 <_ZN7android22QualcommCameraHardwareC1Ev+0xc4>)
    e05a:	0000      	lsls	r0, r0, #0
    e05c:	4737      	bx	r6
    e05e:	0000      	lsls	r0, r0, #0
    e060:	4f9c      	ldr	r7, [pc, #624]	(e2d4 <_ZN7android22QualcommCameraHardwareC1Ev+0xf8>)
    e062:	0000      	lsls	r0, r0, #0
    e064:	4f96      	ldr	r7, [pc, #600]	(e2c0 <_ZN7android22QualcommCameraHardwareC1Ev+0xe4>)
    e066:	0000      	lsls	r0, r0, #0
    e068:	248b      	movs	r4, #139
    e06a:	0000      	lsls	r0, r0, #0
    e06c:	4f92      	ldr	r7, [pc, #584]	(e2b8 <_ZN7android22QualcommCameraHardwareC1Ev+0xdc>)
    e06e:	0000      	lsls	r0, r0, #0
    e070:	22fc      	movs	r2, #252
    e072:	0000      	lsls	r0, r0, #0
    e074:	245d      	movs	r4, #93
    e076:	0000      	lsls	r0, r0, #0
    e078:	4f8a      	ldr	r7, [pc, #552]	(e2a4 <_ZN7android22QualcommCameraHardwareC1Ev+0xc8>)
    e07a:	0000      	lsls	r0, r0, #0
    e07c:	22e0      	movs	r2, #224
    e07e:	0000      	lsls	r0, r0, #0
    e080:	243f      	movs	r4, #63
    e082:	0000      	lsls	r0, r0, #0
    e084:	4f91      	ldr	r7, [pc, #580]	(e2cc <_ZN7android22QualcommCameraHardwareC1Ev+0xf0>)
    e086:	0000      	lsls	r0, r0, #0
    e088:	2425      	movs	r4, #37
    e08a:	0000      	lsls	r0, r0, #0
    e08c:	4f97      	ldr	r7, [pc, #604]	(e2ec <_ZN7android22QualcommCameraHardwareC1Ev+0x110>)
    e08e:	0000      	lsls	r0, r0, #0
    e090:	e92d 4ff0 	stmdb	sp!, {r4, r5, r6, r7, r8, r9, sl, fp, lr}
    e094:	4c21      	ldr	r4, [pc, #132]	(e11c <_ZN7android22QualcommCameraHardware11startCameraEv+0x4bc>)
    e096:	460f      	mov	r7, r1
    e098:	4921      	ldr	r1, [pc, #132]	(e120 <_ZN7android22QualcommCameraHardware11startCameraEv+0x4c0>)
    e09a:	447c      	add	r4, pc
    e09c:	4605      	mov	r5, r0
    e09e:	b08b      	sub	sp, #44
    e0a0:	4693      	mov	fp, r2
    e0a2:	5860      	ldr	r0, [r4, r1]
    e0a4:	6803      	ldr	r3, [r0, #0]
    e0a6:	4628      	mov	r0, r5
    e0a8:	9309      	str	r3, [sp, #36]
    e0aa:	f7f9 eb68 	blx	777c <_ZN7android22QualcommCameraHardware18filterPictureSizesEv-0x570>
    e0ae:	f1bb 0f00 	cmp.w	fp, #0	; 0x0
    e0b2:	dd0b      	ble.n	e0cc <_ZN7android22QualcommCameraHardware11startCameraEv+0x46c>
    e0b4:	491b      	ldr	r1, [pc, #108]	(e124 <_ZN7android22QualcommCameraHardware11startCameraEv+0x4c4>)
    e0b6:	ae01      	add	r6, sp, #4
    e0b8:	4630      	mov	r0, r6
    e0ba:	683a      	ldr	r2, [r7, #0]
    e0bc:	4479      	add	r1, pc
    e0be:	687b      	ldr	r3, [r7, #4]
    e0c0:	f7f9 ecfa 	blx	7ab8 <_ZN7android22QualcommCameraHardware18filterPictureSizesEv-0x234>
    e0c4:	4628      	mov	r0, r5
    e0c6:	4631      	mov	r1, r6
    e0c8:	f7f9 eba6 	blx	7818 <_ZN7android22QualcommCameraHardware18filterPictureSizesEv-0x4d4>
    e0cc:	f8df 9058 	ldr.w	r9, [pc, #88]	; e128 <_ZN7android22QualcommCameraHardware11startCameraEv+0x4c8>
    e0d0:	2600      	movs	r6, #0
    e0d2:	f04f 0801 	mov.w	r8, #1	; 0x1
    e0d6:	f10d 0a04 	add.w	sl, sp, #4	; 0x4
    e0da:	44f9      	add	r9, pc
    e0dc:	e00c      	b.n	e0f8 <_ZN7android22QualcommCameraHardware11startCameraEv+0x498>
    e0de:	19bb      	adds	r3, r7, r6
    e0e0:	4649      	mov	r1, r9
    e0e2:	59ba      	ldr	r2, [r7, r6]
    e0e4:	4650      	mov	r0, sl
    e0e6:	685b      	ldr	r3, [r3, #4]
    e0e8:	f108 0801 	add.w	r8, r8, #1	; 0x1
    e0ec:	f7f9 ece4 	blx	7ab8 <_ZN7android22QualcommCameraHardware18filterPictureSizesEv-0x234>
    e0f0:	4628      	mov	r0, r5
    e0f2:	4651      	mov	r1, sl
    e0f4:	f7f9 eb90 	blx	7818 <_ZN7android22QualcommCameraHardware18filterPictureSizesEv-0x4d4>
    e0f8:	3608      	adds	r6, #8
    e0fa:	45d8      	cmp	r8, fp
    e0fc:	dbef      	blt.n	e0de <_ZN7android22QualcommCameraHardware11startCameraEv+0x47e>
    e0fe:	f8df c020 	ldr.w	ip, [pc, #32]	; e120 <_ZN7android22QualcommCameraHardware11startCameraEv+0x4c0>
    e102:	4628      	mov	r0, r5
    e104:	9a09      	ldr	r2, [sp, #36]
    e106:	f854 300c 	ldr.w	r3, [r4, ip]
    e10a:	6819      	ldr	r1, [r3, #0]
    e10c:	428a      	cmp	r2, r1
    e10e:	d001      	beq.n	e114 <_ZN7android22QualcommCameraHardware11startCameraEv+0x4b4>
    e110:	f7f9 eb9a 	blx	7848 <_ZN7android22QualcommCameraHardware18filterPictureSizesEv-0x4a4>
    e114:	b00b      	add	sp, #44
    e116:	e8bd 8ff0 	ldmia.w	sp!, {r4, r5, r6, r7, r8, r9, sl, fp, pc}
    e11a:	bf00      	nop
    e11c:	665a      	str	r2, [r3, #100]
    e11e:	0000      	lsls	r0, r0, #0
    e120:	fe80 ffff 	mcr2	15, 4, pc, cr0, cr15, {7}
    e124:	4e55      	ldr	r6, [pc, #340]	(e27c <_ZN7android22QualcommCameraHardwareC1Ev+0xa0>)
    e126:	0000      	lsls	r0, r0, #0
    e128:	4e3d      	ldr	r6, [pc, #244]	(e220 <_ZN7android22QualcommCameraHardwareC1Ev+0x44>)
	...

0000e12c <_ZN7android22QualcommCameraHardware15storeTargetTypeEv>:
    e12c:	e92d 41f0 	stmdb	sp!, {r4, r5, r6, r7, r8, lr}
    e130:	4c20      	ldr	r4, [pc, #128]	(e1b4 <_ZN7android22QualcommCameraHardware15storeTargetTypeEv+0x88>)
    e132:	4d21      	ldr	r5, [pc, #132]	(e1b8 <_ZN7android22QualcommCameraHardware15storeTargetTypeEv+0x8c>)
    e134:	b098      	sub	sp, #96
    e136:	447c      	add	r4, pc
    e138:	4a20      	ldr	r2, [pc, #128]	(e1bc <_ZN7android22QualcommCameraHardware15storeTargetTypeEv+0x90>)
    e13a:	4e21      	ldr	r6, [pc, #132]	(e1c0 <_ZN7android22QualcommCameraHardware15storeTargetTypeEv+0x94>)
    e13c:	46e8      	mov	r8, sp
    e13e:	5961      	ldr	r1, [r4, r5]
    e140:	447a      	add	r2, pc
    e142:	2500      	movs	r5, #0
    e144:	447e      	add	r6, pc
    e146:	6808      	ldr	r0, [r1, #0]
    e148:	4669      	mov	r1, sp
    e14a:	9017      	str	r0, [sp, #92]
    e14c:	481d      	ldr	r0, [pc, #116]	(e1c4 <_ZN7android22QualcommCameraHardware15storeTargetTypeEv+0x98>)
    e14e:	4478      	add	r0, pc
    e150:	f7f9 ecb8 	blx	7ac4 <_ZN7android22QualcommCameraHardware18filterPictureSizesEv-0x228>
    e154:	4b1c      	ldr	r3, [pc, #112]	(e1c8 <_ZN7android22QualcommCameraHardware15storeTargetTypeEv+0x9c>)
    e156:	2204      	movs	r2, #4
    e158:	447b      	add	r3, pc
    e15a:	601a      	str	r2, [r3, #0]
    e15c:	4668      	mov	r0, sp
    e15e:	f856 1035 	ldr.w	r1, [r6, r5, lsl #3]
    e162:	2207      	movs	r2, #7
    e164:	00ef      	lsls	r7, r5, #3
    e166:	f7f9 ecb4 	blx	7ad0 <_ZN7android22QualcommCameraHardware18filterPictureSizesEv-0x21c>
    e16a:	b938      	cbnz	r0, e17c <_ZN7android22QualcommCameraHardware15storeTargetTypeEv+0x50>
    e16c:	19f6      	adds	r6, r6, r7
    e16e:	f8df c05c 	ldr.w	ip, [pc, #92]	; e1cc <_ZN7android22QualcommCameraHardware15storeTargetTypeEv+0xa0>
    e172:	6872      	ldr	r2, [r6, #4]
    e174:	44fc      	add	ip, pc
    e176:	f8cc 2000 	str.w	r2, [ip]
    e17a:	e002      	b.n	e182 <_ZN7android22QualcommCameraHardware15storeTargetTypeEv+0x56>
    e17c:	3501      	adds	r5, #1
    e17e:	2d04      	cmp	r5, #4
    e180:	d1ec      	bne.n	e15c <_ZN7android22QualcommCameraHardware15storeTargetTypeEv+0x30>
    e182:	f8df e04c 	ldr.w	lr, [pc, #76]	; e1d0 <_ZN7android22QualcommCameraHardware15storeTargetTypeEv+0xa4>
    e186:	2002      	movs	r0, #2
    e188:	4912      	ldr	r1, [pc, #72]	(e1d4 <_ZN7android22QualcommCameraHardware15storeTargetTypeEv+0xa8>)
    e18a:	4603      	mov	r3, r0
    e18c:	44fe      	add	lr, pc
    e18e:	4a12      	ldr	r2, [pc, #72]	(e1d8 <_ZN7android22QualcommCameraHardware15storeTargetTypeEv+0xac>)
    e190:	4479      	add	r1, pc
    e192:	447a      	add	r2, pc
    e194:	f8ce 0000 	str.w	r0, [lr]
    e198:	f7f9 eb1a 	blx	77d0 <_ZN7android22QualcommCameraHardware18filterPictureSizesEv-0x51c>
    e19c:	4a06      	ldr	r2, [pc, #24]	(e1b8 <_ZN7android22QualcommCameraHardware15storeTargetTypeEv+0x8c>)
    e19e:	9817      	ldr	r0, [sp, #92]
    e1a0:	58a1      	ldr	r1, [r4, r2]
    e1a2:	680b      	ldr	r3, [r1, #0]
    e1a4:	4298      	cmp	r0, r3
    e1a6:	d001      	beq.n	e1ac <_ZN7android22QualcommCameraHardware15storeTargetTypeEv+0x80>
    e1a8:	f7f9 eb4e 	blx	7848 <_ZN7android22QualcommCameraHardware18filterPictureSizesEv-0x4a4>
    e1ac:	b018      	add	sp, #96
    e1ae:	e8bd 81f0 	ldmia.w	sp!, {r4, r5, r6, r7, r8, pc}
    e1b2:	bf00      	nop
    e1b4:	65be      	str	r6, [r7, #88]
    e1b6:	0000      	lsls	r0, r0, #0
    e1b8:	fe80 ffff 	mcr2	15, 4, pc, cr0, cr15, {7}
    e1bc:	4df0      	ldr	r5, [pc, #960]	(e580 <_ZN7android22QualcommCameraHardwareC2Ev+0x114>)
    e1be:	0000      	lsls	r0, r0, #0
    e1c0:	5ed0      	ldrsh	r0, [r2, r3]
    e1c2:	0000      	lsls	r0, r0, #0
    e1c4:	4dd0      	ldr	r5, [pc, #832]	(e508 <_ZN7android22QualcommCameraHardwareC2Ev+0x9c>)
    e1c6:	0000      	lsls	r0, r0, #0
    e1c8:	676c      	str	r4, [r5, #116]
    e1ca:	0000      	lsls	r0, r0, #0
    e1cc:	6750      	str	r0, [r2, #116]
    e1ce:	0000      	lsls	r0, r0, #0
    e1d0:	6738      	str	r0, [r7, #112]
    e1d2:	0000      	lsls	r0, r0, #0
    e1d4:	21ff      	movs	r1, #255
    e1d6:	0000      	lsls	r0, r0, #0
    e1d8:	4da0      	ldr	r5, [pc, #640]	(e45c <_ZN7android22QualcommCameraHardwareC1Ev+0x280>)
	...

0000e1dc <_ZN7android22QualcommCameraHardwareC1Ev>:
    e1dc:	b5f0      	push	{r4, r5, r6, r7, lr}
    e1de:	4d94      	ldr	r5, [pc, #592]	(e430 <_ZN7android22QualcommCameraHardwareC1Ev+0x254>)
    e1e0:	f8df e250 	ldr.w	lr, [pc, #592]	; e434 <_ZN7android22QualcommCameraHardwareC1Ev+0x258>
    e1e4:	b099      	sub	sp, #100
    e1e6:	447d      	add	r5, pc
    e1e8:	4e93      	ldr	r6, [pc, #588]	(e438 <_ZN7android22QualcommCameraHardwareC1Ev+0x25c>)
    e1ea:	4604      	mov	r4, r0
    e1ec:	f500 7003 	add.w	r0, r0, #524	; 0x20c
    e1f0:	f855 100e 	ldr.w	r1, [r5, lr]
    e1f4:	680a      	ldr	r2, [r1, #0]
    e1f6:	9217      	str	r2, [sp, #92]
    e1f8:	f7f9 eb62 	blx	78c0 <_ZN7android22QualcommCameraHardware18filterPictureSizesEv-0x42c>
    e1fc:	59af      	ldr	r7, [r5, r6]
    e1fe:	f8df c23c 	ldr.w	ip, [pc, #572]	; e43c <_ZN7android22QualcommCameraHardwareC1Ev+0x260>
    e202:	6878      	ldr	r0, [r7, #4]
    e204:	68bb      	ldr	r3, [r7, #8]
    e206:	f04f 37ff 	mov.w	r7, #4294967295	; 0xffffffff
    e20a:	f855 600c 	ldr.w	r6, [r5, ip]
    e20e:	6020      	str	r0, [r4, #0]
    e210:	f850 1c0c 	ldr.w	r1, [r0, #-12]
    e214:	f106 020c 	add.w	r2, r6, #12	; 0xc
    e218:	f116 0094 	adds.w	r0, r6, #148	; 0x94
    e21c:	2600      	movs	r6, #0
    e21e:	5063      	str	r3, [r4, r1]
    e220:	6022      	str	r2, [r4, #0]
    e222:	f8c4 020c 	str.w	r0, [r4, #524]
    e226:	f104 0008 	add.w	r0, r4, #8	; 0x8
    e22a:	f7f9 ec58 	blx	7adc <_ZN7android22QualcommCameraHardware18filterPictureSizesEv-0x210>
    e22e:	f884 6024 	strb.w	r6, [r4, #36]
    e232:	f104 0028 	add.w	r0, r4, #40	; 0x28
    e236:	f7f9 fe41 	bl	7ebc <_ZNK7android12SortedVectorINS_16key_value_pair_tINS_7String8ES2_EEE10do_destroyEPvj+0x18>
    e23a:	f884 602c 	strb.w	r6, [r4, #44]
    e23e:	6326      	str	r6, [r4, #48]
    e240:	f104 0058 	add.w	r0, r4, #88	; 0x58
    e244:	6366      	str	r6, [r4, #52]
    e246:	63a6      	str	r6, [r4, #56]
    e248:	63e6      	str	r6, [r4, #60]
    e24a:	6426      	str	r6, [r4, #64]
    e24c:	6466      	str	r6, [r4, #68]
    e24e:	64a6      	str	r6, [r4, #72]
    e250:	64e6      	str	r6, [r4, #76]
    e252:	6526      	str	r6, [r4, #80]
    e254:	f884 6054 	strb.w	r6, [r4, #84]
    e258:	f7f9 fe30 	bl	7ebc <_ZNK7android12SortedVectorINS_16key_value_pair_tINS_7String8ES2_EEE10do_destroyEPvj+0x18>
    e25c:	f104 005c 	add.w	r0, r4, #92	; 0x5c
    e260:	f7f9 fe34 	bl	7ecc <_ZNK7android12SortedVectorINS_16key_value_pair_tINS_7String8ES2_EEE10do_destroyEPvj+0x28>
    e264:	f884 6061 	strb.w	r6, [r4, #97]
    e268:	f104 0064 	add.w	r0, r4, #100	; 0x64
    e26c:	f7f9 fe26 	bl	7ebc <_ZNK7android12SortedVectorINS_16key_value_pair_tINS_7String8ES2_EEE10do_destroyEPvj+0x18>
    e270:	f104 0068 	add.w	r0, r4, #104	; 0x68
    e274:	f7f9 fe2a 	bl	7ecc <_ZNK7android12SortedVectorINS_16key_value_pair_tINS_7String8ES2_EEE10do_destroyEPvj+0x28>
    e278:	f104 0070 	add.w	r0, r4, #112	; 0x70
    e27c:	f7f9 fe1e 	bl	7ebc <_ZNK7android12SortedVectorINS_16key_value_pair_tINS_7String8ES2_EEE10do_destroyEPvj+0x18>
    e280:	f884 6074 	strb.w	r6, [r4, #116]
    e284:	f104 0078 	add.w	r0, r4, #120	; 0x78
    e288:	f7f9 fe18 	bl	7ebc <_ZNK7android12SortedVectorINS_16key_value_pair_tINS_7String8ES2_EEE10do_destroyEPvj+0x18>
    e28c:	f104 007c 	add.w	r0, r4, #124	; 0x7c
    e290:	f7f9 fe1c 	bl	7ecc <_ZNK7android12SortedVectorINS_16key_value_pair_tINS_7String8ES2_EEE10do_destroyEPvj+0x28>
    e294:	f104 0080 	add.w	r0, r4, #128	; 0x80
    e298:	f7f9 fe10 	bl	7ebc <_ZNK7android12SortedVectorINS_16key_value_pair_tINS_7String8ES2_EEE10do_destroyEPvj+0x18>
    e29c:	f884 6084 	strb.w	r6, [r4, #132]
    e2a0:	f104 0088 	add.w	r0, r4, #136	; 0x88
    e2a4:	f7f9 fe0a 	bl	7ebc <_ZNK7android12SortedVectorINS_16key_value_pair_tINS_7String8ES2_EEE10do_destroyEPvj+0x18>
    e2a8:	f104 008c 	add.w	r0, r4, #140	; 0x8c
    e2ac:	f7f9 fe0e 	bl	7ecc <_ZNK7android12SortedVectorINS_16key_value_pair_tINS_7String8ES2_EEE10do_destroyEPvj+0x28>
    e2b0:	f884 6090 	strb.w	r6, [r4, #144]
    e2b4:	f104 0094 	add.w	r0, r4, #148	; 0x94
    e2b8:	f7f9 fe00 	bl	7ebc <_ZNK7android12SortedVectorINS_16key_value_pair_tINS_7String8ES2_EEE10do_destroyEPvj+0x18>
    e2bc:	f104 0098 	add.w	r0, r4, #152	; 0x98
    e2c0:	f7f9 fe04 	bl	7ecc <_ZNK7android12SortedVectorINS_16key_value_pair_tINS_7String8ES2_EEE10do_destroyEPvj+0x28>
    e2c4:	f8c4 609c 	str.w	r6, [r4, #156]
    e2c8:	f104 00a0 	add.w	r0, r4, #160	; 0xa0
    e2cc:	f7f9 fdf6 	bl	7ebc <_ZNK7android12SortedVectorINS_16key_value_pair_tINS_7String8ES2_EEE10do_destroyEPvj+0x18>
    e2d0:	f104 00a4 	add.w	r0, r4, #164	; 0xa4
    e2d4:	f7f9 fdf2 	bl	7ebc <_ZNK7android12SortedVectorINS_16key_value_pair_tINS_7String8ES2_EEE10do_destroyEPvj+0x18>
    e2d8:	f884 60a9 	strb.w	r6, [r4, #169]
    e2dc:	f104 00ac 	add.w	r0, r4, #172	; 0xac
    e2e0:	f7f9 fdec 	bl	7ebc <_ZNK7android12SortedVectorINS_16key_value_pair_tINS_7String8ES2_EEE10do_destroyEPvj+0x18>
    e2e4:	f104 00b0 	add.w	r0, r4, #176	; 0xb0
    e2e8:	f7f9 fde8 	bl	7ebc <_ZNK7android12SortedVectorINS_16key_value_pair_tINS_7String8ES2_EEE10do_destroyEPvj+0x18>
    e2ec:	f104 00b4 	add.w	r0, r4, #180	; 0xb4
    e2f0:	f7f9 fde4 	bl	7ebc <_ZNK7android12SortedVectorINS_16key_value_pair_tINS_7String8ES2_EEE10do_destroyEPvj+0x18>
    e2f4:	f104 00b8 	add.w	r0, r4, #184	; 0xb8
    e2f8:	f7f9 fde0 	bl	7ebc <_ZNK7android12SortedVectorINS_16key_value_pair_tINS_7String8ES2_EEE10do_destroyEPvj+0x18>
    e2fc:	f104 00bc 	add.w	r0, r4, #188	; 0xbc
    e300:	f7f9 fde4 	bl	7ecc <_ZNK7android12SortedVectorINS_16key_value_pair_tINS_7String8ES2_EEE10do_destroyEPvj+0x28>
    e304:	f104 00c0 	add.w	r0, r4, #192	; 0xc0
    e308:	f7f9 fde0 	bl	7ecc <_ZNK7android12SortedVectorINS_16key_value_pair_tINS_7String8ES2_EEE10do_destroyEPvj+0x28>
    e30c:	f8c4 60c8 	str.w	r6, [r4, #200]
    e310:	f8c4 60d0 	str.w	r6, [r4, #208]
    e314:	f504 7092 	add.w	r0, r4, #292	; 0x124
    e318:	f8c4 70dc 	str.w	r7, [r4, #220]
    e31c:	f884 6122 	strb.w	r6, [r4, #290]
    e320:	f7f9 fdcc 	bl	7ebc <_ZNK7android12SortedVectorINS_16key_value_pair_tINS_7String8ES2_EEE10do_destroyEPvj+0x18>
    e324:	f8c4 7128 	str.w	r7, [r4, #296]
    e328:	f504 7096 	add.w	r0, r4, #300	; 0x12c
    e32c:	f7f9 fdc6 	bl	7ebc <_ZNK7android12SortedVectorINS_16key_value_pair_tINS_7String8ES2_EEE10do_destroyEPvj+0x18>
    e330:	4943      	ldr	r1, [pc, #268]	(e440 <_ZN7android22QualcommCameraHardwareC1Ev+0x264>)
    e332:	4b44      	ldr	r3, [pc, #272]	(e444 <_ZN7android22QualcommCameraHardwareC1Ev+0x268>)
    e334:	f884 6160 	strb.w	r6, [r4, #352]
    e338:	5868      	ldr	r0, [r5, r1]
    e33a:	4631      	mov	r1, r6
    e33c:	58ea      	ldr	r2, [r5, r3]
    e33e:	4633      	mov	r3, r6
    e340:	f8c4 6164 	str.w	r6, [r4, #356]
    e344:	f8c4 6168 	str.w	r6, [r4, #360]
    e348:	f884 61e0 	strb.w	r6, [r4, #480]
    e34c:	f884 61e1 	strb.w	r6, [r4, #481]
    e350:	f8c4 61e4 	str.w	r6, [r4, #484]
    e354:	f8c4 61e8 	str.w	r6, [r4, #488]
    e358:	f8c4 61ec 	str.w	r6, [r4, #492]
    e35c:	f8c4 61f0 	str.w	r6, [r4, #496]
    e360:	f8c4 61f4 	str.w	r6, [r4, #500]
    e364:	f8c4 61f8 	str.w	r6, [r4, #504]
    e368:	f8c4 61fc 	str.w	r6, [r4, #508]
    e36c:	f7f9 eb14 	blx	7998 <_ZN7android22QualcommCameraHardware18filterPictureSizesEv-0x354>
    e370:	b130      	cbz	r0, e380 <_ZN7android22QualcommCameraHardwareC1Ev+0x1a4>
    e372:	4935      	ldr	r1, [pc, #212]	(e448 <_ZN7android22QualcommCameraHardwareC1Ev+0x26c>)
    e374:	2006      	movs	r0, #6
    e376:	4a35      	ldr	r2, [pc, #212]	(e44c <_ZN7android22QualcommCameraHardwareC1Ev+0x270>)
    e378:	4479      	add	r1, pc
    e37a:	447a      	add	r2, pc
    e37c:	f7f9 ea28 	blx	77d0 <_ZN7android22QualcommCameraHardware18filterPictureSizesEv-0x51c>
    e380:	4e33      	ldr	r6, [pc, #204]	(e450 <_ZN7android22QualcommCameraHardwareC1Ev+0x274>)
    e382:	2100      	movs	r1, #0
    e384:	2220      	movs	r2, #32
    e386:	f504 7081 	add.w	r0, r4, #258	; 0x102
    e38a:	f7f9 eb90 	blx	7aac <_ZN7android22QualcommCameraHardware18filterPictureSizesEv-0x240>
    e38e:	447e      	add	r6, pc
    e390:	2100      	movs	r1, #0
    e392:	2224      	movs	r2, #36
    e394:	f504 709e 	add.w	r0, r4, #316	; 0x13c
    e398:	466f      	mov	r7, sp
    e39a:	f7f9 eb88 	blx	7aac <_ZN7android22QualcommCameraHardware18filterPictureSizesEv-0x240>
    e39e:	2100      	movs	r1, #0
    e3a0:	2210      	movs	r2, #16
    e3a2:	f506 708e 	add.w	r0, r6, #284	; 0x11c
    e3a6:	f7f9 eb82 	blx	7aac <_ZN7android22QualcommCameraHardware18filterPictureSizesEv-0x240>
    e3aa:	4620      	mov	r0, r4
    e3ac:	f7ff febe 	bl	e12c <_ZN7android22QualcommCameraHardware15storeTargetTypeEv>
    e3b0:	4828      	ldr	r0, [pc, #160]	(e454 <_ZN7android22QualcommCameraHardwareC1Ev+0x278>)
    e3b2:	4a29      	ldr	r2, [pc, #164]	(e458 <_ZN7android22QualcommCameraHardwareC1Ev+0x27c>)
    e3b4:	4669      	mov	r1, sp
    e3b6:	4478      	add	r0, pc
    e3b8:	447a      	add	r2, pc
    e3ba:	f7f9 eb84 	blx	7ac4 <_ZN7android22QualcommCameraHardware18filterPictureSizesEv-0x228>
    e3be:	4668      	mov	r0, sp
    e3c0:	f7f9 eb92 	blx	7ae8 <_ZN7android22QualcommCameraHardware18filterPictureSizesEv-0x204>
    e3c4:	4b25      	ldr	r3, [pc, #148]	(e45c <_ZN7android22QualcommCameraHardwareC1Ev+0x280>)
    e3c6:	447b      	add	r3, pc
    e3c8:	f8c4 01fc 	str.w	r0, [r4, #508]
    e3cc:	6818      	ldr	r0, [r3, #0]
    e3ce:	2803      	cmp	r0, #3
    e3d0:	d104      	bne.n	e3dc <_ZN7android22QualcommCameraHardwareC1Ev+0x200>
    e3d2:	2304      	movs	r3, #4
    e3d4:	f8c4 3200 	str.w	r3, [r4, #512]
    e3d8:	18db      	adds	r3, r3, r3
    e3da:	e006      	b.n	e3ea <_ZN7android22QualcommCameraHardwareC1Ev+0x20e>
    e3dc:	2206      	movs	r2, #6
    e3de:	f8c4 2200 	str.w	r2, [r4, #512]
    e3e2:	681b      	ldr	r3, [r3, #0]
    e3e4:	2b02      	cmp	r3, #2
    e3e6:	d106      	bne.n	e3f6 <_ZN7android22QualcommCameraHardwareC1Ev+0x21a>
    e3e8:	189b      	adds	r3, r3, r2
    e3ea:	67b3      	str	r3, [r6, #120]
    e3ec:	20e0      	movs	r0, #224
    e3ee:	f7f9 ea56 	blx	789c <_ZN7android22QualcommCameraHardware18filterPictureSizesEv-0x450>
    e3f2:	f8c4 01dc 	str.w	r0, [r4, #476]
    e3f6:	4a1a      	ldr	r2, [pc, #104]	(e460 <_ZN7android22QualcommCameraHardwareC1Ev+0x284>)
    e3f8:	447a      	add	r2, pc
    e3fa:	6812      	ldr	r2, [r2, #0]
    e3fc:	2a01      	cmp	r2, #1
    e3fe:	d101      	bne.n	e404 <_ZN7android22QualcommCameraHardwareC1Ev+0x228>
    e400:	2308      	movs	r3, #8
    e402:	e000      	b.n	e406 <_ZN7android22QualcommCameraHardwareC1Ev+0x22a>
    e404:	2300      	movs	r3, #0
    e406:	4917      	ldr	r1, [pc, #92]	(e464 <_ZN7android22QualcommCameraHardwareC1Ev+0x288>)
    e408:	2002      	movs	r0, #2
    e40a:	4a17      	ldr	r2, [pc, #92]	(e468 <_ZN7android22QualcommCameraHardwareC1Ev+0x28c>)
    e40c:	6063      	str	r3, [r4, #4]
    e40e:	4479      	add	r1, pc
    e410:	447a      	add	r2, pc
    e412:	f7f9 e9de 	blx	77d0 <_ZN7android22QualcommCameraHardware18filterPictureSizesEv-0x51c>
    e416:	f8df c01c 	ldr.w	ip, [pc, #28]	; e434 <_ZN7android22QualcommCameraHardwareC1Ev+0x258>
    e41a:	9917      	ldr	r1, [sp, #92]
    e41c:	4620      	mov	r0, r4
    e41e:	f855 200c 	ldr.w	r2, [r5, ip]
    e422:	6813      	ldr	r3, [r2, #0]
    e424:	4299      	cmp	r1, r3
    e426:	d001      	beq.n	e42c <_ZN7android22QualcommCameraHardwareC1Ev+0x250>
    e428:	f7f9 ea0e 	blx	7848 <_ZN7android22QualcommCameraHardware18filterPictureSizesEv-0x4a4>
    e42c:	b019      	add	sp, #100
    e42e:	bdf0      	pop	{r4, r5, r6, r7, pc}
    e430:	650e      	str	r6, [r1, #80]
    e432:	0000      	lsls	r0, r0, #0
    e434:	fe80 ffff 	mcr2	15, 4, pc, cr0, cr15, {7}
    e438:	ff30 ffff 	undefined
    e43c:	ff2c ffff 	undefined
    e440:	ff68 ffff 	undefined
    e444:	ff6c ffff 	undefined
    e448:	2017      	movs	r0, #23
    e44a:	0000      	lsls	r0, r0, #0
    e44c:	4be0      	ldr	r3, [pc, #896]	(e7d0 <_ZN7android22QualcommCameraHardwareC2Ev+0x364>)
    e44e:	0000      	lsls	r0, r0, #0
    e450:	65ce      	str	r6, [r1, #92]
    e452:	0000      	lsls	r0, r0, #0
    e454:	4bc7      	ldr	r3, [pc, #796]	(e774 <_ZN7android22QualcommCameraHardwareC2Ev+0x308>)
    e456:	0000      	lsls	r0, r0, #0
    e458:	4bde      	ldr	r3, [pc, #888]	(e7d4 <_ZN7android22QualcommCameraHardwareC2Ev+0x368>)
    e45a:	0000      	lsls	r0, r0, #0
    e45c:	64fe      	str	r6, [r7, #76]
    e45e:	0000      	lsls	r0, r0, #0
    e460:	64cc      	str	r4, [r1, #76]
    e462:	0000      	lsls	r0, r0, #0
    e464:	1f81      	subs	r1, r0, #6
    e466:	0000      	lsls	r0, r0, #0
    e468:	4b88      	ldr	r3, [pc, #544]	(e68c <_ZN7android22QualcommCameraHardwareC2Ev+0x220>)
	...

0000e46c <_ZN7android22QualcommCameraHardwareC2Ev>:
    e46c:	b5f0      	push	{r4, r5, r6, r7, lr}
    e46e:	4d8e      	ldr	r5, [pc, #568]	(e6a8 <_ZN7android22QualcommCameraHardwareC2Ev+0x23c>)
    e470:	f8df c238 	ldr.w	ip, [pc, #568]	; e6ac <_ZN7android22QualcommCameraHardwareC2Ev+0x240>
    e474:	4604      	mov	r4, r0
    e476:	447d      	add	r5, pc
    e478:	b099      	sub	sp, #100
    e47a:	f855 600c 	ldr.w	r6, [r5, ip]
    e47e:	6830      	ldr	r0, [r6, #0]
    e480:	9017      	str	r0, [sp, #92]
    e482:	684a      	ldr	r2, [r1, #4]
    e484:	6022      	str	r2, [r4, #0]
    e486:	f852 3c0c 	ldr.w	r3, [r2, #-12]
    e48a:	688f      	ldr	r7, [r1, #8]
    e48c:	50e7      	str	r7, [r4, r3]
    e48e:	f04f 37ff 	mov.w	r7, #4294967295	; 0xffffffff
    e492:	680e      	ldr	r6, [r1, #0]
    e494:	6026      	str	r6, [r4, #0]
    e496:	68ca      	ldr	r2, [r1, #12]
    e498:	f856 0c0c 	ldr.w	r0, [r6, #-12]
    e49c:	2600      	movs	r6, #0
    e49e:	5022      	str	r2, [r4, r0]
    e4a0:	f104 0008 	add.w	r0, r4, #8	; 0x8
    e4a4:	f7f9 eb1a 	blx	7adc <_ZN7android22QualcommCameraHardware18filterPictureSizesEv-0x210>
    e4a8:	f884 6024 	strb.w	r6, [r4, #36]
    e4ac:	f104 0028 	add.w	r0, r4, #40	; 0x28
    e4b0:	f7f9 fd04 	bl	7ebc <_ZNK7android12SortedVectorINS_16key_value_pair_tINS_7String8ES2_EEE10do_destroyEPvj+0x18>
    e4b4:	f884 602c 	strb.w	r6, [r4, #44]
    e4b8:	6326      	str	r6, [r4, #48]
    e4ba:	f104 0058 	add.w	r0, r4, #88	; 0x58
    e4be:	6366      	str	r6, [r4, #52]
    e4c0:	63a6      	str	r6, [r4, #56]
    e4c2:	63e6      	str	r6, [r4, #60]
    e4c4:	6426      	str	r6, [r4, #64]
    e4c6:	6466      	str	r6, [r4, #68]
    e4c8:	64a6      	str	r6, [r4, #72]
    e4ca:	64e6      	str	r6, [r4, #76]
    e4cc:	6526      	str	r6, [r4, #80]
    e4ce:	f884 6054 	strb.w	r6, [r4, #84]
    e4d2:	f7f9 fcf3 	bl	7ebc <_ZNK7android12SortedVectorINS_16key_value_pair_tINS_7String8ES2_EEE10do_destroyEPvj+0x18>
    e4d6:	f104 005c 	add.w	r0, r4, #92	; 0x5c
    e4da:	f7f9 fcf7 	bl	7ecc <_ZNK7android12SortedVectorINS_16key_value_pair_tINS_7String8ES2_EEE10do_destroyEPvj+0x28>
    e4de:	f884 6061 	strb.w	r6, [r4, #97]
    e4e2:	f104 0064 	add.w	r0, r4, #100	; 0x64
    e4e6:	f7f9 fce9 	bl	7ebc <_ZNK7android12SortedVectorINS_16key_value_pair_tINS_7String8ES2_EEE10do_destroyEPvj+0x18>
    e4ea:	f104 0068 	add.w	r0, r4, #104	; 0x68
    e4ee:	f7f9 fced 	bl	7ecc <_ZNK7android12SortedVectorINS_16key_value_pair_tINS_7String8ES2_EEE10do_destroyEPvj+0x28>
    e4f2:	f104 0070 	add.w	r0, r4, #112	; 0x70
    e4f6:	f7f9 fce1 	bl	7ebc <_ZNK7android12SortedVectorINS_16key_value_pair_tINS_7String8ES2_EEE10do_destroyEPvj+0x18>
    e4fa:	f884 6074 	strb.w	r6, [r4, #116]
    e4fe:	f104 0078 	add.w	r0, r4, #120	; 0x78
    e502:	f7f9 fcdb 	bl	7ebc <_ZNK7android12SortedVectorINS_16key_value_pair_tINS_7String8ES2_EEE10do_destroyEPvj+0x18>
    e506:	f104 007c 	add.w	r0, r4, #124	; 0x7c
    e50a:	f7f9 fcdf 	bl	7ecc <_ZNK7android12SortedVectorINS_16key_value_pair_tINS_7String8ES2_EEE10do_destroyEPvj+0x28>
    e50e:	f104 0080 	add.w	r0, r4, #128	; 0x80
    e512:	f7f9 fcd3 	bl	7ebc <_ZNK7android12SortedVectorINS_16key_value_pair_tINS_7String8ES2_EEE10do_destroyEPvj+0x18>
    e516:	f884 6084 	strb.w	r6, [r4, #132]
    e51a:	f104 0088 	add.w	r0, r4, #136	; 0x88
    e51e:	f7f9 fccd 	bl	7ebc <_ZNK7android12SortedVectorINS_16key_value_pair_tINS_7String8ES2_EEE10do_destroyEPvj+0x18>
    e522:	f104 008c 	add.w	r0, r4, #140	; 0x8c
    e526:	f7f9 fcd1 	bl	7ecc <_ZNK7android12SortedVectorINS_16key_value_pair_tINS_7String8ES2_EEE10do_destroyEPvj+0x28>
    e52a:	f884 6090 	strb.w	r6, [r4, #144]
    e52e:	f104 0094 	add.w	r0, r4, #148	; 0x94
    e532:	f7f9 fcc3 	bl	7ebc <_ZNK7android12SortedVectorINS_16key_value_pair_tINS_7String8ES2_EEE10do_destroyEPvj+0x18>
    e536:	f104 0098 	add.w	r0, r4, #152	; 0x98
    e53a:	f7f9 fcc7 	bl	7ecc <_ZNK7android12SortedVectorINS_16key_value_pair_tINS_7String8ES2_EEE10do_destroyEPvj+0x28>
    e53e:	f8c4 609c 	str.w	r6, [r4, #156]
    e542:	f104 00a0 	add.w	r0, r4, #160	; 0xa0
    e546:	f7f9 fcb9 	bl	7ebc <_ZNK7android12SortedVectorINS_16key_value_pair_tINS_7String8ES2_EEE10do_destroyEPvj+0x18>
    e54a:	f104 00a4 	add.w	r0, r4, #164	; 0xa4
    e54e:	f7f9 fcb5 	bl	7ebc <_ZNK7android12SortedVectorINS_16key_value_pair_tINS_7String8ES2_EEE10do_destroyEPvj+0x18>
    e552:	f884 60a9 	strb.w	r6, [r4, #169]
    e556:	f104 00ac 	add.w	r0, r4, #172	; 0xac
    e55a:	f7f9 fcaf 	bl	7ebc <_ZNK7android12SortedVectorINS_16key_value_pair_tINS_7String8ES2_EEE10do_destroyEPvj+0x18>
    e55e:	f104 00b0 	add.w	r0, r4, #176	; 0xb0
    e562:	f7f9 fcab 	bl	7ebc <_ZNK7android12SortedVectorINS_16key_value_pair_tINS_7String8ES2_EEE10do_destroyEPvj+0x18>
    e566:	f104 00b4 	add.w	r0, r4, #180	; 0xb4
    e56a:	f7f9 fca7 	bl	7ebc <_ZNK7android12SortedVectorINS_16key_value_pair_tINS_7String8ES2_EEE10do_destroyEPvj+0x18>
    e56e:	f104 00b8 	add.w	r0, r4, #184	; 0xb8
    e572:	f7f9 fca3 	bl	7ebc <_ZNK7android12SortedVectorINS_16key_value_pair_tINS_7String8ES2_EEE10do_destroyEPvj+0x18>
    e576:	f104 00bc 	add.w	r0, r4, #188	; 0xbc
    e57a:	f7f9 fca7 	bl	7ecc <_ZNK7android12SortedVectorINS_16key_value_pair_tINS_7String8ES2_EEE10do_destroyEPvj+0x28>
    e57e:	f104 00c0 	add.w	r0, r4, #192	; 0xc0
    e582:	f7f9 fca3 	bl	7ecc <_ZNK7android12SortedVectorINS_16key_value_pair_tINS_7String8ES2_EEE10do_destroyEPvj+0x28>
    e586:	f8c4 60c8 	str.w	r6, [r4, #200]
    e58a:	f8c4 60d0 	str.w	r6, [r4, #208]
    e58e:	f504 7092 	add.w	r0, r4, #292	; 0x124
    e592:	f8c4 70dc 	str.w	r7, [r4, #220]
    e596:	f884 6122 	strb.w	r6, [r4, #290]
    e59a:	f7f9 fc8f 	bl	7ebc <_ZNK7android12SortedVectorINS_16key_value_pair_tINS_7String8ES2_EEE10do_destroyEPvj+0x18>
    e59e:	f8c4 7128 	str.w	r7, [r4, #296]
    e5a2:	f504 7096 	add.w	r0, r4, #300	; 0x12c
    e5a6:	f7f9 fc89 	bl	7ebc <_ZNK7android12SortedVectorINS_16key_value_pair_tINS_7String8ES2_EEE10do_destroyEPvj+0x18>
    e5aa:	4941      	ldr	r1, [pc, #260]	(e6b0 <_ZN7android22QualcommCameraHardwareC2Ev+0x244>)
    e5ac:	4b41      	ldr	r3, [pc, #260]	(e6b4 <_ZN7android22QualcommCameraHardwareC2Ev+0x248>)
    e5ae:	f884 6160 	strb.w	r6, [r4, #352]
    e5b2:	5868      	ldr	r0, [r5, r1]
    e5b4:	4631      	mov	r1, r6
    e5b6:	58ea      	ldr	r2, [r5, r3]
    e5b8:	4633      	mov	r3, r6
    e5ba:	f8c4 6164 	str.w	r6, [r4, #356]
    e5be:	f8c4 6168 	str.w	r6, [r4, #360]
    e5c2:	f884 61e0 	strb.w	r6, [r4, #480]
    e5c6:	f884 61e1 	strb.w	r6, [r4, #481]
    e5ca:	f8c4 61e4 	str.w	r6, [r4, #484]
    e5ce:	f8c4 61e8 	str.w	r6, [r4, #488]
    e5d2:	f8c4 61ec 	str.w	r6, [r4, #492]
    e5d6:	f8c4 61f0 	str.w	r6, [r4, #496]
    e5da:	f8c4 61f4 	str.w	r6, [r4, #500]
    e5de:	f8c4 61f8 	str.w	r6, [r4, #504]
    e5e2:	f8c4 61fc 	str.w	r6, [r4, #508]
    e5e6:	f7f9 e9d8 	blx	7998 <_ZN7android22QualcommCameraHardware18filterPictureSizesEv-0x354>
    e5ea:	b130      	cbz	r0, e5fa <_ZN7android22QualcommCameraHardwareC2Ev+0x18e>
    e5ec:	4932      	ldr	r1, [pc, #200]	(e6b8 <_ZN7android22QualcommCameraHardwareC2Ev+0x24c>)
    e5ee:	2006      	movs	r0, #6
    e5f0:	4a32      	ldr	r2, [pc, #200]	(e6bc <_ZN7android22QualcommCameraHardwareC2Ev+0x250>)
    e5f2:	4479      	add	r1, pc
    e5f4:	447a      	add	r2, pc
    e5f6:	f7f9 e8ec 	blx	77d0 <_ZN7android22QualcommCameraHardware18filterPictureSizesEv-0x51c>
    e5fa:	4e31      	ldr	r6, [pc, #196]	(e6c0 <_ZN7android22QualcommCameraHardwareC2Ev+0x254>)
    e5fc:	2100      	movs	r1, #0
    e5fe:	2220      	movs	r2, #32
    e600:	f504 7081 	add.w	r0, r4, #258	; 0x102
    e604:	f7f9 ea52 	blx	7aac <_ZN7android22QualcommCameraHardware18filterPictureSizesEv-0x240>
    e608:	447e      	add	r6, pc
    e60a:	2100      	movs	r1, #0
    e60c:	2224      	movs	r2, #36
    e60e:	f504 709e 	add.w	r0, r4, #316	; 0x13c
    e612:	466f      	mov	r7, sp
    e614:	f7f9 ea4a 	blx	7aac <_ZN7android22QualcommCameraHardware18filterPictureSizesEv-0x240>
    e618:	2100      	movs	r1, #0
    e61a:	2210      	movs	r2, #16
    e61c:	f506 708e 	add.w	r0, r6, #284	; 0x11c
    e620:	f7f9 ea44 	blx	7aac <_ZN7android22QualcommCameraHardware18filterPictureSizesEv-0x240>
    e624:	4620      	mov	r0, r4
    e626:	f7ff fd81 	bl	e12c <_ZN7android22QualcommCameraHardware15storeTargetTypeEv>
    e62a:	4826      	ldr	r0, [pc, #152]	(e6c4 <_ZN7android22QualcommCameraHardwareC2Ev+0x258>)
    e62c:	4a26      	ldr	r2, [pc, #152]	(e6c8 <_ZN7android22QualcommCameraHardwareC2Ev+0x25c>)
    e62e:	4669      	mov	r1, sp
    e630:	4478      	add	r0, pc
    e632:	447a      	add	r2, pc
    e634:	f7f9 ea46 	blx	7ac4 <_ZN7android22QualcommCameraHardware18filterPictureSizesEv-0x228>
    e638:	4668      	mov	r0, sp
    e63a:	f7f9 ea56 	blx	7ae8 <_ZN7android22QualcommCameraHardware18filterPictureSizesEv-0x204>
    e63e:	4b23      	ldr	r3, [pc, #140]	(e6cc <_ZN7android22QualcommCameraHardwareC2Ev+0x260>)
    e640:	f8c4 01fc 	str.w	r0, [r4, #508]
    e644:	447b      	add	r3, pc
    e646:	681b      	ldr	r3, [r3, #0]
    e648:	2b03      	cmp	r3, #3
    e64a:	d104      	bne.n	e656 <_ZN7android22QualcommCameraHardwareC2Ev+0x1ea>
    e64c:	1c59      	adds	r1, r3, #1
    e64e:	f8c4 1200 	str.w	r1, [r4, #512]
    e652:	1d0b      	adds	r3, r1, #4
    e654:	e005      	b.n	e662 <_ZN7android22QualcommCameraHardwareC2Ev+0x1f6>
    e656:	2206      	movs	r2, #6
    e658:	2b02      	cmp	r3, #2
    e65a:	f8c4 2200 	str.w	r2, [r4, #512]
    e65e:	d106      	bne.n	e66e <_ZN7android22QualcommCameraHardwareC2Ev+0x202>
    e660:	189b      	adds	r3, r3, r2
    e662:	67b3      	str	r3, [r6, #120]
    e664:	20e0      	movs	r0, #224
    e666:	f7f9 e91a 	blx	789c <_ZN7android22QualcommCameraHardware18filterPictureSizesEv-0x450>
    e66a:	f8c4 01dc 	str.w	r0, [r4, #476]
    e66e:	4b18      	ldr	r3, [pc, #96]	(e6d0 <_ZN7android22QualcommCameraHardwareC2Ev+0x264>)
    e670:	447b      	add	r3, pc
    e672:	681b      	ldr	r3, [r3, #0]
    e674:	2b01      	cmp	r3, #1
    e676:	d101      	bne.n	e67c <_ZN7android22QualcommCameraHardwareC2Ev+0x210>
    e678:	2308      	movs	r3, #8
    e67a:	e000      	b.n	e67e <_ZN7android22QualcommCameraHardwareC2Ev+0x212>
    e67c:	2300      	movs	r3, #0
    e67e:	4915      	ldr	r1, [pc, #84]	(e6d4 <_ZN7android22QualcommCameraHardwareC2Ev+0x268>)
    e680:	2002      	movs	r0, #2
    e682:	4a15      	ldr	r2, [pc, #84]	(e6d8 <_ZN7android22QualcommCameraHardwareC2Ev+0x26c>)
    e684:	6063      	str	r3, [r4, #4]
    e686:	4479      	add	r1, pc
    e688:	447a      	add	r2, pc
    e68a:	f7f9 e8a2 	blx	77d0 <_ZN7android22QualcommCameraHardware18filterPictureSizesEv-0x51c>
    e68e:	f8df c01c 	ldr.w	ip, [pc, #28]	; e6ac <_ZN7android22QualcommCameraHardwareC2Ev+0x240>
    e692:	9a17      	ldr	r2, [sp, #92]
    e694:	4620      	mov	r0, r4
    e696:	f855 300c 	ldr.w	r3, [r5, ip]
    e69a:	6819      	ldr	r1, [r3, #0]
    e69c:	428a      	cmp	r2, r1
    e69e:	d001      	beq.n	e6a4 <_ZN7android22QualcommCameraHardwareC2Ev+0x238>
    e6a0:	f7f9 e8d2 	blx	7848 <_ZN7android22QualcommCameraHardware18filterPictureSizesEv-0x4a4>
    e6a4:	b019      	add	sp, #100
    e6a6:	bdf0      	pop	{r4, r5, r6, r7, pc}
    e6a8:	627e      	str	r6, [r7, #36]
    e6aa:	0000      	lsls	r0, r0, #0
    e6ac:	fe80 ffff 	mcr2	15, 4, pc, cr0, cr15, {7}
    e6b0:	ff68 ffff 	undefined
    e6b4:	ff6c ffff 	undefined
    e6b8:	1d9d      	adds	r5, r3, #6
    e6ba:	0000      	lsls	r0, r0, #0
    e6bc:	4966      	ldr	r1, [pc, #408]	(e858 <_ZN7android22QualcommCameraHardwareC2Ev+0x3ec>)
    e6be:	0000      	lsls	r0, r0, #0
    e6c0:	6354      	str	r4, [r2, #52]
    e6c2:	0000      	lsls	r0, r0, #0
    e6c4:	494d      	ldr	r1, [pc, #308]	(e7fc <_ZN7android22QualcommCameraHardwareC2Ev+0x390>)
    e6c6:	0000      	lsls	r0, r0, #0
    e6c8:	4964      	ldr	r1, [pc, #400]	(e85c <_ZN7android22QualcommCameraHardwareC2Ev+0x3f0>)
    e6ca:	0000      	lsls	r0, r0, #0
    e6cc:	6280      	str	r0, [r0, #40]
    e6ce:	0000      	lsls	r0, r0, #0
    e6d0:	6254      	str	r4, [r2, #36]
    e6d2:	0000      	lsls	r0, r0, #0
    e6d4:	1d09      	adds	r1, r1, #4
    e6d6:	0000      	lsls	r0, r0, #0
    e6d8:	4910      	ldr	r1, [pc, #64]	(e71c <_ZN7android22QualcommCameraHardwareC2Ev+0x2b0>)
    e6da:	0000      	lsls	r0, r0, #0
    e6dc:	0000      	lsls	r0, r0, #0
    e6de:	0000      	lsls	r0, r0, #0
    e6e0:	e92d 41f0 	stmdb	sp!, {r4, r5, r6, r7, r8, lr}
    e6e4:	4c5a      	ldr	r4, [pc, #360]	(e850 <_ZN7android22QualcommCameraHardwareC2Ev+0x3e4>)
    e6e6:	4f5b      	ldr	r7, [pc, #364]	(e854 <_ZN7android22QualcommCameraHardwareC2Ev+0x3e8>)
    e6e8:	447c      	add	r4, pc
    e6ea:	4d5b      	ldr	r5, [pc, #364]	(e858 <_ZN7android22QualcommCameraHardwareC2Ev+0x3ec>)
    e6ec:	f504 7896 	add.w	r8, r4, #300	; 0x12c
    e6f0:	447f      	add	r7, pc
    e6f2:	4640      	mov	r0, r8
    e6f4:	f7f9 e842 	blx	777c <_ZN7android22QualcommCameraHardware18filterPictureSizesEv-0x570>
    e6f8:	f8df c160 	ldr.w	ip, [pc, #352]	; e85c <_ZN7android22QualcommCameraHardwareC2Ev+0x3f0>
    e6fc:	597e      	ldr	r6, [r7, r5]
    e6fe:	4640      	mov	r0, r8
    e700:	f504 7898 	add.w	r8, r4, #304	; 0x130
    e704:	f857 500c 	ldr.w	r5, [r7, ip]
    e708:	4631      	mov	r1, r6
    e70a:	462a      	mov	r2, r5
    e70c:	f7f9 e9f2 	blx	7af4 <_ZN7android22QualcommCameraHardware18filterPictureSizesEv-0x1f8>
    e710:	4640      	mov	r0, r8
    e712:	f7f9 e834 	blx	777c <_ZN7android22QualcommCameraHardware18filterPictureSizesEv-0x570>
    e716:	4631      	mov	r1, r6
    e718:	462a      	mov	r2, r5
    e71a:	4640      	mov	r0, r8
    e71c:	f504 789a 	add.w	r8, r4, #308	; 0x134
    e720:	f7f9 e9e8 	blx	7af4 <_ZN7android22QualcommCameraHardware18filterPictureSizesEv-0x1f8>
    e724:	4640      	mov	r0, r8
    e726:	f7f9 e82a 	blx	777c <_ZN7android22QualcommCameraHardware18filterPictureSizesEv-0x570>
    e72a:	4631      	mov	r1, r6
    e72c:	462a      	mov	r2, r5
    e72e:	4640      	mov	r0, r8
    e730:	f504 789c 	add.w	r8, r4, #312	; 0x138
    e734:	f7f9 e9de 	blx	7af4 <_ZN7android22QualcommCameraHardware18filterPictureSizesEv-0x1f8>
    e738:	4640      	mov	r0, r8
    e73a:	f7f9 e820 	blx	777c <_ZN7android22QualcommCameraHardware18filterPictureSizesEv-0x570>
    e73e:	4631      	mov	r1, r6
    e740:	462a      	mov	r2, r5
    e742:	4640      	mov	r0, r8
    e744:	f504 789e 	add.w	r8, r4, #316	; 0x13c
    e748:	f7f9 e9d4 	blx	7af4 <_ZN7android22QualcommCameraHardware18filterPictureSizesEv-0x1f8>
    e74c:	4640      	mov	r0, r8
    e74e:	f7f9 e816 	blx	777c <_ZN7android22QualcommCameraHardware18filterPictureSizesEv-0x570>
    e752:	4631      	mov	r1, r6
    e754:	462a      	mov	r2, r5
    e756:	4640      	mov	r0, r8
    e758:	f504 78a0 	add.w	r8, r4, #320	; 0x140
    e75c:	f7f9 e9ca 	blx	7af4 <_ZN7android22QualcommCameraHardware18filterPictureSizesEv-0x1f8>
    e760:	4640      	mov	r0, r8
    e762:	f7f9 e80c 	blx	777c <_ZN7android22QualcommCameraHardware18filterPictureSizesEv-0x570>
    e766:	4631      	mov	r1, r6
    e768:	462a      	mov	r2, r5
    e76a:	4640      	mov	r0, r8
    e76c:	f504 78a2 	add.w	r8, r4, #324	; 0x144
    e770:	f7f9 e9c0 	blx	7af4 <_ZN7android22QualcommCameraHardware18filterPictureSizesEv-0x1f8>
    e774:	4640      	mov	r0, r8
    e776:	f7f9 e802 	blx	777c <_ZN7android22QualcommCameraHardware18filterPictureSizesEv-0x570>
    e77a:	4631      	mov	r1, r6
    e77c:	462a      	mov	r2, r5
    e77e:	4640      	mov	r0, r8
    e780:	f504 78a4 	add.w	r8, r4, #328	; 0x148
    e784:	f7f9 e9b6 	blx	7af4 <_ZN7android22QualcommCameraHardware18filterPictureSizesEv-0x1f8>
    e788:	4640      	mov	r0, r8
    e78a:	f7f8 eff8 	blx	777c <_ZN7android22QualcommCameraHardware18filterPictureSizesEv-0x570>
    e78e:	4631      	mov	r1, r6
    e790:	462a      	mov	r2, r5
    e792:	4640      	mov	r0, r8
    e794:	f504 78a6 	add.w	r8, r4, #332	; 0x14c
    e798:	f7f9 e9ac 	blx	7af4 <_ZN7android22QualcommCameraHardware18filterPictureSizesEv-0x1f8>
    e79c:	4640      	mov	r0, r8
    e79e:	f7f8 efee 	blx	777c <_ZN7android22QualcommCameraHardware18filterPictureSizesEv-0x570>
    e7a2:	4631      	mov	r1, r6
    e7a4:	462a      	mov	r2, r5
    e7a6:	4640      	mov	r0, r8
    e7a8:	f504 78a8 	add.w	r8, r4, #336	; 0x150
    e7ac:	f7f9 e9a2 	blx	7af4 <_ZN7android22QualcommCameraHardware18filterPictureSizesEv-0x1f8>
    e7b0:	4640      	mov	r0, r8
    e7b2:	f7f8 efe4 	blx	777c <_ZN7android22QualcommCameraHardware18filterPictureSizesEv-0x570>
    e7b6:	4631      	mov	r1, r6
    e7b8:	462a      	mov	r2, r5
    e7ba:	4640      	mov	r0, r8
    e7bc:	f504 78aa 	add.w	r8, r4, #340	; 0x154
    e7c0:	f7f9 e998 	blx	7af4 <_ZN7android22QualcommCameraHardware18filterPictureSizesEv-0x1f8>
    e7c4:	4640      	mov	r0, r8
    e7c6:	f7f8 efda 	blx	777c <_ZN7android22QualcommCameraHardware18filterPictureSizesEv-0x570>
    e7ca:	4631      	mov	r1, r6
    e7cc:	462a      	mov	r2, r5
    e7ce:	4640      	mov	r0, r8
    e7d0:	f504 78ac 	add.w	r8, r4, #344	; 0x158
    e7d4:	f7f9 e98e 	blx	7af4 <_ZN7android22QualcommCameraHardware18filterPictureSizesEv-0x1f8>
    e7d8:	4640      	mov	r0, r8
    e7da:	f7f8 efd0 	blx	777c <_ZN7android22QualcommCameraHardware18filterPictureSizesEv-0x570>
    e7de:	4631      	mov	r1, r6
    e7e0:	462a      	mov	r2, r5
    e7e2:	f504 7684 	add.w	r6, r4, #264	; 0x108
    e7e6:	4640      	mov	r0, r8
    e7e8:	f7f9 e984 	blx	7af4 <_ZN7android22QualcommCameraHardware18filterPictureSizesEv-0x1f8>
    e7ec:	4630      	mov	r0, r6
    e7ee:	f7f9 fb65 	bl	7ebc <_ZNK7android12SortedVectorINS_16key_value_pair_tINS_7String8ES2_EEE10do_destroyEPvj+0x18>
    e7f2:	491b      	ldr	r1, [pc, #108]	(e860 <_ZN7android22QualcommCameraHardwareC2Ev+0x3f4>)
    e7f4:	462a      	mov	r2, r5
    e7f6:	4630      	mov	r0, r6
    e7f8:	4479      	add	r1, pc
    e7fa:	f7f9 e97c 	blx	7af4 <_ZN7android22QualcommCameraHardware18filterPictureSizesEv-0x1f8>
    e7fe:	a310      	add	r3, pc, #64	(adr r3, e840 <_ZN7android22QualcommCameraHardwareC2Ev+0x3d4>)
    e800:	e9d3 2300 	ldrd	r2, r3, [r3]
    e804:	a110      	add	r1, pc, #64	(adr r1, e848 <_ZN7android22QualcommCameraHardwareC2Ev+0x3dc>)
    e806:	e9d1 0100 	ldrd	r0, r1, [r1]
    e80a:	e9c4 235a 	strd	r2, r3, [r4, #360]
    e80e:	e9c4 0158 	strd	r0, r1, [r4, #352]
    e812:	f504 748c 	add.w	r4, r4, #280	; 0x118
    e816:	4620      	mov	r0, r4
    e818:	f7f9 fb58 	bl	7ecc <_ZNK7android12SortedVectorINS_16key_value_pair_tINS_7String8ES2_EEE10do_destroyEPvj+0x28>
    e81c:	4911      	ldr	r1, [pc, #68]	(e864 <_ZN7android22QualcommCameraHardwareC2Ev+0x3f8>)
    e81e:	462a      	mov	r2, r5
    e820:	4620      	mov	r0, r4
    e822:	4479      	add	r1, pc
    e824:	f7f9 e966 	blx	7af4 <_ZN7android22QualcommCameraHardware18filterPictureSizesEv-0x1f8>
    e828:	4a0f      	ldr	r2, [pc, #60]	(e868 <_ZN7android22QualcommCameraHardwareC2Ev+0x3fc>)
    e82a:	4b10      	ldr	r3, [pc, #64]	(e86c <_ZN7android22QualcommCameraHardwareC2Ev+0x400>)
    e82c:	2100      	movs	r1, #0
    e82e:	58b8      	ldr	r0, [r7, r2]
    e830:	462a      	mov	r2, r5
    e832:	6001      	str	r1, [r0, #0]
    e834:	58f9      	ldr	r1, [r7, r3]
    e836:	f7f9 e95e 	blx	7af4 <_ZN7android22QualcommCameraHardware18filterPictureSizesEv-0x1f8>
    e83a:	e8bd 81f0 	ldmia.w	sp!, {r4, r5, r6, r7, r8, pc}
    e83e:	bf00      	nop
    e840:	ca00      	ldmia	r2!, {}
    e842:	3b9a      	subs	r3, #154
    e844:	0000      	lsls	r0, r0, #0
    e846:	0000      	lsls	r0, r0, #0
    e848:	f200 2a05 	addw	sl, r0, #517	; 0x205
    e84c:	0001      	lsls	r1, r0, #0
    e84e:	0000      	lsls	r0, r0, #0
    e850:	6274      	str	r4, [r6, #36]
    e852:	0000      	lsls	r0, r0, #0
    e854:	6004      	str	r4, [r0, #0]
    e856:	0000      	lsls	r0, r0, #0
    e858:	ff70 ffff 	undefined
    e85c:	ff74 ffff 	undefined
    e860:	9701      	str	r7, [sp, #4]
    e862:	ffff 96cb 	vcvt.f<illegal width 64>.u<illegal width 64>	<illegal reg q12.5>, <illegal reg q5.5>
    e866:	ffff ff0c 	undefined
    e86a:	ffff ff78 	vcvt.u32.f32	<illegal reg q15.5>, q12, #1
    e86e:	ffff b510 	vsli.32	d27, d0, #31
    e872:	f7ff ff35 	bl	e6e0 <_ZN7android22QualcommCameraHardwareC2Ev+0x274>
    e876:	bd10      	pop	{r4, pc}
    e878:	b500      	push	{lr}
    e87a:	ed2d 8b02 	vstmdb	sp!, {d8}
    e87e:	a310      	add	r3, pc, #64	(adr r3, e8c0 <_ZN7android22QualcommCameraHardwareC2Ev+0x454>)
    e880:	e9d3 2300 	ldrd	r2, r3, [r3]
    e884:	ec41 0b18 	vmov	d8, r0, r1
    e888:	b083      	sub	sp, #12
    e88a:	f7f9 e93a 	blx	7b00 <_ZN7android22QualcommCameraHardware18filterPictureSizesEv-0x1ec>
    e88e:	a30c      	add	r3, pc, #48	(adr r3, e8c0 <_ZN7android22QualcommCameraHardwareC2Ev+0x454>)
    e890:	e9d3 2300 	ldrd	r2, r3, [r3]
    e894:	9000      	str	r0, [sp, #0]
    e896:	ec51 0b18 	vmov	r0, r1, d8
    e89a:	f7f9 e932 	blx	7b00 <_ZN7android22QualcommCameraHardware18filterPictureSizesEv-0x1ec>
    e89e:	490a      	ldr	r1, [pc, #40]	(e8c8 <_ZN7android22QualcommCameraHardwareC2Ev+0x45c>)
    e8a0:	4479      	add	r1, pc
    e8a2:	f501 708c 	add.w	r0, r1, #280	; 0x118
    e8a6:	f501 7184 	add.w	r1, r1, #264	; 0x108
    e8aa:	9201      	str	r2, [sp, #4]
    e8ac:	466a      	mov	r2, sp
    e8ae:	f7f9 e92e 	blx	7b0c <_ZN7android22QualcommCameraHardware18filterPictureSizesEv-0x1e0>
    e8b2:	4240      	negs	r0, r0
    e8b4:	b003      	add	sp, #12
    e8b6:	ecbd 8b02 	vldmia	sp!, {d8}
    e8ba:	bd00      	pop	{pc}
    e8bc:	f3af 8000 	nop.w
    e8c0:	ca00      	ldmia	r2!, {}
    e8c2:	3b9a      	subs	r3, #154
    e8c4:	0000      	lsls	r0, r0, #0
    e8c6:	0000      	lsls	r0, r0, #0
    e8c8:	60bc      	str	r4, [r7, #8]
    e8ca:	0000      	lsls	r0, r0, #0
    e8cc:	f3af 8000 	nop.w
    e8d0:	e92d 41f0 	stmdb	sp!, {r4, r5, r6, r7, r8, lr}
    e8d4:	4c1a      	ldr	r4, [pc, #104]	(e940 <_ZN7android22QualcommCameraHardwareC2Ev+0x4d4>)
    e8d6:	491b      	ldr	r1, [pc, #108]	(e944 <_ZN7android22QualcommCameraHardwareC2Ev+0x4d8>)
    e8d8:	4605      	mov	r5, r0
    e8da:	447c      	add	r4, pc
    e8dc:	b08a      	sub	sp, #40
    e8de:	f10d 0804 	add.w	r8, sp, #4	; 0x4
    e8e2:	4f19      	ldr	r7, [pc, #100]	(e948 <_ZN7android22QualcommCameraHardwareC2Ev+0x4dc>)
    e8e4:	5860      	ldr	r0, [r4, r1]
    e8e6:	260b      	movs	r6, #11
    e8e8:	447f      	add	r7, pc
    e8ea:	6803      	ldr	r3, [r0, #0]
    e8ec:	4628      	mov	r0, r5
    e8ee:	9309      	str	r3, [sp, #36]
    e8f0:	f7f8 ef44 	blx	777c <_ZN7android22QualcommCameraHardware18filterPictureSizesEv-0x570>
    e8f4:	4a15      	ldr	r2, [pc, #84]	(e94c <_ZN7android22QualcommCameraHardwareC2Ev+0x4e0>)
    e8f6:	2120      	movs	r1, #32
    e8f8:	230a      	movs	r3, #10
    e8fa:	4640      	mov	r0, r8
    e8fc:	447a      	add	r2, pc
    e8fe:	f7f8 ef92 	blx	7824 <_ZN7android22QualcommCameraHardware18filterPictureSizesEv-0x4c8>
    e902:	4628      	mov	r0, r5
    e904:	4641      	mov	r1, r8
    e906:	f7f8 ef88 	blx	7818 <_ZN7android22QualcommCameraHardware18filterPictureSizesEv-0x4d4>
    e90a:	2120      	movs	r1, #32
    e90c:	4633      	mov	r3, r6
    e90e:	463a      	mov	r2, r7
    e910:	4640      	mov	r0, r8
    e912:	f7f8 ef88 	blx	7824 <_ZN7android22QualcommCameraHardware18filterPictureSizesEv-0x4c8>
    e916:	3601      	adds	r6, #1
    e918:	4628      	mov	r0, r5
    e91a:	4641      	mov	r1, r8
    e91c:	f7f8 ef7c 	blx	7818 <_ZN7android22QualcommCameraHardware18filterPictureSizesEv-0x4d4>
    e920:	2e15      	cmp	r6, #21
    e922:	d1f2      	bne.n	e90a <_ZN7android22QualcommCameraHardwareC2Ev+0x49e>
    e924:	f8df c01c 	ldr.w	ip, [pc, #28]	; e944 <_ZN7android22QualcommCameraHardwareC2Ev+0x4d8>
    e928:	4628      	mov	r0, r5
    e92a:	9a09      	ldr	r2, [sp, #36]
    e92c:	f854 100c 	ldr.w	r1, [r4, ip]
    e930:	680b      	ldr	r3, [r1, #0]
    e932:	429a      	cmp	r2, r3
    e934:	d001      	beq.n	e93a <_ZN7android22QualcommCameraHardwareC2Ev+0x4ce>
    e936:	f7f8 ef88 	blx	7848 <_ZN7android22QualcommCameraHardware18filterPictureSizesEv-0x4a4>
    e93a:	b00a      	add	sp, #40
    e93c:	e8bd 81f0 	ldmia.w	sp!, {r4, r5, r6, r7, r8, pc}
    e940:	5e1a      	ldrsh	r2, [r3, r0]
    e942:	0000      	lsls	r0, r0, #0
    e944:	fe80 ffff 	mcr2	15, 4, pc, cr0, cr15, {7}
    e948:	46c2      	mov	sl, r8
    e94a:	0000      	lsls	r0, r0, #0
    e94c:	46ab      	mov	fp, r5
	...

0000e950 <_ZN7android22QualcommCameraHardware21initDefaultParametersEv>:
    e950:	e92d 41f0 	stmdb	sp!, {r4, r5, r6, r7, r8, lr}
    e954:	f8df 45b4 	ldr.w	r4, [pc, #1460]	; ef0c <_ZN7android22QualcommCameraHardware21initDefaultParametersEv+0x5bc>
    e958:	f8df 15b4 	ldr.w	r1, [pc, #1460]	; ef10 <_ZN7android22QualcommCameraHardware21initDefaultParametersEv+0x5c0>
    e95c:	b08c      	sub	sp, #48
    e95e:	f8df 25b4 	ldr.w	r2, [pc, #1460]	; ef14 <_ZN7android22QualcommCameraHardware21initDefaultParametersEv+0x5c4>
    e962:	447c      	add	r4, pc
    e964:	4606      	mov	r6, r0
    e966:	4479      	add	r1, pc
    e968:	447a      	add	r2, pc
    e96a:	2002      	movs	r0, #2
    e96c:	f8df 55a8 	ldr.w	r5, [pc, #1448]	; ef18 <_ZN7android22QualcommCameraHardware21initDefaultParametersEv+0x5c8>
    e970:	f7f8 ef2e 	blx	77d0 <_ZN7android22QualcommCameraHardware18filterPictureSizesEv-0x51c>
    e974:	f894 3170 	ldrb.w	r3, [r4, #368]
    e978:	447d      	add	r5, pc
    e97a:	2b00      	cmp	r3, #0
    e97c:	f040 80d1 	bne.w	eb22 <_ZN7android22QualcommCameraHardware21initDefaultParametersEv+0x1d2>
    e980:	f8df 7598 	ldr.w	r7, [pc, #1432]	; ef1c <_ZN7android22QualcommCameraHardware21initDefaultParametersEv+0x5cc>
    e984:	f10d 082c 	add.w	r8, sp, #44	; 0x2c
    e988:	4630      	mov	r0, r6
    e98a:	447f      	add	r7, pc
    e98c:	f7fa fe66 	bl	965c <_ZN7android22QualcommCameraHardware14findSensorTypeEv>
    e990:	2204      	movs	r2, #4
    e992:	4640      	mov	r0, r8
    e994:	f507 718c 	add.w	r1, r7, #280	; 0x118
    e998:	f7f9 ff0e 	bl	87b8 <_ZN7android22QualcommCameraHardware13notifyShutterEP13common_crop_t+0x10c>
    e99c:	4641      	mov	r1, r8
    e99e:	f504 709a 	add.w	r0, r4, #308	; 0x134
    e9a2:	f7f9 e8ba 	blx	7b18 <_ZN7android22QualcommCameraHardware18filterPictureSizesEv-0x1d4>
    e9a6:	4640      	mov	r0, r8
    e9a8:	f10d 0828 	add.w	r8, sp, #40	; 0x28
    e9ac:	f7f8 eeec 	blx	7788 <_ZN7android22QualcommCameraHardware18filterPictureSizesEv-0x564>
    e9b0:	2209      	movs	r2, #9
    e9b2:	4640      	mov	r0, r8
    e9b4:	f107 0190 	add.w	r1, r7, #144	; 0x90
    e9b8:	f7f9 fefe 	bl	87b8 <_ZN7android22QualcommCameraHardware13notifyShutterEP13common_crop_t+0x10c>
    e9bc:	4641      	mov	r1, r8
    e9be:	f504 709c 	add.w	r0, r4, #312	; 0x138
    e9c2:	f7f9 e8aa 	blx	7b18 <_ZN7android22QualcommCameraHardware18filterPictureSizesEv-0x1d4>
    e9c6:	4640      	mov	r0, r8
    e9c8:	f10d 0824 	add.w	r8, sp, #36	; 0x24
    e9cc:	f7f8 eedc 	blx	7788 <_ZN7android22QualcommCameraHardware18filterPictureSizesEv-0x564>
    e9d0:	2203      	movs	r2, #3
    e9d2:	4640      	mov	r0, r8
    e9d4:	f507 7180 	add.w	r1, r7, #256	; 0x100
    e9d8:	f7f9 feee 	bl	87b8 <_ZN7android22QualcommCameraHardware13notifyShutterEP13common_crop_t+0x10c>
    e9dc:	4641      	mov	r1, r8
    e9de:	f504 709e 	add.w	r0, r4, #316	; 0x13c
    e9e2:	f7f9 e89a 	blx	7b18 <_ZN7android22QualcommCameraHardware18filterPictureSizesEv-0x1d4>
    e9e6:	4640      	mov	r0, r8
    e9e8:	f10d 0820 	add.w	r8, sp, #32	; 0x20
    e9ec:	f7f8 eecc 	blx	7788 <_ZN7android22QualcommCameraHardware18filterPictureSizesEv-0x564>
    e9f0:	2205      	movs	r2, #5
    e9f2:	4640      	mov	r0, r8
    e9f4:	f107 01d8 	add.w	r1, r7, #216	; 0xd8
    e9f8:	f7f9 fede 	bl	87b8 <_ZN7android22QualcommCameraHardware13notifyShutterEP13common_crop_t+0x10c>
    e9fc:	4641      	mov	r1, r8
    e9fe:	f504 70a0 	add.w	r0, r4, #320	; 0x140
    ea02:	f7f9 e88a 	blx	7b18 <_ZN7android22QualcommCameraHardware18filterPictureSizesEv-0x1d4>
    ea06:	4640      	mov	r0, r8
    ea08:	f7f8 eebe 	blx	7788 <_ZN7android22QualcommCameraHardware18filterPictureSizesEv-0x564>
    ea0c:	f10d 081c 	add.w	r8, sp, #28	; 0x1c
    ea10:	4630      	mov	r0, r6
    ea12:	f7fa f88b 	bl	8b2c <_ZN7android22QualcommCameraHardware18filterPreviewSizesEv>
    ea16:	6f22      	ldr	r2, [r4, #112]
    ea18:	4640      	mov	r0, r8
    ea1a:	f104 0110 	add.w	r1, r4, #16	; 0x10
    ea1e:	f7ff fb37 	bl	e090 <_ZN7android22QualcommCameraHardware11startCameraEv+0x430>
    ea22:	4641      	mov	r1, r8
    ea24:	f504 7096 	add.w	r0, r4, #300	; 0x12c
    ea28:	f7f9 e876 	blx	7b18 <_ZN7android22QualcommCameraHardware18filterPictureSizesEv-0x1d4>
    ea2c:	4640      	mov	r0, r8
    ea2e:	f7f8 eeac 	blx	7788 <_ZN7android22QualcommCameraHardware18filterPictureSizesEv-0x564>
    ea32:	f10d 0818 	add.w	r8, sp, #24	; 0x18
    ea36:	4630      	mov	r0, r6
    ea38:	f7f9 f958 	bl	7cec <_ZN7android22QualcommCameraHardware18filterPictureSizesEv>
    ea3c:	68a2      	ldr	r2, [r4, #8]
    ea3e:	4640      	mov	r0, r8
    ea40:	6861      	ldr	r1, [r4, #4]
    ea42:	f7ff fb25 	bl	e090 <_ZN7android22QualcommCameraHardware11startCameraEv+0x430>
    ea46:	4641      	mov	r1, r8
    ea48:	f504 7098 	add.w	r0, r4, #304	; 0x130
    ea4c:	f7f9 e864 	blx	7b18 <_ZN7android22QualcommCameraHardware18filterPictureSizesEv-0x1d4>
    ea50:	4640      	mov	r0, r8
    ea52:	f10d 0814 	add.w	r8, sp, #20	; 0x14
    ea56:	f7f8 ee98 	blx	7788 <_ZN7android22QualcommCameraHardware18filterPictureSizesEv-0x564>
    ea5a:	2204      	movs	r2, #4
    ea5c:	f107 0170 	add.w	r1, r7, #112	; 0x70
    ea60:	4640      	mov	r0, r8
    ea62:	f7f9 fea9 	bl	87b8 <_ZN7android22QualcommCameraHardware13notifyShutterEP13common_crop_t+0x10c>
    ea66:	4641      	mov	r1, r8
    ea68:	f504 70a2 	add.w	r0, r4, #324	; 0x144
    ea6c:	f7f9 e854 	blx	7b18 <_ZN7android22QualcommCameraHardware18filterPictureSizesEv-0x1d4>
    ea70:	4640      	mov	r0, r8
    ea72:	f7f8 ee8a 	blx	7788 <_ZN7android22QualcommCameraHardware18filterPictureSizesEv-0x564>
    ea76:	6821      	ldr	r1, [r4, #0]
    ea78:	7b08      	ldrb	r0, [r1, #12]
    ea7a:	b178      	cbz	r0, ea9c <_ZN7android22QualcommCameraHardware21initDefaultParametersEv+0x14c>
    ea7c:	f10d 0810 	add.w	r8, sp, #16	; 0x10
    ea80:	f107 0110 	add.w	r1, r7, #16	; 0x10
    ea84:	4640      	mov	r0, r8
    ea86:	2204      	movs	r2, #4
    ea88:	f7f9 fe96 	bl	87b8 <_ZN7android22QualcommCameraHardware13notifyShutterEP13common_crop_t+0x10c>
    ea8c:	f504 70a4 	add.w	r0, r4, #328	; 0x148
    ea90:	4641      	mov	r1, r8
    ea92:	f7f9 e842 	blx	7b18 <_ZN7android22QualcommCameraHardware18filterPictureSizesEv-0x1d4>
    ea96:	4640      	mov	r0, r8
    ea98:	f7f8 ee76 	blx	7788 <_ZN7android22QualcommCameraHardware18filterPictureSizesEv-0x564>
    ea9c:	f8df 7480 	ldr.w	r7, [pc, #1152]	; ef20 <_ZN7android22QualcommCameraHardware21initDefaultParametersEv+0x5d0>
    eaa0:	f10d 080c 	add.w	r8, sp, #12	; 0xc
    eaa4:	f8df 447c 	ldr.w	r4, [pc, #1148]	; ef24 <_ZN7android22QualcommCameraHardware21initDefaultParametersEv+0x5d4>
    eaa8:	2206      	movs	r2, #6
    eaaa:	447f      	add	r7, pc
    eaac:	4640      	mov	r0, r8
    eaae:	447c      	add	r4, pc
    eab0:	f107 0130 	add.w	r1, r7, #48	; 0x30
    eab4:	f7f9 fe80 	bl	87b8 <_ZN7android22QualcommCameraHardware13notifyShutterEP13common_crop_t+0x10c>
    eab8:	4641      	mov	r1, r8
    eaba:	f504 70a6 	add.w	r0, r4, #332	; 0x14c
    eabe:	f7f9 e82c 	blx	7b18 <_ZN7android22QualcommCameraHardware18filterPictureSizesEv-0x1d4>
    eac2:	4640      	mov	r0, r8
    eac4:	f10d 0808 	add.w	r8, sp, #8	; 0x8
    eac8:	f7f8 ee5e 	blx	7788 <_ZN7android22QualcommCameraHardware18filterPictureSizesEv-0x564>
    eacc:	2202      	movs	r2, #2
    eace:	4640      	mov	r0, r8
    ead0:	f107 0160 	add.w	r1, r7, #96	; 0x60
    ead4:	f7f9 fe70 	bl	87b8 <_ZN7android22QualcommCameraHardware13notifyShutterEP13common_crop_t+0x10c>
    ead8:	4641      	mov	r1, r8
    eada:	f504 70a8 	add.w	r0, r4, #336	; 0x150
    eade:	f7f9 e81c 	blx	7b18 <_ZN7android22QualcommCameraHardware18filterPictureSizesEv-0x1d4>
    eae2:	4640      	mov	r0, r8
    eae4:	f10d 0804 	add.w	r8, sp, #4	; 0x4
    eae8:	f7f8 ee4e 	blx	7788 <_ZN7android22QualcommCameraHardware18filterPictureSizesEv-0x564>
    eaec:	2202      	movs	r2, #2
    eaee:	4640      	mov	r0, r8
    eaf0:	4639      	mov	r1, r7
    eaf2:	f7f9 fe61 	bl	87b8 <_ZN7android22QualcommCameraHardware13notifyShutterEP13common_crop_t+0x10c>
    eaf6:	4641      	mov	r1, r8
    eaf8:	f504 70aa 	add.w	r0, r4, #340	; 0x154
    eafc:	f7f9 e80c 	blx	7b18 <_ZN7android22QualcommCameraHardware18filterPictureSizesEv-0x1d4>
    eb00:	4640      	mov	r0, r8
    eb02:	f7f8 ee42 	blx	7788 <_ZN7android22QualcommCameraHardware18filterPictureSizesEv-0x564>
    eb06:	4668      	mov	r0, sp
    eb08:	f7ff fee2 	bl	e8d0 <_ZN7android22QualcommCameraHardwareC2Ev+0x464>
    eb0c:	f504 70ac 	add.w	r0, r4, #344	; 0x158
    eb10:	4669      	mov	r1, sp
    eb12:	f7f9 e802 	blx	7b18 <_ZN7android22QualcommCameraHardware18filterPictureSizesEv-0x1d4>
    eb16:	4668      	mov	r0, sp
    eb18:	f7f8 ee36 	blx	7788 <_ZN7android22QualcommCameraHardware18filterPictureSizesEv-0x564>
    eb1c:	2201      	movs	r2, #1
    eb1e:	f884 2170 	strb.w	r2, [r4, #368]
    eb22:	f106 0408 	add.w	r4, r6, #8	; 0x8
    eb26:	f44f 7148 	mov.w	r1, #800	; 0x320
    eb2a:	4620      	mov	r0, r4
    eb2c:	f44f 72f0 	mov.w	r2, #480	; 0x1e0
    eb30:	f7f8 ef1a 	blx	7968 <_ZN7android22QualcommCameraHardware18filterPictureSizesEv-0x384>
    eb34:	f44f 7348 	mov.w	r3, #800	; 0x320
    eb38:	f44f 7cf0 	mov.w	ip, #480	; 0x1e0
    eb3c:	4620      	mov	r0, r4
    eb3e:	210f      	movs	r1, #15
    eb40:	f8a6 310a 	strh.w	r3, [r6, #266]
    eb44:	f8a6 c10c 	strh.w	ip, [r6, #268]
    eb48:	f106 08e0 	add.w	r8, r6, #224	; 0xe0
    eb4c:	f7f8 ef00 	blx	7950 <_ZN7android22QualcommCameraHardware18filterPictureSizesEv-0x39c>
    eb50:	49f5      	ldr	r1, [pc, #980]	(ef28 <_ZN7android22QualcommCameraHardware21initDefaultParametersEv+0x5d8>)
    eb52:	4640      	mov	r0, r8
    eb54:	4479      	add	r1, pc
    eb56:	f7f8 ee84 	blx	7860 <_ZN7android22QualcommCameraHardware18filterPictureSizesEv-0x48c>
    eb5a:	b1c0      	cbz	r0, eb8e <_ZN7android22QualcommCameraHardware21initDefaultParametersEv+0x23e>
    eb5c:	49f3      	ldr	r1, [pc, #972]	(ef2c <_ZN7android22QualcommCameraHardware21initDefaultParametersEv+0x5dc>)
    eb5e:	4640      	mov	r0, r8
    eb60:	4479      	add	r1, pc
    eb62:	f7f8 ee7e 	blx	7860 <_ZN7android22QualcommCameraHardware18filterPictureSizesEv-0x48c>
    eb66:	b190      	cbz	r0, eb8e <_ZN7android22QualcommCameraHardware21initDefaultParametersEv+0x23e>
    eb68:	4ff1      	ldr	r7, [pc, #964]	(ef30 <_ZN7android22QualcommCameraHardware21initDefaultParametersEv+0x5e0>)
    eb6a:	49f2      	ldr	r1, [pc, #968]	(ef34 <_ZN7android22QualcommCameraHardware21initDefaultParametersEv+0x5e4>)
    eb6c:	447f      	add	r7, pc
    eb6e:	4479      	add	r1, pc
    eb70:	683a      	ldr	r2, [r7, #0]
    eb72:	6810      	ldr	r0, [r2, #0]
    eb74:	f7f8 ee74 	blx	7860 <_ZN7android22QualcommCameraHardware18filterPictureSizesEv-0x48c>
    eb78:	b148      	cbz	r0, eb8e <_ZN7android22QualcommCameraHardware21initDefaultParametersEv+0x23e>
    eb7a:	f8df e3bc 	ldr.w	lr, [pc, #956]	; ef38 <_ZN7android22QualcommCameraHardware21initDefaultParametersEv+0x5e8>
    eb7e:	4620      	mov	r0, r4
    eb80:	f8d7 2158 	ldr.w	r2, [r7, #344]
    eb84:	f855 100e 	ldr.w	r1, [r5, lr]
    eb88:	f7f8 eebe 	blx	7908 <_ZN7android22QualcommCameraHardware18filterPictureSizesEv-0x3e4>
    eb8c:	e005      	b.n	eb9a <_ZN7android22QualcommCameraHardware21initDefaultParametersEv+0x24a>
    eb8e:	48ea      	ldr	r0, [pc, #936]	(ef38 <_ZN7android22QualcommCameraHardware21initDefaultParametersEv+0x5e8>)
    eb90:	220f      	movs	r2, #15
    eb92:	5829      	ldr	r1, [r5, r0]
    eb94:	4620      	mov	r0, r4
    eb96:	f7f8 eec4 	blx	7920 <_ZN7android22QualcommCameraHardware18filterPictureSizesEv-0x3cc>
    eb9a:	4fe8      	ldr	r7, [pc, #928]	(ef3c <_ZN7android22QualcommCameraHardware21initDefaultParametersEv+0x5ec>)
    eb9c:	4620      	mov	r0, r4
    eb9e:	447f      	add	r7, pc
    eba0:	4639      	mov	r1, r7
    eba2:	f7f8 efc0 	blx	7b24 <_ZN7android22QualcommCameraHardware18filterPictureSizesEv-0x1c8>
    eba6:	f44f 7240 	mov.w	r2, #768	; 0x300
    ebaa:	4620      	mov	r0, r4
    ebac:	f44f 6180 	mov.w	r1, #1024	; 0x400
    ebb0:	f7f8 eec2 	blx	7938 <_ZN7android22QualcommCameraHardware18filterPictureSizesEv-0x3b4>
    ebb4:	49e2      	ldr	r1, [pc, #904]	(ef40 <_ZN7android22QualcommCameraHardware21initDefaultParametersEv+0x5f0>)
    ebb6:	4620      	mov	r0, r4
    ebb8:	4479      	add	r1, pc
    ebba:	f7f8 efba 	blx	7b30 <_ZN7android22QualcommCameraHardware18filterPictureSizesEv-0x1bc>
    ebbe:	48e1      	ldr	r0, [pc, #900]	(ef44 <_ZN7android22QualcommCameraHardware21initDefaultParametersEv+0x5f4>)
    ebc0:	4ae1      	ldr	r2, [pc, #900]	(ef48 <_ZN7android22QualcommCameraHardware21initDefaultParametersEv+0x5f8>)
    ebc2:	5829      	ldr	r1, [r5, r0]
    ebc4:	447a      	add	r2, pc
    ebc6:	4620      	mov	r0, r4
    ebc8:	f7f8 ee9e 	blx	7908 <_ZN7android22QualcommCameraHardware18filterPictureSizesEv-0x3e4>
    ebcc:	4bdf      	ldr	r3, [pc, #892]	(ef4c <_ZN7android22QualcommCameraHardware21initDefaultParametersEv+0x5fc>)
    ebce:	4ae0      	ldr	r2, [pc, #896]	(ef50 <_ZN7android22QualcommCameraHardware21initDefaultParametersEv+0x600>)
    ebd0:	4620      	mov	r0, r4
    ebd2:	58e9      	ldr	r1, [r5, r3]
    ebd4:	447a      	add	r2, pc
    ebd6:	f7f8 ee98 	blx	7908 <_ZN7android22QualcommCameraHardware18filterPictureSizesEv-0x3e4>
    ebda:	f8df c378 	ldr.w	ip, [pc, #888]	; ef54 <_ZN7android22QualcommCameraHardware21initDefaultParametersEv+0x604>
    ebde:	4ade      	ldr	r2, [pc, #888]	(ef58 <_ZN7android22QualcommCameraHardware21initDefaultParametersEv+0x608>)
    ebe0:	4620      	mov	r0, r4
    ebe2:	f855 100c 	ldr.w	r1, [r5, ip]
    ebe6:	447a      	add	r2, pc
    ebe8:	f7f8 ee8e 	blx	7908 <_ZN7android22QualcommCameraHardware18filterPictureSizesEv-0x3e4>
    ebec:	48db      	ldr	r0, [pc, #876]	(ef5c <_ZN7android22QualcommCameraHardware21initDefaultParametersEv+0x60c>)
    ebee:	f44f 72d8 	mov.w	r2, #432	; 0x1b0
    ebf2:	f8a6 2114 	strh.w	r2, [r6, #276]
    ebf6:	4ada      	ldr	r2, [pc, #872]	(ef60 <_ZN7android22QualcommCameraHardware21initDefaultParametersEv+0x610>)
    ebf8:	f44f 7190 	mov.w	r1, #288	; 0x120
    ebfc:	f8a6 1112 	strh.w	r1, [r6, #274]
    ec00:	447a      	add	r2, pc
    ec02:	5829      	ldr	r1, [r5, r0]
    ec04:	4620      	mov	r0, r4
    ec06:	f7f8 ee80 	blx	7908 <_ZN7android22QualcommCameraHardware18filterPictureSizesEv-0x3e4>
    ec0a:	4bd6      	ldr	r3, [pc, #856]	(ef64 <_ZN7android22QualcommCameraHardware21initDefaultParametersEv+0x614>)
    ec0c:	f8df c358 	ldr.w	ip, [pc, #856]	; ef68 <_ZN7android22QualcommCameraHardware21initDefaultParametersEv+0x618>
    ec10:	4620      	mov	r0, r4
    ec12:	58e9      	ldr	r1, [r5, r3]
    ec14:	f855 200c 	ldr.w	r2, [r5, ip]
    ec18:	f7f8 ee76 	blx	7908 <_ZN7android22QualcommCameraHardware18filterPictureSizesEv-0x3e4>
    ec1c:	4ad3      	ldr	r2, [pc, #844]	(ef6c <_ZN7android22QualcommCameraHardware21initDefaultParametersEv+0x61c>)
    ec1e:	48d4      	ldr	r0, [pc, #848]	(ef70 <_ZN7android22QualcommCameraHardware21initDefaultParametersEv+0x620>)
    ec20:	58a9      	ldr	r1, [r5, r2]
    ec22:	582a      	ldr	r2, [r5, r0]
    ec24:	4620      	mov	r0, r4
    ec26:	f7f8 ee70 	blx	7908 <_ZN7android22QualcommCameraHardware18filterPictureSizesEv-0x3e4>
    ec2a:	4bd2      	ldr	r3, [pc, #840]	(ef74 <_ZN7android22QualcommCameraHardware21initDefaultParametersEv+0x624>)
    ec2c:	f8df c348 	ldr.w	ip, [pc, #840]	; ef78 <_ZN7android22QualcommCameraHardware21initDefaultParametersEv+0x628>
    ec30:	4620      	mov	r0, r4
    ec32:	58e9      	ldr	r1, [r5, r3]
    ec34:	f855 200c 	ldr.w	r2, [r5, ip]
    ec38:	f7f8 ee66 	blx	7908 <_ZN7android22QualcommCameraHardware18filterPictureSizesEv-0x3e4>
    ec3c:	4acf      	ldr	r2, [pc, #828]	(ef7c <_ZN7android22QualcommCameraHardware21initDefaultParametersEv+0x62c>)
    ec3e:	48d0      	ldr	r0, [pc, #832]	(ef80 <_ZN7android22QualcommCameraHardware21initDefaultParametersEv+0x630>)
    ec40:	58a9      	ldr	r1, [r5, r2]
    ec42:	582a      	ldr	r2, [r5, r0]
    ec44:	4620      	mov	r0, r4
    ec46:	f7f8 ee60 	blx	7908 <_ZN7android22QualcommCameraHardware18filterPictureSizesEv-0x3e4>
    ec4a:	f8df c338 	ldr.w	ip, [pc, #824]	; ef84 <_ZN7android22QualcommCameraHardware21initDefaultParametersEv+0x634>
    ec4e:	4bce      	ldr	r3, [pc, #824]	(ef88 <_ZN7android22QualcommCameraHardware21initDefaultParametersEv+0x638>)
    ec50:	4620      	mov	r0, r4
    ec52:	f855 200c 	ldr.w	r2, [r5, ip]
    ec56:	58e9      	ldr	r1, [r5, r3]
    ec58:	f7f8 ee56 	blx	7908 <_ZN7android22QualcommCameraHardware18filterPictureSizesEv-0x3e4>
    ec5c:	48cb      	ldr	r0, [pc, #812]	(ef8c <_ZN7android22QualcommCameraHardware21initDefaultParametersEv+0x63c>)
    ec5e:	463a      	mov	r2, r7
    ec60:	4fcb      	ldr	r7, [pc, #812]	(ef90 <_ZN7android22QualcommCameraHardware21initDefaultParametersEv+0x640>)
    ec62:	5829      	ldr	r1, [r5, r0]
    ec64:	4620      	mov	r0, r4
    ec66:	f7f8 ee50 	blx	7908 <_ZN7android22QualcommCameraHardware18filterPictureSizesEv-0x3e4>
    ec6a:	59e9      	ldr	r1, [r5, r7]
    ec6c:	4fc9      	ldr	r7, [pc, #804]	(ef94 <_ZN7android22QualcommCameraHardware21initDefaultParametersEv+0x644>)
    ec6e:	4620      	mov	r0, r4
    ec70:	447f      	add	r7, pc
    ec72:	f8d7 212c 	ldr.w	r2, [r7, #300]
    ec76:	f7f8 ee48 	blx	7908 <_ZN7android22QualcommCameraHardware18filterPictureSizesEv-0x3e4>
    ec7a:	4ac7      	ldr	r2, [pc, #796]	(ef98 <_ZN7android22QualcommCameraHardware21initDefaultParametersEv+0x648>)
    ec7c:	4620      	mov	r0, r4
    ec7e:	58a9      	ldr	r1, [r5, r2]
    ec80:	f8d7 2130 	ldr.w	r2, [r7, #304]
    ec84:	f7f8 ee40 	blx	7908 <_ZN7android22QualcommCameraHardware18filterPictureSizesEv-0x3e4>
    ec88:	4bc4      	ldr	r3, [pc, #784]	(ef9c <_ZN7android22QualcommCameraHardware21initDefaultParametersEv+0x64c>)
    ec8a:	4620      	mov	r0, r4
    ec8c:	f8d7 2134 	ldr.w	r2, [r7, #308]
    ec90:	58e9      	ldr	r1, [r5, r3]
    ec92:	f7f8 ee3a 	blx	7908 <_ZN7android22QualcommCameraHardware18filterPictureSizesEv-0x3e4>
    ec96:	f8df c308 	ldr.w	ip, [pc, #776]	; efa0 <_ZN7android22QualcommCameraHardware21initDefaultParametersEv+0x650>
    ec9a:	4620      	mov	r0, r4
    ec9c:	f8d7 2138 	ldr.w	r2, [r7, #312]
    eca0:	f855 100c 	ldr.w	r1, [r5, ip]
    eca4:	f7f8 ee30 	blx	7908 <_ZN7android22QualcommCameraHardware18filterPictureSizesEv-0x3e4>
    eca8:	48be      	ldr	r0, [pc, #760]	(efa4 <_ZN7android22QualcommCameraHardware21initDefaultParametersEv+0x654>)
    ecaa:	f8d7 213c 	ldr.w	r2, [r7, #316]
    ecae:	5829      	ldr	r1, [r5, r0]
    ecb0:	4620      	mov	r0, r4
    ecb2:	f7f8 ee2a 	blx	7908 <_ZN7android22QualcommCameraHardware18filterPictureSizesEv-0x3e4>
    ecb6:	4abc      	ldr	r2, [pc, #752]	(efa8 <_ZN7android22QualcommCameraHardware21initDefaultParametersEv+0x658>)
    ecb8:	4620      	mov	r0, r4
    ecba:	58a9      	ldr	r1, [r5, r2]
    ecbc:	f8d7 2140 	ldr.w	r2, [r7, #320]
    ecc0:	f7f8 ee22 	blx	7908 <_ZN7android22QualcommCameraHardware18filterPictureSizesEv-0x3e4>
    ecc4:	4bb9      	ldr	r3, [pc, #740]	(efac <_ZN7android22QualcommCameraHardware21initDefaultParametersEv+0x65c>)
    ecc6:	4620      	mov	r0, r4
    ecc8:	f8d7 2148 	ldr.w	r2, [r7, #328]
    eccc:	58e9      	ldr	r1, [r5, r3]
    ecce:	f7f8 ee1c 	blx	7908 <_ZN7android22QualcommCameraHardware18filterPictureSizesEv-0x3e4>
    ecd2:	f8df c2dc 	ldr.w	ip, [pc, #732]	; efb0 <_ZN7android22QualcommCameraHardware21initDefaultParametersEv+0x660>
    ecd6:	4620      	mov	r0, r4
    ecd8:	f8d7 2154 	ldr.w	r2, [r7, #340]
    ecdc:	f855 100c 	ldr.w	r1, [r5, ip]
    ece0:	f7f8 ee12 	blx	7908 <_ZN7android22QualcommCameraHardware18filterPictureSizesEv-0x3e4>
    ece4:	f896 1100 	ldrb.w	r1, [r6, #256]
    ece8:	b189      	cbz	r1, ed0e <_ZN7android22QualcommCameraHardware21initDefaultParametersEv+0x3be>
    ecea:	f8df c2c8 	ldr.w	ip, [pc, #712]	; efb4 <_ZN7android22QualcommCameraHardware21initDefaultParametersEv+0x664>
    ecee:	4620      	mov	r0, r4
    ecf0:	f8df e2c4 	ldr.w	lr, [pc, #708]	; efb8 <_ZN7android22QualcommCameraHardware21initDefaultParametersEv+0x668>
    ecf4:	f855 100c 	ldr.w	r1, [r5, ip]
    ecf8:	f855 200e 	ldr.w	r2, [r5, lr]
    ecfc:	f7f8 ee04 	blx	7908 <_ZN7android22QualcommCameraHardware18filterPictureSizesEv-0x3e4>
    ed00:	4aae      	ldr	r2, [pc, #696]	(efbc <_ZN7android22QualcommCameraHardware21initDefaultParametersEv+0x66c>)
    ed02:	4620      	mov	r0, r4
    ed04:	58a9      	ldr	r1, [r5, r2]
    ed06:	f8d7 2144 	ldr.w	r2, [r7, #324]
    ed0a:	f7f8 edfe 	blx	7908 <_ZN7android22QualcommCameraHardware18filterPictureSizesEv-0x3e4>
    ed0e:	f8df e2b0 	ldr.w	lr, [pc, #688]	; efc0 <_ZN7android22QualcommCameraHardware21initDefaultParametersEv+0x670>
    ed12:	220a      	movs	r2, #10
    ed14:	4fab      	ldr	r7, [pc, #684]	(efc4 <_ZN7android22QualcommCameraHardware21initDefaultParametersEv+0x674>)
    ed16:	4620      	mov	r0, r4
    ed18:	f855 100e 	ldr.w	r1, [r5, lr]
    ed1c:	f7f8 ee00 	blx	7920 <_ZN7android22QualcommCameraHardware18filterPictureSizesEv-0x3cc>
    ed20:	59e9      	ldr	r1, [r5, r7]
    ed22:	2206      	movs	r2, #6
    ed24:	4620      	mov	r0, r4
    ed26:	f7f8 edfc 	blx	7920 <_ZN7android22QualcommCameraHardware18filterPictureSizesEv-0x3cc>
    ed2a:	4ba7      	ldr	r3, [pc, #668]	(efc8 <_ZN7android22QualcommCameraHardware21initDefaultParametersEv+0x678>)
    ed2c:	220a      	movs	r2, #10
    ed2e:	4620      	mov	r0, r4
    ed30:	4fa6      	ldr	r7, [pc, #664]	(efcc <_ZN7android22QualcommCameraHardware21initDefaultParametersEv+0x67c>)
    ed32:	58e9      	ldr	r1, [r5, r3]
    ed34:	f7f8 edf4 	blx	7920 <_ZN7android22QualcommCameraHardware18filterPictureSizesEv-0x3cc>
    ed38:	49a5      	ldr	r1, [pc, #660]	(efd0 <_ZN7android22QualcommCameraHardware21initDefaultParametersEv+0x680>)
    ed3a:	220a      	movs	r2, #10
    ed3c:	4620      	mov	r0, r4
    ed3e:	4479      	add	r1, pc
    ed40:	f7f8 edee 	blx	7920 <_ZN7android22QualcommCameraHardware18filterPictureSizesEv-0x3cc>
    ed44:	49a3      	ldr	r1, [pc, #652]	(efd4 <_ZN7android22QualcommCameraHardware21initDefaultParametersEv+0x684>)
    ed46:	220a      	movs	r2, #10
    ed48:	4620      	mov	r0, r4
    ed4a:	4479      	add	r1, pc
    ed4c:	f7f8 ede8 	blx	7920 <_ZN7android22QualcommCameraHardware18filterPictureSizesEv-0x3cc>
    ed50:	49a1      	ldr	r1, [pc, #644]	(efd8 <_ZN7android22QualcommCameraHardware21initDefaultParametersEv+0x688>)
    ed52:	2206      	movs	r2, #6
    ed54:	4620      	mov	r0, r4
    ed56:	4479      	add	r1, pc
    ed58:	f7f8 ede2 	blx	7920 <_ZN7android22QualcommCameraHardware18filterPictureSizesEv-0x3cc>
    ed5c:	499f      	ldr	r1, [pc, #636]	(efdc <_ZN7android22QualcommCameraHardware21initDefaultParametersEv+0x68c>)
    ed5e:	2206      	movs	r2, #6
    ed60:	4620      	mov	r0, r4
    ed62:	4479      	add	r1, pc
    ed64:	f7f8 eddc 	blx	7920 <_ZN7android22QualcommCameraHardware18filterPictureSizesEv-0x3cc>
    ed68:	499d      	ldr	r1, [pc, #628]	(efe0 <_ZN7android22QualcommCameraHardware21initDefaultParametersEv+0x690>)
    ed6a:	220a      	movs	r2, #10
    ed6c:	4620      	mov	r0, r4
    ed6e:	4479      	add	r1, pc
    ed70:	f7f8 edd6 	blx	7920 <_ZN7android22QualcommCameraHardware18filterPictureSizesEv-0x3cc>
    ed74:	499b      	ldr	r1, [pc, #620]	(efe4 <_ZN7android22QualcommCameraHardware21initDefaultParametersEv+0x694>)
    ed76:	2206      	movs	r2, #6
    ed78:	4620      	mov	r0, r4
    ed7a:	4479      	add	r1, pc
    ed7c:	f7f8 edd0 	blx	7920 <_ZN7android22QualcommCameraHardware18filterPictureSizesEv-0x3cc>
    ed80:	f8df c264 	ldr.w	ip, [pc, #612]	; efe8 <_ZN7android22QualcommCameraHardware21initDefaultParametersEv+0x698>
    ed84:	2208      	movs	r2, #8
    ed86:	4620      	mov	r0, r4
    ed88:	f855 100c 	ldr.w	r1, [r5, ip]
    ed8c:	f7f8 edc8 	blx	7920 <_ZN7android22QualcommCameraHardware18filterPictureSizesEv-0x3cc>
    ed90:	4a96      	ldr	r2, [pc, #600]	(efec <_ZN7android22QualcommCameraHardware21initDefaultParametersEv+0x69c>)
    ed92:	4620      	mov	r0, r4
    ed94:	58a9      	ldr	r1, [r5, r2]
    ed96:	2200      	movs	r2, #0
    ed98:	f7f8 edc2 	blx	7920 <_ZN7android22QualcommCameraHardware18filterPictureSizesEv-0x3cc>
    ed9c:	4894      	ldr	r0, [pc, #592]	(eff0 <_ZN7android22QualcommCameraHardware21initDefaultParametersEv+0x6a0>)
    ed9e:	2202      	movs	r2, #2
    eda0:	5829      	ldr	r1, [r5, r0]
    eda2:	4620      	mov	r0, r4
    eda4:	f7f8 edbc 	blx	7920 <_ZN7android22QualcommCameraHardware18filterPictureSizesEv-0x3cc>
    eda8:	4992      	ldr	r1, [pc, #584]	(eff4 <_ZN7android22QualcommCameraHardware21initDefaultParametersEv+0x6a4>)
    edaa:	4a93      	ldr	r2, [pc, #588]	(eff8 <_ZN7android22QualcommCameraHardware21initDefaultParametersEv+0x6a8>)
    edac:	4620      	mov	r0, r4
    edae:	4479      	add	r1, pc
    edb0:	447a      	add	r2, pc
    edb2:	f7f8 edaa 	blx	7908 <_ZN7android22QualcommCameraHardware18filterPictureSizesEv-0x3e4>
    edb6:	4991      	ldr	r1, [pc, #580]	(effc <_ZN7android22QualcommCameraHardware21initDefaultParametersEv+0x6ac>)
    edb8:	4a91      	ldr	r2, [pc, #580]	(f000 <_ZN7android22QualcommCameraHardware21initDefaultParametersEv+0x6b0>)
    edba:	4620      	mov	r0, r4
    edbc:	4479      	add	r1, pc
    edbe:	447a      	add	r2, pc
    edc0:	f7f8 eda2 	blx	7908 <_ZN7android22QualcommCameraHardware18filterPictureSizesEv-0x3e4>
    edc4:	498f      	ldr	r1, [pc, #572]	(f004 <_ZN7android22QualcommCameraHardware21initDefaultParametersEv+0x6b4>)
    edc6:	4a90      	ldr	r2, [pc, #576]	(f008 <_ZN7android22QualcommCameraHardware21initDefaultParametersEv+0x6b8>)
    edc8:	4620      	mov	r0, r4
    edca:	4479      	add	r1, pc
    edcc:	447a      	add	r2, pc
    edce:	f7f8 ed9c 	blx	7908 <_ZN7android22QualcommCameraHardware18filterPictureSizesEv-0x3e4>
    edd2:	498e      	ldr	r1, [pc, #568]	(f00c <_ZN7android22QualcommCameraHardware21initDefaultParametersEv+0x6bc>)
    edd4:	2205      	movs	r2, #5
    edd6:	4620      	mov	r0, r4
    edd8:	4479      	add	r1, pc
    edda:	f7f8 eda2 	blx	7920 <_ZN7android22QualcommCameraHardware18filterPictureSizesEv-0x3cc>
    edde:	498c      	ldr	r1, [pc, #560]	(f010 <_ZN7android22QualcommCameraHardware21initDefaultParametersEv+0x6c0>)
    ede0:	2200      	movs	r2, #0
    ede2:	4620      	mov	r0, r4
    ede4:	4479      	add	r1, pc
    ede6:	f7f8 ed9c 	blx	7920 <_ZN7android22QualcommCameraHardware18filterPictureSizesEv-0x3cc>
    edea:	4b8a      	ldr	r3, [pc, #552]	(f014 <_ZN7android22QualcommCameraHardware21initDefaultParametersEv+0x6c4>)
    edec:	59e9      	ldr	r1, [r5, r7]
    edee:	4620      	mov	r0, r4
    edf0:	4f89      	ldr	r7, [pc, #548]	(f018 <_ZN7android22QualcommCameraHardware21initDefaultParametersEv+0x6c8>)
    edf2:	58ea      	ldr	r2, [r5, r3]
    edf4:	f7f8 ed88 	blx	7908 <_ZN7android22QualcommCameraHardware18filterPictureSizesEv-0x3e4>
    edf8:	f8df c220 	ldr.w	ip, [pc, #544]	; f01c <_ZN7android22QualcommCameraHardware21initDefaultParametersEv+0x6cc>
    edfc:	4620      	mov	r0, r4
    edfe:	220a      	movs	r2, #10
    ee00:	f855 100c 	ldr.w	r1, [r5, ip]
    ee04:	f7f8 ed8c 	blx	7920 <_ZN7android22QualcommCameraHardware18filterPictureSizesEv-0x3cc>
    ee08:	4a85      	ldr	r2, [pc, #532]	(f020 <_ZN7android22QualcommCameraHardware21initDefaultParametersEv+0x6d0>)
    ee0a:	4620      	mov	r0, r4
    ee0c:	58a9      	ldr	r1, [r5, r2]
    ee0e:	2206      	movs	r2, #6
    ee10:	f7f8 ed86 	blx	7920 <_ZN7android22QualcommCameraHardware18filterPictureSizesEv-0x3cc>
    ee14:	4883      	ldr	r0, [pc, #524]	(f024 <_ZN7android22QualcommCameraHardware21initDefaultParametersEv+0x6d4>)
    ee16:	2206      	movs	r2, #6
    ee18:	5829      	ldr	r1, [r5, r0]
    ee1a:	4620      	mov	r0, r4
    ee1c:	f7f8 ed80 	blx	7920 <_ZN7android22QualcommCameraHardware18filterPictureSizesEv-0x3cc>
    ee20:	4a81      	ldr	r2, [pc, #516]	(f028 <_ZN7android22QualcommCameraHardware21initDefaultParametersEv+0x6d8>)
    ee22:	59e9      	ldr	r1, [r5, r7]
    ee24:	4620      	mov	r0, r4
    ee26:	447a      	add	r2, pc
    ee28:	4f80      	ldr	r7, [pc, #512]	(f02c <_ZN7android22QualcommCameraHardware21initDefaultParametersEv+0x6dc>)
    ee2a:	f7f8 ed6e 	blx	7908 <_ZN7android22QualcommCameraHardware18filterPictureSizesEv-0x3e4>
    ee2e:	4b80      	ldr	r3, [pc, #512]	(f030 <_ZN7android22QualcommCameraHardware21initDefaultParametersEv+0x6e0>)
    ee30:	f8df c200 	ldr.w	ip, [pc, #512]	; f034 <_ZN7android22QualcommCameraHardware21initDefaultParametersEv+0x6e4>
    ee34:	4620      	mov	r0, r4
    ee36:	58e9      	ldr	r1, [r5, r3]
    ee38:	f855 200c 	ldr.w	r2, [r5, ip]
    ee3c:	f7f8 ed64 	blx	7908 <_ZN7android22QualcommCameraHardware18filterPictureSizesEv-0x3e4>
    ee40:	4a7d      	ldr	r2, [pc, #500]	(f038 <_ZN7android22QualcommCameraHardware21initDefaultParametersEv+0x6e8>)
    ee42:	487e      	ldr	r0, [pc, #504]	(f03c <_ZN7android22QualcommCameraHardware21initDefaultParametersEv+0x6ec>)
    ee44:	58a9      	ldr	r1, [r5, r2]
    ee46:	582a      	ldr	r2, [r5, r0]
    ee48:	4620      	mov	r0, r4
    ee4a:	f7f8 ed5e 	blx	7908 <_ZN7android22QualcommCameraHardware18filterPictureSizesEv-0x3e4>
    ee4e:	59e9      	ldr	r1, [r5, r7]
    ee50:	4f7b      	ldr	r7, [pc, #492]	(f040 <_ZN7android22QualcommCameraHardware21initDefaultParametersEv+0x6f0>)
    ee52:	4620      	mov	r0, r4
    ee54:	447f      	add	r7, pc
    ee56:	f8d7 214c 	ldr.w	r2, [r7, #332]
    ee5a:	f7f8 ed56 	blx	7908 <_ZN7android22QualcommCameraHardware18filterPictureSizesEv-0x3e4>
    ee5e:	683b      	ldr	r3, [r7, #0]
    ee60:	4978      	ldr	r1, [pc, #480]	(f044 <_ZN7android22QualcommCameraHardware21initDefaultParametersEv+0x6f4>)
    ee62:	6818      	ldr	r0, [r3, #0]
    ee64:	4479      	add	r1, pc
    ee66:	f7f8 ecfc 	blx	7860 <_ZN7android22QualcommCameraHardware18filterPictureSizesEv-0x48c>
    ee6a:	b188      	cbz	r0, ee90 <_ZN7android22QualcommCameraHardware21initDefaultParametersEv+0x540>
    ee6c:	4976      	ldr	r1, [pc, #472]	(f048 <_ZN7android22QualcommCameraHardware21initDefaultParametersEv+0x6f8>)
    ee6e:	4640      	mov	r0, r8
    ee70:	4479      	add	r1, pc
    ee72:	f7f8 ecf6 	blx	7860 <_ZN7android22QualcommCameraHardware18filterPictureSizesEv-0x48c>
    ee76:	b158      	cbz	r0, ee90 <_ZN7android22QualcommCameraHardware21initDefaultParametersEv+0x540>
    ee78:	4974      	ldr	r1, [pc, #464]	(f04c <_ZN7android22QualcommCameraHardware21initDefaultParametersEv+0x6fc>)
    ee7a:	4640      	mov	r0, r8
    ee7c:	4479      	add	r1, pc
    ee7e:	f7f8 ecf0 	blx	7860 <_ZN7android22QualcommCameraHardware18filterPictureSizesEv-0x48c>
    ee82:	b128      	cbz	r0, ee90 <_ZN7android22QualcommCameraHardware21initDefaultParametersEv+0x540>
    ee84:	4972      	ldr	r1, [pc, #456]	(f050 <_ZN7android22QualcommCameraHardware21initDefaultParametersEv+0x700>)
    ee86:	4640      	mov	r0, r8
    ee88:	4479      	add	r1, pc
    ee8a:	f7f8 ecea 	blx	7860 <_ZN7android22QualcommCameraHardware18filterPictureSizesEv-0x48c>
    ee8e:	b938      	cbnz	r0, eea0 <_ZN7android22QualcommCameraHardware21initDefaultParametersEv+0x550>
    ee90:	4970      	ldr	r1, [pc, #448]	(f054 <_ZN7android22QualcommCameraHardware21initDefaultParametersEv+0x704>)
    ee92:	2004      	movs	r0, #4
    ee94:	4a70      	ldr	r2, [pc, #448]	(f058 <_ZN7android22QualcommCameraHardware21initDefaultParametersEv+0x708>)
    ee96:	4479      	add	r1, pc
    ee98:	447a      	add	r2, pc
    ee9a:	f7f8 ec9a 	blx	77d0 <_ZN7android22QualcommCameraHardware18filterPictureSizesEv-0x51c>
    ee9e:	e006      	b.n	eeae <_ZN7android22QualcommCameraHardware21initDefaultParametersEv+0x55e>
    eea0:	486e      	ldr	r0, [pc, #440]	(f05c <_ZN7android22QualcommCameraHardware21initDefaultParametersEv+0x70c>)
    eea2:	f8d7 2150 	ldr.w	r2, [r7, #336]
    eea6:	5829      	ldr	r1, [r5, r0]
    eea8:	4620      	mov	r0, r4
    eeaa:	f7f8 ed2e 	blx	7908 <_ZN7android22QualcommCameraHardware18filterPictureSizesEv-0x3e4>
    eeae:	6831      	ldr	r1, [r6, #0]
    eeb0:	4630      	mov	r0, r6
    eeb2:	6d4a      	ldr	r2, [r1, #84]
    eeb4:	4621      	mov	r1, r4
    eeb6:	4790      	blx	r2
    eeb8:	b130      	cbz	r0, eec8 <_ZN7android22QualcommCameraHardware21initDefaultParametersEv+0x578>
    eeba:	4969      	ldr	r1, [pc, #420]	(f060 <_ZN7android22QualcommCameraHardware21initDefaultParametersEv+0x710>)
    eebc:	2006      	movs	r0, #6
    eebe:	4a69      	ldr	r2, [pc, #420]	(f064 <_ZN7android22QualcommCameraHardware21initDefaultParametersEv+0x714>)
    eec0:	4479      	add	r1, pc
    eec2:	447a      	add	r2, pc
    eec4:	f7f8 ec84 	blx	77d0 <_ZN7android22QualcommCameraHardware18filterPictureSizesEv-0x51c>
    eec8:	6830      	ldr	r0, [r6, #0]
    eeca:	6a44      	ldr	r4, [r0, #36]
    eecc:	4630      	mov	r0, r6
    eece:	47a0      	blx	r4
    eed0:	f106 04a4 	add.w	r4, r6, #164	; 0xa4
    eed4:	f886 01e1 	strb.w	r0, [r6, #481]
    eed8:	4620      	mov	r0, r4
    eeda:	f7f9 fb6f 	bl	85bc <_ZN7android22QualcommCameraHardware26receiveJpegPictureFragmentEPhj+0x114>
    eede:	2100      	movs	r1, #0
    eee0:	f106 0050 	add.w	r0, r6, #80	; 0x50
    eee4:	f886 10a8 	strb.w	r1, [r6, #168]
    eee8:	f7f9 fa20 	bl	832c <_ZN7android2spINS_22QualcommCameraHardware8PmemPoolEEaSEPS2_>
    eeec:	495e      	ldr	r1, [pc, #376]	(f068 <_ZN7android22QualcommCameraHardware21initDefaultParametersEv+0x718>)
    eeee:	4a5f      	ldr	r2, [pc, #380]	(f06c <_ZN7android22QualcommCameraHardware21initDefaultParametersEv+0x71c>)
    eef0:	2301      	movs	r3, #1
    eef2:	4479      	add	r1, pc
    eef4:	f886 3160 	strb.w	r3, [r6, #352]
    eef8:	447a      	add	r2, pc
    eefa:	2002      	movs	r0, #2
    eefc:	f7f8 ec68 	blx	77d0 <_ZN7android22QualcommCameraHardware18filterPictureSizesEv-0x51c>
    ef00:	4620      	mov	r0, r4
    ef02:	f7f8 ec84 	blx	780c <_ZN7android22QualcommCameraHardware18filterPictureSizesEv-0x4e0>
    ef06:	b00c      	add	sp, #48
    ef08:	e8bd 81f0 	ldmia.w	sp!, {r4, r5, r6, r7, r8, pc}
    ef0c:	5ffa      	ldrsh	r2, [r7, r7]
    ef0e:	0000      	lsls	r0, r0, #0
    ef10:	1a29      	subs	r1, r5, r0
    ef12:	0000      	lsls	r0, r0, #0
    ef14:	4646      	mov	r6, r8
    ef16:	0000      	lsls	r0, r0, #0
    ef18:	5d7c      	ldrb	r4, [r7, r5]
    ef1a:	0000      	lsls	r0, r0, #0
    ef1c:	57f2      	ldrsb	r2, [r6, r7]
    ef1e:	0000      	lsls	r0, r0, #0
    ef20:	56d2      	ldrsb	r2, [r2, r3]
    ef22:	0000      	lsls	r0, r0, #0
    ef24:	5eae      	ldrsh	r6, [r5, r2]
    ef26:	0000      	lsls	r0, r0, #0
    ef28:	2601      	movs	r6, #1
    ef2a:	0000      	lsls	r0, r0, #0
    ef2c:	25fc      	movs	r5, #252
    ef2e:	0000      	lsls	r0, r0, #0
    ef30:	5df0      	ldrb	r0, [r6, r7]
    ef32:	0000      	lsls	r0, r0, #0
    ef34:	1bf9      	subs	r1, r7, r7
    ef36:	0000      	lsls	r0, r0, #0
    ef38:	ff7c ffff 	undefined
    ef3c:	4428      	add	r0, r5
    ef3e:	0000      	lsls	r0, r0, #0
    ef40:	2a59      	cmp	r2, #89
    ef42:	0000      	lsls	r0, r0, #0
    ef44:	fef4 ffff 	mrc2	15, 7, pc, cr4, cr15, {7}
    ef48:	440b      	add	r3, r1
    ef4a:	0000      	lsls	r0, r0, #0
    ef4c:	ff80 ffff 	undefined
    ef50:	43fe      	mvns	r6, r7
    ef52:	0000      	lsls	r0, r0, #0
    ef54:	ff84 ffff 	undefined
    ef58:	43f0      	mvns	r0, r6
    ef5a:	0000      	lsls	r0, r0, #0
    ef5c:	fef8 ffff 	mrc2	15, 7, pc, cr8, cr15, {7}
    ef60:	43da      	mvns	r2, r3
    ef62:	0000      	lsls	r0, r0, #0
    ef64:	ff88 ffff 	undefined
    ef68:	ff8c ffff 	undefined
    ef6c:	fed4 ffff 	mrc2	15, 6, pc, cr4, cr15, {7}
    ef70:	ff90 ffff 	undefined
    ef74:	fedc ffff 	mrc2	15, 6, pc, cr12, cr15, {7}
    ef78:	ff94 ffff 	undefined
    ef7c:	fed8 ffff 	mrc2	15, 6, pc, cr8, cr15, {7}
    ef80:	ff98 ffff 	undefined
    ef84:	ff9c ffff 	undefined
    ef88:	fea0 ffff 	mcr2	15, 5, pc, cr0, cr15, {7}
    ef8c:	ffa0 ffff 	undefined
    ef90:	ffa4 ffff 	undefined
    ef94:	5cec      	ldrb	r4, [r5, r3]
    ef96:	0000      	lsls	r0, r0, #0
    ef98:	ffa8 ffff 	undefined
    ef9c:	ffac ffff 	undefined
    efa0:	ffb0 ffff 	undefined
    efa4:	ffb4 ffff 	undefined
    efa8:	ffb8 ffff 	undefined
    efac:	ffbc ffff 	undefined
    efb0:	ffc0 ffff 	undefined
    efb4:	fed0 ffff 	mrc2	15, 6, pc, cr0, cr15, {7}
    efb8:	ffc4 ffff 	undefined
    efbc:	ffc8 ffff 	undefined
    efc0:	ffcc ffff 	undefined
    efc4:	ffd0 ffff 	undefined
    efc8:	ffd4 ffff 	undefined
    efcc:	fe9c ffff 	mrc2	15, 4, pc, cr12, cr15, {7}
    efd0:	429f      	cmp	r7, r3
    efd2:	0000      	lsls	r0, r0, #0
    efd4:	42a1      	cmp	r1, r4
    efd6:	0000      	lsls	r0, r0, #0
    efd8:	42a3      	cmp	r3, r4
    efda:	0000      	lsls	r0, r0, #0
    efdc:	42a4      	cmp	r4, r4
    efde:	0000      	lsls	r0, r0, #0
    efe0:	42a5      	cmp	r5, r4
    efe2:	0000      	lsls	r0, r0, #0
    efe4:	42a8      	cmp	r0, r5
    efe6:	0000      	lsls	r0, r0, #0
    efe8:	ffd8 ffff 	undefined
    efec:	ffdc ffff 	undefined
    eff0:	ffe0 ffff 	undefined
    eff4:	259d      	movs	r5, #157
    eff6:	0000      	lsls	r0, r0, #0
    eff8:	4281      	cmp	r1, r0
    effa:	0000      	lsls	r0, r0, #0
    effc:	4277      	negs	r7, r6
    effe:	0000      	lsls	r0, r0, #0
    f000:	4284      	cmp	r4, r0
    f002:	0000      	lsls	r0, r0, #0
    f004:	427d      	negs	r5, r7
    f006:	0000      	lsls	r0, r0, #0
    f008:	4287      	cmp	r7, r0
    f00a:	0000      	lsls	r0, r0, #0
    f00c:	4297      	cmp	r7, r2
    f00e:	0000      	lsls	r0, r0, #0
    f010:	254b      	movs	r5, #75
    f012:	0000      	lsls	r0, r0, #0
    f014:	ffe4 ffff 	undefined
    f018:	fee4 ffff 	mcr2	15, 7, pc, cr4, cr15, {7}
    f01c:	fef0 ffff 	mrc2	15, 7, pc, cr0, cr15, {7}
    f020:	feec ffff 	mcr2	15, 7, pc, cr12, cr15, {7}
    f024:	fee8 ffff 	mcr2	15, 7, pc, cr8, cr15, {7}
    f028:	4252      	negs	r2, r2
    f02a:	0000      	lsls	r0, r0, #0
    f02c:	ffe8 ffff 	undefined
    f030:	fec8 ffff 	mcr2	15, 6, pc, cr8, cr15, {7}
    f034:	ffec ffff 	undefined
    f038:	fecc ffff 	mcr2	15, 6, pc, cr12, cr15, {7}
    f03c:	fff0 ffff 	undefined
    f040:	5b08      	ldrh	r0, [r1, r4]
    f042:	0000      	lsls	r0, r0, #0
    f044:	1903      	adds	r3, r0, r4
    f046:	0000      	lsls	r0, r0, #0
    f048:	22e5      	movs	r2, #229
    f04a:	0000      	lsls	r0, r0, #0
    f04c:	18ef      	adds	r7, r5, r3
    f04e:	0000      	lsls	r0, r0, #0
    f050:	22d4      	movs	r2, #212
    f052:	0000      	lsls	r0, r0, #0
    f054:	14f9      	asrs	r1, r7, #19
    f056:	0000      	lsls	r0, r0, #0
    f058:	22cb      	movs	r2, #203
    f05a:	0000      	lsls	r0, r0, #0
    f05c:	fff4 ffff 	undefined
    f060:	14cf      	asrs	r7, r1, #19
    f062:	0000      	lsls	r0, r0, #0
    f064:	41ba      	sbcs	r2, r7
    f066:	0000      	lsls	r0, r0, #0
    f068:	149d      	asrs	r5, r3, #18
    f06a:	0000      	lsls	r0, r0, #0
    f06c:	41a7      	sbcs	r7, r4
    f06e:	0000      	lsls	r0, r0, #0
    f070:	b570      	push	{r4, r5, r6, lr}
    f072:	4c24      	ldr	r4, [pc, #144]	(f104 <_ZN7android22QualcommCameraHardware21initDefaultParametersEv+0x7b4>)
    f074:	4a24      	ldr	r2, [pc, #144]	(f108 <_ZN7android22QualcommCameraHardware21initDefaultParametersEv+0x7b8>)
    f076:	b088      	sub	sp, #32
    f078:	447c      	add	r4, pc
    f07a:	4d24      	ldr	r5, [pc, #144]	(f10c <_ZN7android22QualcommCameraHardware21initDefaultParametersEv+0x7bc>)
    f07c:	4606      	mov	r6, r0
    f07e:	447a      	add	r2, pc
    f080:	2002      	movs	r0, #2
    f082:	4621      	mov	r1, r4
    f084:	f7f8 eba4 	blx	77d0 <_ZN7android22QualcommCameraHardware18filterPictureSizesEv-0x51c>
    f088:	447d      	add	r5, pc
    f08a:	f04f 012f 	mov.w	r1, #47	; 0x2f
    f08e:	f241 3088 	movw	r0, #5000	; 0x1388
    f092:	f8ad 100c 	strh.w	r1, [sp, #12]
    f096:	aa03      	add	r2, sp, #12
    f098:	9006      	str	r0, [sp, #24]
    f09a:	4630      	mov	r0, r6
    f09c:	4918      	ldr	r1, [pc, #96]	(f100 <_ZN7android22QualcommCameraHardware21initDefaultParametersEv+0x7b0>)
    f09e:	f04f 0304 	mov.w	r3, #4	; 0x4
    f0a2:	3574      	adds	r5, #116
    f0a4:	f8ad 300e 	strh.w	r3, [sp, #14]
    f0a8:	9504      	str	r5, [sp, #16]
    f0aa:	9607      	str	r6, [sp, #28]
    f0ac:	f7f8 ebde 	blx	786c <_ZN7android22QualcommCameraHardware18filterPictureSizesEv-0x480>
    f0b0:	2800      	cmp	r0, #0
    f0b2:	da0e      	bge.n	f0d2 <_ZN7android22QualcommCameraHardware21initDefaultParametersEv+0x782>
    f0b4:	f7f8 ebe0 	blx	7878 <_ZN7android22QualcommCameraHardware18filterPictureSizesEv-0x474>
    f0b8:	6800      	ldr	r0, [r0, #0]
    f0ba:	f7f8 ebe4 	blx	7884 <_ZN7android22QualcommCameraHardware18filterPictureSizesEv-0x468>
    f0be:	4a14      	ldr	r2, [pc, #80]	(f110 <_ZN7android22QualcommCameraHardware21initDefaultParametersEv+0x7c0>)
    f0c0:	4621      	mov	r1, r4
    f0c2:	4633      	mov	r3, r6
    f0c4:	447a      	add	r2, pc
    f0c6:	9000      	str	r0, [sp, #0]
    f0c8:	2006      	movs	r0, #6
    f0ca:	f7f8 eb82 	blx	77d0 <_ZN7android22QualcommCameraHardware18filterPictureSizesEv-0x51c>
    f0ce:	2000      	movs	r0, #0
    f0d0:	e013      	b.n	f0fa <_ZN7android22QualcommCameraHardware21initDefaultParametersEv+0x7aa>
    f0d2:	9b04      	ldr	r3, [sp, #16]
    f0d4:	4621      	mov	r1, r4
    f0d6:	4a0f      	ldr	r2, [pc, #60]	(f114 <_ZN7android22QualcommCameraHardware21initDefaultParametersEv+0x7c4>)
    f0d8:	2003      	movs	r0, #3
    f0da:	681b      	ldr	r3, [r3, #0]
    f0dc:	447a      	add	r2, pc
    f0de:	f7f8 eb78 	blx	77d0 <_ZN7android22QualcommCameraHardware18filterPictureSizesEv-0x51c>
    f0e2:	9904      	ldr	r1, [sp, #16]
    f0e4:	2204      	movs	r2, #4
    f0e6:	4628      	mov	r0, r5
    f0e8:	f7f8 eb84 	blx	77f4 <_ZN7android22QualcommCameraHardware18filterPictureSizesEv-0x4f8>
    f0ec:	4a0a      	ldr	r2, [pc, #40]	(f118 <_ZN7android22QualcommCameraHardware21initDefaultParametersEv+0x7c8>)
    f0ee:	2002      	movs	r0, #2
    f0f0:	4621      	mov	r1, r4
    f0f2:	447a      	add	r2, pc
    f0f4:	f7f8 eb6c 	blx	77d0 <_ZN7android22QualcommCameraHardware18filterPictureSizesEv-0x51c>
    f0f8:	2001      	movs	r0, #1
    f0fa:	b008      	add	sp, #32
    f0fc:	bd70      	pop	{r4, r5, r6, pc}
    f0fe:	bf00      	nop
    f100:	6d04      	ldr	r4, [r0, #80]
    f102:	4004      	ands	r4, r0
    f104:	1317      	asrs	r7, r2, #12
    f106:	0000      	lsls	r0, r0, #0
    f108:	4039      	ands	r1, r7
    f10a:	0000      	lsls	r0, r0, #0
    f10c:	58d4      	ldr	r4, [r2, r3]
    f10e:	0000      	lsls	r0, r0, #0
    f110:	4008      	ands	r0, r1
    f112:	0000      	lsls	r0, r0, #0
    f114:	4019      	ands	r1, r3
    f116:	0000      	lsls	r0, r0, #0
    f118:	4016      	ands	r6, r2
    f11a:	0000      	lsls	r0, r0, #0
    f11c:	e92d 41f0 	stmdb	sp!, {r4, r5, r6, r7, r8, lr}
    f120:	4d32      	ldr	r5, [pc, #200]	(f1ec <_ZN7android22QualcommCameraHardware21initDefaultParametersEv+0x89c>)
    f122:	4c33      	ldr	r4, [pc, #204]	(f1f0 <_ZN7android22QualcommCameraHardware21initDefaultParametersEv+0x8a0>)
    f124:	447d      	add	r5, pc
    f126:	447c      	add	r4, pc
    f128:	f8d5 5174 	ldr.w	r5, [r5, #372]
    f12c:	2d07      	cmp	r5, #7
    f12e:	d107      	bne.n	f140 <_ZN7android22QualcommCameraHardware21initDefaultParametersEv+0x7f0>
    f130:	4930      	ldr	r1, [pc, #192]	(f1f4 <_ZN7android22QualcommCameraHardware21initDefaultParametersEv+0x8a4>)
    f132:	2006      	movs	r0, #6
    f134:	4a30      	ldr	r2, [pc, #192]	(f1f8 <_ZN7android22QualcommCameraHardware21initDefaultParametersEv+0x8a8>)
    f136:	4479      	add	r1, pc
    f138:	447a      	add	r2, pc
    f13a:	f7f8 eb4a 	blx	77d0 <_ZN7android22QualcommCameraHardware18filterPictureSizesEv-0x51c>
    f13e:	e052      	b.n	f1e6 <_ZN7android22QualcommCameraHardware21initDefaultParametersEv+0x896>
    f140:	f04f 0718 	mov.w	r7, #24	; 0x18
    f144:	4e2d      	ldr	r6, [pc, #180]	(f1fc <_ZN7android22QualcommCameraHardware21initDefaultParametersEv+0x8ac>)
    f146:	fb07 fc05 	mul.w	ip, r7, r5
    f14a:	59a6      	ldr	r6, [r4, r6]
    f14c:	eb06 070c 	add.w	r7, r6, ip
    f150:	f846 000c 	str.w	r0, [r6, ip]
    f154:	2003      	movs	r0, #3
    f156:	6079      	str	r1, [r7, #4]
    f158:	fb00 f005 	mul.w	r0, r0, r5
    f15c:	3001      	adds	r0, #1
    f15e:	eb06 06c0 	add.w	r6, r6, r0, lsl #3
    f162:	2001      	movs	r0, #1
    f164:	6072      	str	r2, [r6, #4]
    f166:	60b8      	str	r0, [r7, #8]
    f168:	2905      	cmp	r1, #5
    f16a:	bf14      	ite	ne
    f16c:	2000      	movne	r0, #0
    f16e:	2001      	moveq	r0, #1
    f170:	2a01      	cmp	r2, #1
    f172:	bf94      	ite	ls
    f174:	2700      	movls	r7, #0
    f176:	f000 0701 	andhi.w	r7, r0, #1	; 0x1
    f17a:	b107      	cbz	r7, f17e <_ZN7android22QualcommCameraHardware21initDefaultParametersEv+0x82e>
    f17c:	60b3      	str	r3, [r6, #8]
    f17e:	2a01      	cmp	r2, #1
    f180:	bf14      	ite	ne
    f182:	2200      	movne	r2, #0
    f184:	f000 0201 	andeq.w	r2, r0, #1	; 0x1
    f188:	b16a      	cbz	r2, f1a6 <_ZN7android22QualcommCameraHardware21initDefaultParametersEv+0x856>
    f18a:	2203      	movs	r2, #3
    f18c:	481b      	ldr	r0, [pc, #108]	(f1fc <_ZN7android22QualcommCameraHardware21initDefaultParametersEv+0x8ac>)
    f18e:	fb02 fc05 	mul.w	ip, r2, r5
    f192:	5821      	ldr	r1, [r4, r0]
    f194:	eb01 00cc 	add.w	r0, r1, ip, lsl #3
    f198:	f110 0210 	adds.w	r2, r0, #16	; 0x10
    f19c:	e893 0003 	ldmia.w	r3, {r0, r1}
    f1a0:	e882 0003 	stmia.w	r2, {r0, r1}
    f1a4:	e01a      	b.n	f1dc <_ZN7android22QualcommCameraHardware21initDefaultParametersEv+0x88c>
    f1a6:	2902      	cmp	r1, #2
    f1a8:	d10b      	bne.n	f1c2 <_ZN7android22QualcommCameraHardware21initDefaultParametersEv+0x872>
    f1aa:	2003      	movs	r0, #3
    f1ac:	f8df c04c 	ldr.w	ip, [pc, #76]	; f1fc <_ZN7android22QualcommCameraHardware21initDefaultParametersEv+0x8ac>
    f1b0:	fb00 f205 	mul.w	r2, r0, r5
    f1b4:	f854 100c 	ldr.w	r1, [r4, ip]
    f1b8:	eb01 0cc2 	add.w	ip, r1, r2, lsl #3
    f1bc:	f8cc 3010 	str.w	r3, [ip, #16]
    f1c0:	e00c      	b.n	f1dc <_ZN7android22QualcommCameraHardware21initDefaultParametersEv+0x88c>
    f1c2:	2901      	cmp	r1, #1
    f1c4:	d10a      	bne.n	f1dc <_ZN7android22QualcommCameraHardware21initDefaultParametersEv+0x88c>
    f1c6:	2203      	movs	r2, #3
    f1c8:	f8df c030 	ldr.w	ip, [pc, #48]	; f1fc <_ZN7android22QualcommCameraHardware21initDefaultParametersEv+0x8ac>
    f1cc:	781b      	ldrb	r3, [r3, #0]
    f1ce:	fb02 f005 	mul.w	r0, r2, r5
    f1d2:	f854 100c 	ldr.w	r1, [r4, ip]
    f1d6:	eb01 02c0 	add.w	r2, r1, r0, lsl #3
    f1da:	7413      	strb	r3, [r2, #16]
    f1dc:	4b08      	ldr	r3, [pc, #32]	(f200 <_ZN7android22QualcommCameraHardware21initDefaultParametersEv+0x8b0>)
    f1de:	3501      	adds	r5, #1
    f1e0:	447b      	add	r3, pc
    f1e2:	f8c3 5174 	str.w	r5, [r3, #372]
    f1e6:	e8bd 81f0 	ldmia.w	sp!, {r4, r5, r6, r7, r8, pc}
    f1ea:	bf00      	nop
    f1ec:	5838      	ldr	r0, [r7, r0]
    f1ee:	0000      	lsls	r0, r0, #0
    f1f0:	55ce      	strb	r6, [r1, r7]
    f1f2:	0000      	lsls	r0, r0, #0
    f1f4:	1259      	asrs	r1, r3, #9
    f1f6:	0000      	lsls	r0, r0, #0
    f1f8:	3fe5      	subs	r7, #229
    f1fa:	0000      	lsls	r0, r0, #0
    f1fc:	fff8 ffff 	undefined
    f200:	577c      	ldrsb	r4, [r7, r5]
    f202:	0000      	lsls	r0, r0, #0
    f204:	0000      	lsls	r0, r0, #0
    f206:	0000      	lsls	r0, r0, #0
    f208:	b510      	push	{r4, lr}
    f20a:	4604      	mov	r4, r0
    f20c:	4608      	mov	r0, r1
    f20e:	2100      	movs	r1, #0
    f210:	f7f8 ec94 	blx	7b3c <_ZN7android22QualcommCameraHardware18filterPictureSizesEv-0x1b0>
    f214:	eddf 0b26 	vldr	d16, [pc, #152]	; f2b0 <_ZN7android22QualcommCameraHardware21initDefaultParametersEv+0x960>
    f218:	f1b4 1f02 	cmp.w	r4, #131074	; 0x20002
    f21c:	ec41 0b12 	vmov	d2, r0, r1
    f220:	eeb0 0bc2 	fabsd	d0, d2
    f224:	eefd 7bc0 	ftosizd	s15, d0
    f228:	eeb8 1be7 	fsitod	d1, s15
    f22c:	ee70 1b41 	fsubd	d17, d0, d1
    f230:	ee61 1ba0 	fmuld	d17, d17, d16
    f234:	eebd 7be1 	ftosizd	s14, d17
    f238:	eef8 2bc7 	fsitod	d18, s14
    f23c:	ee71 1be2 	fsubd	d17, d17, d18
    f240:	ee61 1ba0 	fmuld	d17, d17, d16
    f244:	eddf 0b1c 	vldr	d16, [pc, #112]	; f2b8 <_ZN7android22QualcommCameraHardware21initDefaultParametersEv+0x968>
    f248:	ee61 0ba0 	fmuld	d16, d17, d16
    f24c:	eefd 6be0 	ftosizd	s13, d16
    f250:	d114      	bne.n	f27c <_ZN7android22QualcommCameraHardware21initDefaultParametersEv+0x92c>
    f252:	4b1b      	ldr	r3, [pc, #108]	(f2c0 <_ZN7android22QualcommCameraHardware21initDefaultParametersEv+0x970>)
    f254:	f44f 727a 	mov.w	r2, #1000	; 0x3e8
    f258:	4620      	mov	r0, r4
    f25a:	447b      	add	r3, pc
    f25c:	edc3 6a62 	fsts	s13, [r3, #392]
    f260:	ed83 7a60 	fsts	s14, [r3, #384]
    f264:	edc3 7a5e 	fsts	s15, [r3, #376]
    f268:	f8c3 218c 	str.w	r2, [r3, #396]
    f26c:	2201      	movs	r2, #1
    f26e:	f8c3 2184 	str.w	r2, [r3, #388]
    f272:	f8c3 217c 	str.w	r2, [r3, #380]
    f276:	f503 73bc 	add.w	r3, r3, #376	; 0x178
    f27a:	e014      	b.n	f2a6 <_ZN7android22QualcommCameraHardware21initDefaultParametersEv+0x956>
    f27c:	4811      	ldr	r0, [pc, #68]	(f2c4 <_ZN7android22QualcommCameraHardware21initDefaultParametersEv+0x974>)
    f27e:	2201      	movs	r2, #1
    f280:	f44f 717a 	mov.w	r1, #1000	; 0x3e8
    f284:	4478      	add	r0, pc
    f286:	edc0 6a68 	fsts	s13, [r0, #416]
    f28a:	ed80 7a66 	fsts	s14, [r0, #408]
    f28e:	edc0 7a64 	fsts	s15, [r0, #400]
    f292:	f8c0 11a4 	str.w	r1, [r0, #420]
    f296:	f500 73c8 	add.w	r3, r0, #400	; 0x190
    f29a:	f8c0 219c 	str.w	r2, [r0, #412]
    f29e:	f8c0 2194 	str.w	r2, [r0, #404]
    f2a2:	f04f 1004 	mov.w	r0, #262148	; 0x40004
    f2a6:	2105      	movs	r1, #5
    f2a8:	3202      	adds	r2, #2
    f2aa:	f7ff ff37 	bl	f11c <_ZN7android22QualcommCameraHardware21initDefaultParametersEv+0x7cc>
    f2ae:	bd10      	pop	{r4, pc}
    f2b0:	0000      	lsls	r0, r0, #0
    f2b2:	0000      	lsls	r0, r0, #0
    f2b4:	0000      	lsls	r0, r0, #0
    f2b6:	404e      	eors	r6, r1
    f2b8:	0000      	lsls	r0, r0, #0
    f2ba:	0000      	lsls	r0, r0, #0
    f2bc:	4000      	ands	r0, r0
    f2be:	408f      	lsls	r7, r1
    f2c0:	5702      	ldrsb	r2, [r0, r4]
    f2c2:	0000      	lsls	r0, r0, #0
    f2c4:	56d8      	ldrsb	r0, [r3, r3]
	...

0000f2c8 <_ZN7android22QualcommCameraHardware16setGpsParametersEv>:
    f2c8:	b5f7      	push	{r0, r1, r2, r4, r5, r6, r7, lr}
    f2ca:	4c3d      	ldr	r4, [pc, #244]	(f3c0 <_ZN7android22QualcommCameraHardware16setGpsParametersEv+0xf8>)
    f2cc:	4b3d      	ldr	r3, [pc, #244]	(f3c4 <_ZN7android22QualcommCameraHardware16setGpsParametersEv+0xfc>)
    f2ce:	f100 0508 	add.w	r5, r0, #8	; 0x8
    f2d2:	447c      	add	r4, pc
    f2d4:	4628      	mov	r0, r5
    f2d6:	58e1      	ldr	r1, [r4, r3]
    f2d8:	f7f8 eb10 	blx	78fc <_ZN7android22QualcommCameraHardware18filterPictureSizesEv-0x3f0>
    f2dc:	4601      	mov	r1, r0
    f2de:	2800      	cmp	r0, #0
    f2e0:	d06c      	beq.n	f3bc <_ZN7android22QualcommCameraHardware16setGpsParametersEv+0xf4>
    f2e2:	f04f 1002 	mov.w	r0, #131074	; 0x20002
    f2e6:	f7ff ff8f 	bl	f208 <_ZN7android22QualcommCameraHardware21initDefaultParametersEv+0x8b8>
    f2ea:	4837      	ldr	r0, [pc, #220]	(f3c8 <_ZN7android22QualcommCameraHardware16setGpsParametersEv+0x100>)
    f2ec:	5821      	ldr	r1, [r4, r0]
    f2ee:	4628      	mov	r0, r5
    f2f0:	f7f8 eb04 	blx	78fc <_ZN7android22QualcommCameraHardware18filterPictureSizesEv-0x3f0>
    f2f4:	4601      	mov	r1, r0
    f2f6:	b188      	cbz	r0, f31c <_ZN7android22QualcommCameraHardware16setGpsParametersEv+0x54>
    f2f8:	4e34      	ldr	r6, [pc, #208]	(f3cc <_ZN7android22QualcommCameraHardware16setGpsParametersEv+0x104>)
    f2fa:	2201      	movs	r2, #1
    f2fc:	447e      	add	r6, pc
    f2fe:	f506 77d4 	add.w	r7, r6, #424	; 0x1a8
    f302:	4638      	mov	r0, r7
    f304:	f7f8 ec20 	blx	7b48 <_ZN7android22QualcommCameraHardware18filterPictureSizesEv-0x1a4>
    f308:	2100      	movs	r1, #0
    f30a:	f886 11a9 	strb.w	r1, [r6, #425]
    f30e:	2102      	movs	r1, #2
    f310:	f04f 1001 	mov.w	r0, #65537	; 0x10001
    f314:	460a      	mov	r2, r1
    f316:	463b      	mov	r3, r7
    f318:	f7ff ff00 	bl	f11c <_ZN7android22QualcommCameraHardware21initDefaultParametersEv+0x7cc>
    f31c:	4a2c      	ldr	r2, [pc, #176]	(f3d0 <_ZN7android22QualcommCameraHardware16setGpsParametersEv+0x108>)
    f31e:	4628      	mov	r0, r5
    f320:	58a1      	ldr	r1, [r4, r2]
    f322:	f7f8 eaec 	blx	78fc <_ZN7android22QualcommCameraHardware18filterPictureSizesEv-0x3f0>
    f326:	4601      	mov	r1, r0
    f328:	b1f0      	cbz	r0, f368 <_ZN7android22QualcommCameraHardware16setGpsParametersEv+0xa0>
    f32a:	f04f 1004 	mov.w	r0, #262148	; 0x40004
    f32e:	f7ff ff6b 	bl	f208 <_ZN7android22QualcommCameraHardware21initDefaultParametersEv+0x8b8>
    f332:	f8df c0a0 	ldr.w	ip, [pc, #160]	; f3d4 <_ZN7android22QualcommCameraHardware16setGpsParametersEv+0x10c>
    f336:	4628      	mov	r0, r5
    f338:	f854 100c 	ldr.w	r1, [r4, ip]
    f33c:	f7f8 eade 	blx	78fc <_ZN7android22QualcommCameraHardware18filterPictureSizesEv-0x3f0>
    f340:	4601      	mov	r1, r0
    f342:	b188      	cbz	r0, f368 <_ZN7android22QualcommCameraHardware16setGpsParametersEv+0xa0>
    f344:	4e24      	ldr	r6, [pc, #144]	(f3d8 <_ZN7android22QualcommCameraHardware16setGpsParametersEv+0x110>)
    f346:	2201      	movs	r2, #1
    f348:	447e      	add	r6, pc
    f34a:	f506 77d6 	add.w	r7, r6, #428	; 0x1ac
    f34e:	4638      	mov	r0, r7
    f350:	f7f8 ebfa 	blx	7b48 <_ZN7android22QualcommCameraHardware18filterPictureSizesEv-0x1a4>
    f354:	2102      	movs	r1, #2
    f356:	2300      	movs	r3, #0
    f358:	f04f 1003 	mov.w	r0, #196611	; 0x30003
    f35c:	f886 31ad 	strb.w	r3, [r6, #429]
    f360:	460a      	mov	r2, r1
    f362:	463b      	mov	r3, r7
    f364:	f7ff feda 	bl	f11c <_ZN7android22QualcommCameraHardware21initDefaultParametersEv+0x7cc>
    f368:	f8df e070 	ldr.w	lr, [pc, #112]	; f3dc <_ZN7android22QualcommCameraHardware16setGpsParametersEv+0x114>
    f36c:	4628      	mov	r0, r5
    f36e:	f854 100e 	ldr.w	r1, [r4, lr]
    f372:	f7f8 eac4 	blx	78fc <_ZN7android22QualcommCameraHardware18filterPictureSizesEv-0x3f0>
    f376:	b308      	cbz	r0, f3bc <_ZN7android22QualcommCameraHardware16setGpsParametersEv+0xf4>
    f378:	f7f8 ebb6 	blx	7ae8 <_ZN7android22QualcommCameraHardware18filterPictureSizesEv-0x204>
    f37c:	4918      	ldr	r1, [pc, #96]	(f3e0 <_ZN7android22QualcommCameraHardware16setGpsParametersEv+0x118>)
    f37e:	f44f 727a 	mov.w	r2, #1000	; 0x3e8
    f382:	4479      	add	r1, pc
    f384:	f501 73d8 	add.w	r3, r1, #432	; 0x1b0
    f388:	f8c1 21b4 	str.w	r2, [r1, #436]
    f38c:	2201      	movs	r2, #1
    f38e:	f8c1 01b0 	str.w	r0, [r1, #432]
    f392:	2105      	movs	r1, #5
    f394:	f04f 1006 	mov.w	r0, #393222	; 0x60006
    f398:	f7ff fec0 	bl	f11c <_ZN7android22QualcommCameraHardware21initDefaultParametersEv+0x7cc>
    f39c:	4811      	ldr	r0, [pc, #68]	(f3e4 <_ZN7android22QualcommCameraHardware16setGpsParametersEv+0x11c>)
    f39e:	5821      	ldr	r1, [r4, r0]
    f3a0:	4628      	mov	r0, r5
    f3a2:	f7f8 eab8 	blx	7914 <_ZN7android22QualcommCameraHardware18filterPictureSizesEv-0x3d8>
    f3a6:	2801      	cmp	r0, #1
    f3a8:	d808      	bhi.n	f3bc <_ZN7android22QualcommCameraHardware16setGpsParametersEv+0xf4>
    f3aa:	ab02      	add	r3, sp, #8
    f3ac:	2101      	movs	r1, #1
    f3ae:	460a      	mov	r2, r1
    f3b0:	f843 0d04 	str.w	r0, [r3, #-4]!
    f3b4:	f04f 1005 	mov.w	r0, #327685	; 0x50005
    f3b8:	f7ff feb0 	bl	f11c <_ZN7android22QualcommCameraHardware21initDefaultParametersEv+0x7cc>
    f3bc:	bdfe      	pop	{r1, r2, r3, r4, r5, r6, r7, pc}
    f3be:	bf00      	nop
    f3c0:	5422      	strb	r2, [r4, r0]
    f3c2:	0000      	lsls	r0, r0, #0
    f3c4:	fea4 ffff 	mcr2	15, 5, pc, cr4, cr15, {7}
    f3c8:	fea8 ffff 	mcr2	15, 5, pc, cr8, cr15, {7}
    f3cc:	5660      	ldrsb	r0, [r4, r1]
    f3ce:	0000      	lsls	r0, r0, #0
    f3d0:	feac ffff 	mcr2	15, 5, pc, cr12, cr15, {7}
    f3d4:	feb0 ffff 	mrc2	15, 5, pc, cr0, cr15, {7}
    f3d8:	5614      	ldrsb	r4, [r2, r0]
    f3da:	0000      	lsls	r0, r0, #0
    f3dc:	feb8 ffff 	mrc2	15, 5, pc, cr8, cr15, {7}
    f3e0:	55da      	strb	r2, [r3, r7]
    f3e2:	0000      	lsls	r0, r0, #0
    f3e4:	feb4 ffff 	mrc2	15, 5, pc, cr4, cr15, {7}

0000f3e8 <_ZN7android22QualcommCameraHardware18native_jpeg_encodeEv>:
    f3e8:	e92d 47f0 	stmdb	sp!, {r4, r5, r6, r7, r8, r9, sl, lr}
    f3ec:	4c84      	ldr	r4, [pc, #528]	(f600 <_ZN7android22QualcommCameraHardware18native_jpeg_encodeEv+0x218>)
    f3ee:	4985      	ldr	r1, [pc, #532]	(f604 <_ZN7android22QualcommCameraHardware18native_jpeg_encodeEv+0x21c>)
    f3f0:	4605      	mov	r5, r0
    f3f2:	447c      	add	r4, pc
    f3f4:	b0a2      	sub	sp, #136
    f3f6:	f105 0808 	add.w	r8, r5, #8	; 0x8
    f3fa:	5860      	ldr	r0, [r4, r1]
    f3fc:	4982      	ldr	r1, [pc, #520]	(f608 <_ZN7android22QualcommCameraHardware18native_jpeg_encodeEv+0x220>)
    f3fe:	6803      	ldr	r3, [r0, #0]
    f400:	4479      	add	r1, pc
    f402:	4640      	mov	r0, r8
    f404:	9321      	str	r3, [sp, #132]
    f406:	f7f8 ea86 	blx	7914 <_ZN7android22QualcommCameraHardware18filterPictureSizesEv-0x3d8>
    f40a:	2800      	cmp	r0, #0
    f40c:	4607      	mov	r7, r0
    f40e:	db14      	blt.n	f43a <_ZN7android22QualcommCameraHardware18native_jpeg_encodeEv+0x52>
    f410:	4e7e      	ldr	r6, [pc, #504]	(f60c <_ZN7android22QualcommCameraHardware18native_jpeg_encodeEv+0x224>)
    f412:	463b      	mov	r3, r7
    f414:	4a7e      	ldr	r2, [pc, #504]	(f610 <_ZN7android22QualcommCameraHardware18native_jpeg_encodeEv+0x228>)
    f416:	2002      	movs	r0, #2
    f418:	447e      	add	r6, pc
    f41a:	447a      	add	r2, pc
    f41c:	4631      	mov	r1, r6
    f41e:	f7f8 e9d8 	blx	77d0 <_ZN7android22QualcommCameraHardware18filterPictureSizesEv-0x51c>
    f422:	f8df c1f0 	ldr.w	ip, [pc, #496]	; f614 <_ZN7android22QualcommCameraHardware18native_jpeg_encodeEv+0x22c>
    f426:	4638      	mov	r0, r7
    f428:	f854 300c 	ldr.w	r3, [r4, ip]
    f42c:	681a      	ldr	r2, [r3, #0]
    f42e:	4790      	blx	r2
    f430:	b2c7      	uxtb	r7, r0
    f432:	b917      	cbnz	r7, f43a <_ZN7android22QualcommCameraHardware18native_jpeg_encodeEv+0x52>
    f434:	4a78      	ldr	r2, [pc, #480]	(f618 <_ZN7android22QualcommCameraHardware18native_jpeg_encodeEv+0x230>)
    f436:	447a      	add	r2, pc
    f438:	e036      	b.n	f4a8 <_ZN7android22QualcommCameraHardware18native_jpeg_encodeEv+0xc0>
    f43a:	4978      	ldr	r1, [pc, #480]	(f61c <_ZN7android22QualcommCameraHardware18native_jpeg_encodeEv+0x234>)
    f43c:	4640      	mov	r0, r8
    f43e:	4479      	add	r1, pc
    f440:	f7f8 ea68 	blx	7914 <_ZN7android22QualcommCameraHardware18filterPictureSizesEv-0x3d8>
    f444:	2800      	cmp	r0, #0
    f446:	4607      	mov	r7, r0
    f448:	db12      	blt.n	f470 <_ZN7android22QualcommCameraHardware18native_jpeg_encodeEv+0x88>
    f44a:	4e75      	ldr	r6, [pc, #468]	(f620 <_ZN7android22QualcommCameraHardware18native_jpeg_encodeEv+0x238>)
    f44c:	463b      	mov	r3, r7
    f44e:	4a75      	ldr	r2, [pc, #468]	(f624 <_ZN7android22QualcommCameraHardware18native_jpeg_encodeEv+0x23c>)
    f450:	2002      	movs	r0, #2
    f452:	447e      	add	r6, pc
    f454:	447a      	add	r2, pc
    f456:	4631      	mov	r1, r6
    f458:	f7f8 e9ba 	blx	77d0 <_ZN7android22QualcommCameraHardware18filterPictureSizesEv-0x51c>
    f45c:	4a72      	ldr	r2, [pc, #456]	(f628 <_ZN7android22QualcommCameraHardware18native_jpeg_encodeEv+0x240>)
    f45e:	58a0      	ldr	r0, [r4, r2]
    f460:	6801      	ldr	r1, [r0, #0]
    f462:	4638      	mov	r0, r7
    f464:	4788      	blx	r1
    f466:	b2c7      	uxtb	r7, r0
    f468:	b917      	cbnz	r7, f470 <_ZN7android22QualcommCameraHardware18native_jpeg_encodeEv+0x88>
    f46a:	4a70      	ldr	r2, [pc, #448]	(f62c <_ZN7android22QualcommCameraHardware18native_jpeg_encodeEv+0x244>)
    f46c:	447a      	add	r2, pc
    f46e:	e01b      	b.n	f4a8 <_ZN7android22QualcommCameraHardware18native_jpeg_encodeEv+0xc0>
    f470:	496f      	ldr	r1, [pc, #444]	(f630 <_ZN7android22QualcommCameraHardware18native_jpeg_encodeEv+0x248>)
    f472:	4640      	mov	r0, r8
    f474:	4479      	add	r1, pc
    f476:	f7f8 ea4e 	blx	7914 <_ZN7android22QualcommCameraHardware18filterPictureSizesEv-0x3d8>
    f47a:	2800      	cmp	r0, #0
    f47c:	4607      	mov	r7, r0
    f47e:	db18      	blt.n	f4b2 <_ZN7android22QualcommCameraHardware18native_jpeg_encodeEv+0xca>
    f480:	4e6c      	ldr	r6, [pc, #432]	(f634 <_ZN7android22QualcommCameraHardware18native_jpeg_encodeEv+0x24c>)
    f482:	463b      	mov	r3, r7
    f484:	4a6c      	ldr	r2, [pc, #432]	(f638 <_ZN7android22QualcommCameraHardware18native_jpeg_encodeEv+0x250>)
    f486:	2002      	movs	r0, #2
    f488:	447e      	add	r6, pc
    f48a:	447a      	add	r2, pc
    f48c:	4631      	mov	r1, r6
    f48e:	f7f8 e9a0 	blx	77d0 <_ZN7android22QualcommCameraHardware18filterPictureSizesEv-0x51c>
    f492:	f8df c1a8 	ldr.w	ip, [pc, #424]	; f63c <_ZN7android22QualcommCameraHardware18native_jpeg_encodeEv+0x254>
    f496:	4638      	mov	r0, r7
    f498:	f854 100c 	ldr.w	r1, [r4, ip]
    f49c:	680b      	ldr	r3, [r1, #0]
    f49e:	4798      	blx	r3
    f4a0:	b2c7      	uxtb	r7, r0
    f4a2:	b937      	cbnz	r7, f4b2 <_ZN7android22QualcommCameraHardware18native_jpeg_encodeEv+0xca>
    f4a4:	4a66      	ldr	r2, [pc, #408]	(f640 <_ZN7android22QualcommCameraHardware18native_jpeg_encodeEv+0x258>)
    f4a6:	447a      	add	r2, pc
    f4a8:	2006      	movs	r0, #6
    f4aa:	4631      	mov	r1, r6
    f4ac:	f7f8 e990 	blx	77d0 <_ZN7android22QualcommCameraHardware18filterPictureSizesEv-0x51c>
    f4b0:	e08f      	b.n	f5d2 <_ZN7android22QualcommCameraHardware18native_jpeg_encodeEv+0x1ea>
    f4b2:	4628      	mov	r0, r5
    f4b4:	ae06      	add	r6, sp, #24
    f4b6:	f7ff ff07 	bl	f2c8 <_ZN7android22QualcommCameraHardware16setGpsParametersEv>
    f4ba:	4630      	mov	r0, r6
    f4bc:	f7f8 eade 	blx	7a7c <_ZN7android22QualcommCameraHardware18filterPictureSizesEv-0x270>
    f4c0:	4630      	mov	r0, r6
    f4c2:	f7f8 eb48 	blx	7b54 <_ZN7android22QualcommCameraHardware18filterPictureSizesEv-0x198>
    f4c6:	4e5f      	ldr	r6, [pc, #380]	(f644 <_ZN7android22QualcommCameraHardware18native_jpeg_encodeEv+0x25c>)
    f4c8:	4a5f      	ldr	r2, [pc, #380]	(f648 <_ZN7android22QualcommCameraHardware18native_jpeg_encodeEv+0x260>)
    f4ca:	2114      	movs	r1, #20
    f4cc:	447e      	add	r6, pc
    f4ce:	f04f 0800 	mov.w	r8, #0	; 0x0
    f4d2:	f506 77dc 	add.w	r7, r6, #440	; 0x1b8
    f4d6:	447a      	add	r2, pc
    f4d8:	f10d 0978 	add.w	r9, sp, #120	; 0x78
    f4dc:	4603      	mov	r3, r0
    f4de:	4638      	mov	r0, r7
    f4e0:	f7f8 eb3e 	blx	7b60 <_ZN7android22QualcommCameraHardware18filterPictureSizesEv-0x18c>
    f4e4:	463b      	mov	r3, r7
    f4e6:	f886 81cb 	strb.w	r8, [r6, #459]
    f4ea:	2102      	movs	r1, #2
    f4ec:	4840      	ldr	r0, [pc, #256]	(f5f0 <_ZN7android22QualcommCameraHardware18native_jpeg_encodeEv+0x208>)
    f4ee:	2214      	movs	r2, #20
    f4f0:	f7ff fe14 	bl	f11c <_ZN7android22QualcommCameraHardware21initDefaultParametersEv+0x7cc>
    f4f4:	463b      	mov	r3, r7
    f4f6:	483f      	ldr	r0, [pc, #252]	(f5f4 <_ZN7android22QualcommCameraHardware18native_jpeg_encodeEv+0x20c>)
    f4f8:	2102      	movs	r1, #2
    f4fa:	2214      	movs	r2, #20
    f4fc:	af07      	add	r7, sp, #28
    f4fe:	f7ff fe0d 	bl	f11c <_ZN7android22QualcommCameraHardware21initDefaultParametersEv+0x7cc>
    f502:	4952      	ldr	r1, [pc, #328]	(f64c <_ZN7android22QualcommCameraHardware18native_jpeg_encodeEv+0x264>)
    f504:	220b      	movs	r2, #11
    f506:	4648      	mov	r0, r9
    f508:	4479      	add	r1, pc
    f50a:	f7f8 e974 	blx	77f4 <_ZN7android22QualcommCameraHardware18filterPictureSizesEv-0x4f8>
    f50e:	4850      	ldr	r0, [pc, #320]	(f650 <_ZN7android22QualcommCameraHardware18native_jpeg_encodeEv+0x268>)
    f510:	4639      	mov	r1, r7
    f512:	f88d 8083 	strb.w	r8, [sp, #131]
    f516:	4478      	add	r0, pc
    f518:	f7f8 eb28 	blx	7b6c <_ZN7android22QualcommCameraHardware18filterPictureSizesEv-0x180>
    f51c:	4638      	mov	r0, r7
    f51e:	f7f8 eb2c 	blx	7b78 <_ZN7android22QualcommCameraHardware18filterPictureSizesEv-0x174>
    f522:	a922      	add	r1, sp, #136
    f524:	464b      	mov	r3, r9
    f526:	220c      	movs	r2, #12
    f528:	eb01 0c00 	add.w	ip, r1, r0
    f52c:	4682      	mov	sl, r0
    f52e:	2102      	movs	r1, #2
    f530:	4831      	ldr	r0, [pc, #196]	(f5f8 <_ZN7android22QualcommCameraHardware18native_jpeg_encodeEv+0x210>)
    f532:	f80c 8c6c 	strb.w	r8, [ip, #-108]
    f536:	f7ff fdf1 	bl	f11c <_ZN7android22QualcommCameraHardware21initDefaultParametersEv+0x7cc>
    f53a:	4652      	mov	r2, sl
    f53c:	463b      	mov	r3, r7
    f53e:	482f      	ldr	r0, [pc, #188]	(f5fc <_ZN7android22QualcommCameraHardware18native_jpeg_encodeEv+0x214>)
    f540:	2102      	movs	r1, #2
    f542:	f8df 8110 	ldr.w	r8, [pc, #272]	; f654 <_ZN7android22QualcommCameraHardware18native_jpeg_encodeEv+0x26c>
    f546:	f7ff fde9 	bl	f11c <_ZN7android22QualcommCameraHardware21initDefaultParametersEv+0x7cc>
    f54a:	6bab      	ldr	r3, [r5, #56]
    f54c:	f854 0008 	ldr.w	r0, [r4, r8]
    f550:	6999      	ldr	r1, [r3, #24]
    f552:	6807      	ldr	r7, [r0, #0]
    f554:	680a      	ldr	r2, [r1, #0]
    f556:	f852 0c0c 	ldr.w	r0, [r2, #-12]
    f55a:	1808      	adds	r0, r1, r0
    f55c:	f7f8 fbac 	bl	7cb8 <_ZN7android22QualcommCameraHardware18filterPictureSizesEv-0x34>
    f560:	6bab      	ldr	r3, [r5, #56]
    f562:	4682      	mov	sl, r0
    f564:	6998      	ldr	r0, [r3, #24]
    f566:	6802      	ldr	r2, [r0, #0]
    f568:	6891      	ldr	r1, [r2, #8]
    f56a:	4788      	blx	r1
    f56c:	6beb      	ldr	r3, [r5, #60]
    f56e:	6999      	ldr	r1, [r3, #24]
    f570:	680a      	ldr	r2, [r1, #0]
    f572:	4681      	mov	r9, r0
    f574:	f852 0c0c 	ldr.w	r0, [r2, #-12]
    f578:	1808      	adds	r0, r1, r0
    f57a:	f7f8 fb9d 	bl	7cb8 <_ZN7android22QualcommCameraHardware18filterPictureSizesEv-0x34>
    f57e:	6beb      	ldr	r3, [r5, #60]
    f580:	4680      	mov	r8, r0
    f582:	6998      	ldr	r0, [r3, #24]
    f584:	6801      	ldr	r1, [r0, #0]
    f586:	688a      	ldr	r2, [r1, #8]
    f588:	4790      	blx	r2
    f58a:	f8df c0cc 	ldr.w	ip, [pc, #204]	; f658 <_ZN7android22QualcommCameraHardware18native_jpeg_encodeEv+0x270>
    f58e:	f505 739e 	add.w	r3, r5, #316	; 0x13c
    f592:	9301      	str	r3, [sp, #4]
    f594:	f505 7281 	add.w	r2, r5, #258	; 0x102
    f598:	9000      	str	r0, [sp, #0]
    f59a:	f854 000c 	ldr.w	r0, [r4, ip]
    f59e:	9002      	str	r0, [sp, #8]
    f5a0:	f8d6 1174 	ldr.w	r1, [r6, #372]
    f5a4:	9103      	str	r1, [sp, #12]
    f5a6:	4651      	mov	r1, sl
    f5a8:	686b      	ldr	r3, [r5, #4]
    f5aa:	eb03 70d3 	add.w	r0, r3, r3, lsr #31
    f5ae:	4643      	mov	r3, r8
    f5b0:	1045      	asrs	r5, r0, #1
    f5b2:	4610      	mov	r0, r2
    f5b4:	9504      	str	r5, [sp, #16]
    f5b6:	464a      	mov	r2, r9
    f5b8:	47b8      	blx	r7
    f5ba:	4605      	mov	r5, r0
    f5bc:	b108      	cbz	r0, f5c2 <_ZN7android22QualcommCameraHardware18native_jpeg_encodeEv+0x1da>
    f5be:	2701      	movs	r7, #1
    f5c0:	e007      	b.n	f5d2 <_ZN7android22QualcommCameraHardware18native_jpeg_encodeEv+0x1ea>
    f5c2:	4926      	ldr	r1, [pc, #152]	(f65c <_ZN7android22QualcommCameraHardware18native_jpeg_encodeEv+0x274>)
    f5c4:	2006      	movs	r0, #6
    f5c6:	4a26      	ldr	r2, [pc, #152]	(f660 <_ZN7android22QualcommCameraHardware18native_jpeg_encodeEv+0x278>)
    f5c8:	462f      	mov	r7, r5
    f5ca:	4479      	add	r1, pc
    f5cc:	447a      	add	r2, pc
    f5ce:	f7f8 e900 	blx	77d0 <_ZN7android22QualcommCameraHardware18filterPictureSizesEv-0x51c>
    f5d2:	f8df e030 	ldr.w	lr, [pc, #48]	; f604 <_ZN7android22QualcommCameraHardware18native_jpeg_encodeEv+0x21c>
    f5d6:	4638      	mov	r0, r7
    f5d8:	9a21      	ldr	r2, [sp, #132]
    f5da:	f854 100e 	ldr.w	r1, [r4, lr]
    f5de:	680b      	ldr	r3, [r1, #0]
    f5e0:	429a      	cmp	r2, r3
    f5e2:	d001      	beq.n	f5e8 <_ZN7android22QualcommCameraHardware18native_jpeg_encodeEv+0x200>
    f5e4:	f7f8 e930 	blx	7848 <_ZN7android22QualcommCameraHardware18filterPictureSizesEv-0x4a4>
    f5e8:	b022      	add	sp, #136
    f5ea:	e8bd 87f0 	ldmia.w	sp!, {r4, r5, r6, r7, r8, r9, sl, pc}
    f5ee:	bf00      	nop
    f5f0:	9003      	str	r0, [sp, #12]
    f5f2:	003a      	lsls	r2, r7, #0
    f5f4:	9004      	str	r0, [sp, #16]
    f5f6:	003b      	lsls	r3, r7, #0
    f5f8:	010f      	lsls	r7, r1, #4
    f5fa:	0021      	lsls	r1, r4, #0
    f5fc:	0110      	lsls	r0, r2, #4
    f5fe:	0022      	lsls	r2, r4, #0
    f600:	5302      	strh	r2, [r0, r4]
    f602:	0000      	lsls	r0, r0, #0
    f604:	fe80 ffff 	mcr2	15, 4, pc, cr0, cr15, {7}
    f608:	3d3e      	subs	r5, #62
    f60a:	0000      	lsls	r0, r0, #0
    f60c:	0f77      	lsrs	r7, r6, #29
    f60e:	0000      	lsls	r0, r0, #0
    f610:	3d31      	subs	r5, #49
    f612:	0000      	lsls	r0, r0, #0
    f614:	ff58 ffff 	undefined
    f618:	3d4b      	subs	r5, #75
    f61a:	0000      	lsls	r0, r0, #0
    f61c:	3d6e      	subs	r5, #110
    f61e:	0000      	lsls	r0, r0, #0
    f620:	0f3d      	lsrs	r5, r7, #28
    f622:	0000      	lsls	r0, r0, #0
    f624:	3d6f      	subs	r5, #111
    f626:	0000      	lsls	r0, r0, #0
    f628:	ff5c ffff 	undefined
    f62c:	3d8e      	subs	r5, #142
    f62e:	0000      	lsls	r0, r0, #0
    f630:	3db6      	subs	r5, #182
    f632:	0000      	lsls	r0, r0, #0
    f634:	0f07      	lsrs	r7, r0, #28
    f636:	0000      	lsls	r0, r0, #0
    f638:	3da9      	subs	r5, #169
    f63a:	0000      	lsls	r0, r0, #0
    f63c:	ff54 ffff 	undefined
    f640:	3daf      	subs	r5, #175
    f642:	0000      	lsls	r0, r0, #0
    f644:	5490      	strb	r0, [r2, r2]
    f646:	0000      	lsls	r0, r0, #0
    f648:	3da6      	subs	r5, #166
    f64a:	0000      	lsls	r0, r0, #0
    f64c:	3d86      	subs	r5, #134
    f64e:	0000      	lsls	r0, r0, #0
    f650:	3a08      	subs	r2, #8
    f652:	0000      	lsls	r0, r0, #0
    f654:	ff3c ffff 	undefined
    f658:	fff8 ffff 	undefined
    f65c:	0dc5      	lsrs	r5, r0, #23
    f65e:	0000      	lsls	r0, r0, #0
    f660:	3cce      	subs	r4, #206
	...

0000f664 <_ZN7android22QualcommCameraHardware17receiveRawPictureEv>:
    f664:	e92d 43f0 	stmdb	sp!, {r4, r5, r6, r7, r8, r9, lr}
    f668:	4f8d      	ldr	r7, [pc, #564]	(f8a0 <_ZN7android22QualcommCameraHardware17receiveRawPictureEv+0x23c>)
    f66a:	4a8e      	ldr	r2, [pc, #568]	(f8a4 <_ZN7android22QualcommCameraHardware17receiveRawPictureEv+0x240>)
    f66c:	4604      	mov	r4, r0
    f66e:	447f      	add	r7, pc
    f670:	b085      	sub	sp, #20
    f672:	447a      	add	r2, pc
    f674:	4639      	mov	r1, r7
    f676:	2002      	movs	r0, #2
    f678:	4d8b      	ldr	r5, [pc, #556]	(f8a8 <_ZN7android22QualcommCameraHardware17receiveRawPictureEv+0x244>)
    f67a:	f7f8 e8aa 	blx	77d0 <_ZN7android22QualcommCameraHardware18filterPictureSizesEv-0x51c>
    f67e:	f104 00ac 	add.w	r0, r4, #172	; 0xac
    f682:	f7f8 ff9b 	bl	85bc <_ZN7android22QualcommCameraHardware26receiveJpegPictureFragmentEPhj+0x114>
    f686:	f8d4 31f0 	ldr.w	r3, [r4, #496]
    f68a:	447d      	add	r5, pc
    f68c:	2b00      	cmp	r3, #0
    f68e:	f000 80b1 	beq.w	f7f4 <_ZN7android22QualcommCameraHardware17receiveRawPictureEv+0x190>
    f692:	f8d4 01e8 	ldr.w	r0, [r4, #488]
    f696:	0603      	lsls	r3, r0, #24
    f698:	f140 80ac 	bpl.w	f7f4 <_ZN7android22QualcommCameraHardware17receiveRawPictureEv+0x190>
    f69c:	f504 769e 	add.w	r6, r4, #316	; 0x13c
    f6a0:	f8d4 00dc 	ldr.w	r0, [r4, #220]
    f6a4:	4631      	mov	r1, r6
    f6a6:	f7f9 fd7d 	bl	91a4 <_ZN7android22QualcommCameraHardware8PmemPoolD2Ev+0x120>
    f6aa:	b920      	cbnz	r0, f6b6 <_ZN7android22QualcommCameraHardware17receiveRawPictureEv+0x52>
    f6ac:	4a7f      	ldr	r2, [pc, #508]	(f8ac <_ZN7android22QualcommCameraHardware17receiveRawPictureEv+0x248>)
    f6ae:	3006      	adds	r0, #6
    f6b0:	4639      	mov	r1, r7
    f6b2:	447a      	add	r2, pc
    f6b4:	e0eb      	b.n	f88e <_ZN7android22QualcommCameraHardware17receiveRawPictureEv+0x22a>
    f6b6:	f8d4 114c 	ldr.w	r1, [r4, #332]
    f6ba:	f8d4 713c 	ldr.w	r7, [r4, #316]
    f6be:	f8d4 3140 	ldr.w	r3, [r4, #320]
    f6c2:	f021 0101 	bic.w	r1, r1, #1	; 0x1
    f6c6:	f8d4 2150 	ldr.w	r2, [r4, #336]
    f6ca:	f027 0701 	bic.w	r7, r7, #1	; 0x1
    f6ce:	f023 0001 	bic.w	r0, r3, #1	; 0x1
    f6d2:	f8c4 713c 	str.w	r7, [r4, #316]
    f6d6:	f022 0201 	bic.w	r2, r2, #1	; 0x1
    f6da:	f8c4 0140 	str.w	r0, [r4, #320]
    f6de:	f8c4 114c 	str.w	r1, [r4, #332]
    f6e2:	f8c4 2150 	str.w	r2, [r4, #336]
    f6e6:	2900      	cmp	r1, #0
    f6e8:	d065      	beq.n	f7b6 <_ZN7android22QualcommCameraHardware17receiveRawPictureEv+0x152>
    f6ea:	2a00      	cmp	r2, #0
    f6ec:	d063      	beq.n	f7b6 <_ZN7android22QualcommCameraHardware17receiveRawPictureEv+0x152>
    f6ee:	6863      	ldr	r3, [r4, #4]
    f6f0:	eb03 0e01 	add.w	lr, r3, r1
    f6f4:	f8d4 1154 	ldr.w	r1, [r4, #340]
    f6f8:	458e      	cmp	lr, r1
    f6fa:	d25c      	bcs.n	f7b6 <_ZN7android22QualcommCameraHardware17receiveRawPictureEv+0x152>
    f6fc:	f8d4 1158 	ldr.w	r1, [r4, #344]
    f700:	189a      	adds	r2, r3, r2
    f702:	428a      	cmp	r2, r1
    f704:	d257      	bcs.n	f7b6 <_ZN7android22QualcommCameraHardware17receiveRawPictureEv+0x152>
    f706:	f8d4 1144 	ldr.w	r1, [r4, #324]
    f70a:	19df      	adds	r7, r3, r7
    f70c:	428f      	cmp	r7, r1
    f70e:	d252      	bcs.n	f7b6 <_ZN7android22QualcommCameraHardware17receiveRawPictureEv+0x152>
    f710:	181b      	adds	r3, r3, r0
    f712:	f8d4 0148 	ldr.w	r0, [r4, #328]
    f716:	4283      	cmp	r3, r0
    f718:	d24d      	bcs.n	f7b6 <_ZN7android22QualcommCameraHardware17receiveRawPictureEv+0x152>
    f71a:	4631      	mov	r1, r6
    f71c:	4620      	mov	r0, r4
    f71e:	f7f8 ffc5 	bl	86ac <_ZN7android22QualcommCameraHardware13notifyShutterEP13common_crop_t>
    f722:	6be1      	ldr	r1, [r4, #60]
    f724:	6860      	ldr	r0, [r4, #4]
    f726:	f8d4 714c 	ldr.w	r7, [r4, #332]
    f72a:	698b      	ldr	r3, [r1, #24]
    f72c:	f8d4 6150 	ldr.w	r6, [r4, #336]
    f730:	19c7      	adds	r7, r0, r7
    f732:	f8d4 9154 	ldr.w	r9, [r4, #340]
    f736:	681a      	ldr	r2, [r3, #0]
    f738:	1986      	adds	r6, r0, r6
    f73a:	f8d4 8158 	ldr.w	r8, [r4, #344]
    f73e:	f852 0c0c 	ldr.w	r0, [r2, #-12]
    f742:	1818      	adds	r0, r3, r0
    f744:	f7f8 fab8 	bl	7cb8 <_ZN7android22QualcommCameraHardware18filterPictureSizesEv-0x34>
    f748:	4641      	mov	r1, r8
    f74a:	463a      	mov	r2, r7
    f74c:	4633      	mov	r3, r6
    f74e:	9000      	str	r0, [sp, #0]
    f750:	4648      	mov	r0, r9
    f752:	f7f8 feed 	bl	8530 <_ZN7android22QualcommCameraHardware26receiveJpegPictureFragmentEPhj+0x88>
    f756:	6ba0      	ldr	r0, [r4, #56]
    f758:	6861      	ldr	r1, [r4, #4]
    f75a:	f8d4 713c 	ldr.w	r7, [r4, #316]
    f75e:	6983      	ldr	r3, [r0, #24]
    f760:	f8d4 6140 	ldr.w	r6, [r4, #320]
    f764:	19cf      	adds	r7, r1, r7
    f766:	f8d4 9144 	ldr.w	r9, [r4, #324]
    f76a:	681a      	ldr	r2, [r3, #0]
    f76c:	198e      	adds	r6, r1, r6
    f76e:	f8d4 8148 	ldr.w	r8, [r4, #328]
    f772:	f852 1c0c 	ldr.w	r1, [r2, #-12]
    f776:	1858      	adds	r0, r3, r1
    f778:	f7f8 fa9e 	bl	7cb8 <_ZN7android22QualcommCameraHardware18filterPictureSizesEv-0x34>
    f77c:	463a      	mov	r2, r7
    f77e:	4641      	mov	r1, r8
    f780:	4633      	mov	r3, r6
    f782:	9000      	str	r0, [sp, #0]
    f784:	4648      	mov	r0, r9
    f786:	f7f8 fed3 	bl	8530 <_ZN7android22QualcommCameraHardware26receiveJpegPictureFragmentEPhj+0x88>
    f78a:	6867      	ldr	r7, [r4, #4]
    f78c:	f8d4 314c 	ldr.w	r3, [r4, #332]
    f790:	f8d4 2150 	ldr.w	r2, [r4, #336]
    f794:	18f8      	adds	r0, r7, r3
    f796:	f8d4 313c 	ldr.w	r3, [r4, #316]
    f79a:	18b9      	adds	r1, r7, r2
    f79c:	f8d4 2140 	ldr.w	r2, [r4, #320]
    f7a0:	f8a4 010e 	strh.w	r0, [r4, #270]
    f7a4:	18f8      	adds	r0, r7, r3
    f7a6:	f8a4 1110 	strh.w	r1, [r4, #272]
    f7aa:	18b9      	adds	r1, r7, r2
    f7ac:	f8a4 0116 	strh.w	r0, [r4, #278]
    f7b0:	f8a4 1118 	strh.w	r1, [r4, #280]
    f7b4:	e008      	b.n	f7c8 <_ZN7android22QualcommCameraHardware17receiveRawPictureEv+0x164>
    f7b6:	2100      	movs	r1, #0
    f7b8:	4630      	mov	r0, r6
    f7ba:	2224      	movs	r2, #36
    f7bc:	f7f8 e976 	blx	7aac <_ZN7android22QualcommCameraHardware18filterPictureSizesEv-0x240>
    f7c0:	4620      	mov	r0, r4
    f7c2:	4631      	mov	r1, r6
    f7c4:	f7f8 ff72 	bl	86ac <_ZN7android22QualcommCameraHardware13notifyShutterEP13common_crop_t>
    f7c8:	f8d4 71f0 	ldr.w	r7, [r4, #496]
    f7cc:	b1cf      	cbz	r7, f802 <_ZN7android22QualcommCameraHardware17receiveRawPictureEv+0x19e>
    f7ce:	f8d4 31e8 	ldr.w	r3, [r4, #488]
    f7d2:	0618      	lsls	r0, r3, #24
    f7d4:	d515      	bpl.n	f802 <_ZN7android22QualcommCameraHardware17receiveRawPictureEv+0x19e>
    f7d6:	6c22      	ldr	r2, [r4, #64]
    f7d8:	ae03      	add	r6, sp, #12
    f7da:	4630      	mov	r0, r6
    f7dc:	69d1      	ldr	r1, [r2, #28]
    f7de:	f7f8 fc6d 	bl	80bc <_ZN7android2spINS_7IMemoryEEC1INS_10MemoryBaseEEERKNS0_IT_EE>
    f7e2:	2080      	movs	r0, #128
    f7e4:	4631      	mov	r1, r6
    f7e6:	f8d4 21f8 	ldr.w	r2, [r4, #504]
    f7ea:	47b8      	blx	r7
    f7ec:	4630      	mov	r0, r6
    f7ee:	f7f8 fd65 	bl	82bc <_ZN7android2spINS_7IMemoryEED1Ev>
    f7f2:	e006      	b.n	f802 <_ZN7android22QualcommCameraHardware17receiveRawPictureEv+0x19e>
    f7f4:	492e      	ldr	r1, [pc, #184]	(f8b0 <_ZN7android22QualcommCameraHardware17receiveRawPictureEv+0x24c>)
    f7f6:	2002      	movs	r0, #2
    f7f8:	4a2e      	ldr	r2, [pc, #184]	(f8b4 <_ZN7android22QualcommCameraHardware17receiveRawPictureEv+0x250>)
    f7fa:	4479      	add	r1, pc
    f7fc:	447a      	add	r2, pc
    f7fe:	f7f7 efe8 	blx	77d0 <_ZN7android22QualcommCameraHardware18filterPictureSizesEv-0x51c>
    f802:	f8d4 11f0 	ldr.w	r1, [r4, #496]
    f806:	2900      	cmp	r1, #0
    f808:	d032      	beq.n	f870 <_ZN7android22QualcommCameraHardware17receiveRawPictureEv+0x20c>
    f80a:	f8d4 01e8 	ldr.w	r0, [r4, #488]
    f80e:	05c1      	lsls	r1, r0, #23
    f810:	d52e      	bpl.n	f870 <_ZN7android22QualcommCameraHardware17receiveRawPictureEv+0x20c>
    f812:	2600      	movs	r6, #0
    f814:	f8c4 60c4 	str.w	r6, [r4, #196]
    f818:	f104 0688 	add.w	r6, r4, #136	; 0x88
    f81c:	4630      	mov	r0, r6
    f81e:	f7f8 fecd 	bl	85bc <_ZN7android22QualcommCameraHardware26receiveJpegPictureFragmentEPhj+0x114>
    f822:	f8df c094 	ldr.w	ip, [pc, #148]	; f8b8 <_ZN7android22QualcommCameraHardware17receiveRawPictureEv+0x254>
    f826:	f855 200c 	ldr.w	r2, [r5, ip]
    f82a:	6813      	ldr	r3, [r2, #0]
    f82c:	4798      	blx	r3
    f82e:	b1a0      	cbz	r0, f85a <_ZN7android22QualcommCameraHardware17receiveRawPictureEv+0x1f6>
    f830:	2101      	movs	r1, #1
    f832:	4630      	mov	r0, r6
    f834:	f884 1084 	strb.w	r1, [r4, #132]
    f838:	f7f7 efe8 	blx	780c <_ZN7android22QualcommCameraHardware18filterPictureSizesEv-0x4e0>
    f83c:	4620      	mov	r0, r4
    f83e:	f7ff fdd3 	bl	f3e8 <_ZN7android22QualcommCameraHardware18native_jpeg_encodeEv>
    f842:	b120      	cbz	r0, f84e <_ZN7android22QualcommCameraHardware17receiveRawPictureEv+0x1ea>
    f844:	491d      	ldr	r1, [pc, #116]	(f8bc <_ZN7android22QualcommCameraHardware17receiveRawPictureEv+0x258>)
    f846:	4a1e      	ldr	r2, [pc, #120]	(f8c0 <_ZN7android22QualcommCameraHardware17receiveRawPictureEv+0x25c>)
    f848:	4479      	add	r1, pc
    f84a:	447a      	add	r2, pc
    f84c:	e01e      	b.n	f88c <_ZN7android22QualcommCameraHardware17receiveRawPictureEv+0x228>
    f84e:	491d      	ldr	r1, [pc, #116]	(f8c4 <_ZN7android22QualcommCameraHardware17receiveRawPictureEv+0x260>)
    f850:	2006      	movs	r0, #6
    f852:	4a1d      	ldr	r2, [pc, #116]	(f8c8 <_ZN7android22QualcommCameraHardware17receiveRawPictureEv+0x264>)
    f854:	4479      	add	r1, pc
    f856:	447a      	add	r2, pc
    f858:	e00f      	b.n	f87a <_ZN7android22QualcommCameraHardware17receiveRawPictureEv+0x216>
    f85a:	491c      	ldr	r1, [pc, #112]	(f8cc <_ZN7android22QualcommCameraHardware17receiveRawPictureEv+0x268>)
    f85c:	2006      	movs	r0, #6
    f85e:	4a1c      	ldr	r2, [pc, #112]	(f8d0 <_ZN7android22QualcommCameraHardware17receiveRawPictureEv+0x26c>)
    f860:	4479      	add	r1, pc
    f862:	447a      	add	r2, pc
    f864:	f7f7 efb4 	blx	77d0 <_ZN7android22QualcommCameraHardware18filterPictureSizesEv-0x51c>
    f868:	4630      	mov	r0, r6
    f86a:	f7f7 efd0 	blx	780c <_ZN7android22QualcommCameraHardware18filterPictureSizesEv-0x4e0>
    f86e:	e006      	b.n	f87e <_ZN7android22QualcommCameraHardware17receiveRawPictureEv+0x21a>
    f870:	4918      	ldr	r1, [pc, #96]	(f8d4 <_ZN7android22QualcommCameraHardware17receiveRawPictureEv+0x270>)
    f872:	2002      	movs	r0, #2
    f874:	4a18      	ldr	r2, [pc, #96]	(f8d8 <_ZN7android22QualcommCameraHardware17receiveRawPictureEv+0x274>)
    f876:	4479      	add	r1, pc
    f878:	447a      	add	r2, pc
    f87a:	f7f7 efaa 	blx	77d0 <_ZN7android22QualcommCameraHardware18filterPictureSizesEv-0x51c>
    f87e:	4620      	mov	r0, r4
    f880:	f7f8 fd6e 	bl	8360 <_ZN7android22QualcommCameraHardware9deinitRawEv>
    f884:	4915      	ldr	r1, [pc, #84]	(f8dc <_ZN7android22QualcommCameraHardware17receiveRawPictureEv+0x278>)
    f886:	4a16      	ldr	r2, [pc, #88]	(f8e0 <_ZN7android22QualcommCameraHardware17receiveRawPictureEv+0x27c>)
    f888:	4479      	add	r1, pc
    f88a:	447a      	add	r2, pc
    f88c:	2002      	movs	r0, #2
    f88e:	f7f7 efa0 	blx	77d0 <_ZN7android22QualcommCameraHardware18filterPictureSizesEv-0x51c>
    f892:	f104 00ac 	add.w	r0, r4, #172	; 0xac
    f896:	f7f7 efba 	blx	780c <_ZN7android22QualcommCameraHardware18filterPictureSizesEv-0x4e0>
    f89a:	b005      	add	sp, #20
    f89c:	e8bd 83f0 	ldmia.w	sp!, {r4, r5, r6, r7, r8, r9, pc}
    f8a0:	0d21      	lsrs	r1, r4, #20
    f8a2:	0000      	lsls	r0, r0, #0
    f8a4:	3c58      	subs	r4, #88
    f8a6:	0000      	lsls	r0, r0, #0
    f8a8:	506a      	str	r2, [r5, r1]
    f8aa:	0000      	lsls	r0, r0, #0
    f8ac:	3c2d      	subs	r4, #45
    f8ae:	0000      	lsls	r0, r0, #0
    f8b0:	0b95      	lsrs	r5, r2, #14
    f8b2:	0000      	lsls	r0, r0, #0
    f8b4:	3af6      	subs	r2, #246
    f8b6:	0000      	lsls	r0, r0, #0
    f8b8:	ff34 ffff 	undefined
    f8bc:	0b47      	lsrs	r7, r0, #13
    f8be:	0000      	lsls	r0, r0, #0
    f8c0:	3ad5      	subs	r2, #213
    f8c2:	0000      	lsls	r0, r0, #0
    f8c4:	0b3b      	lsrs	r3, r7, #12
    f8c6:	0000      	lsls	r0, r0, #0
    f8c8:	3ae8      	subs	r2, #232
    f8ca:	0000      	lsls	r0, r0, #0
    f8cc:	0b2f      	lsrs	r7, r5, #12
    f8ce:	0000      	lsls	r0, r0, #0
    f8d0:	3af1      	subs	r2, #241
    f8d2:	0000      	lsls	r0, r0, #0
    f8d4:	0b19      	lsrs	r1, r3, #12
    f8d6:	0000      	lsls	r0, r0, #0
    f8d8:	3b0a      	subs	r3, #10
    f8da:	0000      	lsls	r0, r0, #0
    f8dc:	0b07      	lsrs	r7, r0, #12
    f8de:	0000      	lsls	r0, r0, #0
    f8e0:	3b23      	subs	r3, #35
	...

0000f8e4 <_ZN7android22QualcommCameraHardware17runSnapshotThreadEPv>:
    f8e4:	e92d 4ff8 	stmdb	sp!, {r3, r4, r5, r6, r7, r8, r9, sl, fp, lr}
    f8e8:	4e40      	ldr	r6, [pc, #256]	(f9ec <_ZN7android22QualcommCameraHardware17runSnapshotThreadEPv+0x108>)
    f8ea:	4a41      	ldr	r2, [pc, #260]	(f9f0 <_ZN7android22QualcommCameraHardware17runSnapshotThreadEPv+0x10c>)
    f8ec:	4604      	mov	r4, r0
    f8ee:	447e      	add	r6, pc
    f8f0:	2002      	movs	r0, #2
    f8f2:	447a      	add	r2, pc
    f8f4:	4631      	mov	r1, r6
    f8f6:	f7f7 ef6c 	blx	77d0 <_ZN7android22QualcommCameraHardware18filterPictureSizesEv-0x51c>
    f8fa:	f8d4 309c 	ldr.w	r3, [r4, #156]
    f8fe:	4d3d      	ldr	r5, [pc, #244]	(f9f4 <_ZN7android22QualcommCameraHardware17runSnapshotThreadEPv+0x110>)
    f900:	2b01      	cmp	r3, #1
    f902:	447d      	add	r5, pc
    f904:	d10b      	bne.n	f91e <_ZN7android22QualcommCameraHardware17runSnapshotThreadEPv+0x3a>
    f906:	f8d4 00dc 	ldr.w	r0, [r4, #220]
    f90a:	f7f9 fd4d 	bl	93a8 <_ZN7android22QualcommCameraHardware13cancelPictureEv+0xa4>
    f90e:	b118      	cbz	r0, f918 <_ZN7android22QualcommCameraHardware17runSnapshotThreadEPv+0x34>
    f910:	4620      	mov	r0, r4
    f912:	f7ff fea7 	bl	f664 <_ZN7android22QualcommCameraHardware17receiveRawPictureEv>
    f916:	e013      	b.n	f940 <_ZN7android22QualcommCameraHardware17runSnapshotThreadEPv+0x5c>
    f918:	4a37      	ldr	r2, [pc, #220]	(f9f8 <_ZN7android22QualcommCameraHardware17runSnapshotThreadEPv+0x114>)
    f91a:	447a      	add	r2, pc
    f91c:	e00c      	b.n	f938 <_ZN7android22QualcommCameraHardware17runSnapshotThreadEPv+0x54>
    f91e:	2b02      	cmp	r3, #2
    f920:	d10e      	bne.n	f940 <_ZN7android22QualcommCameraHardware17runSnapshotThreadEPv+0x5c>
    f922:	f8d4 00dc 	ldr.w	r0, [r4, #220]
    f926:	f7f9 fa47 	bl	8db8 <_ZN7android22QualcommCameraHardware17native_zoom_imageEiiiP13common_crop_t+0xf0>
    f92a:	b118      	cbz	r0, f934 <_ZN7android22QualcommCameraHardware17runSnapshotThreadEPv+0x50>
    f92c:	4620      	mov	r0, r4
    f92e:	f7fa fb2f 	bl	9f90 <_ZN7android22QualcommCameraHardware18receiveRawSnapshotEv>
    f932:	e005      	b.n	f940 <_ZN7android22QualcommCameraHardware17runSnapshotThreadEPv+0x5c>
    f934:	4a31      	ldr	r2, [pc, #196]	(f9fc <_ZN7android22QualcommCameraHardware17runSnapshotThreadEPv+0x118>)
    f936:	447a      	add	r2, pc
    f938:	2006      	movs	r0, #6
    f93a:	4631      	mov	r1, r6
    f93c:	f7f7 ef48 	blx	77d0 <_ZN7android22QualcommCameraHardware18filterPictureSizesEv-0x51c>
    f940:	f104 0794 	add.w	r7, r4, #148	; 0x94
    f944:	2600      	movs	r6, #0
    f946:	4638      	mov	r0, r7
    f948:	f8df 90b4 	ldr.w	r9, [pc, #180]	; fa00 <_ZN7android22QualcommCameraHardware17runSnapshotThreadEPv+0x11c>
    f94c:	f7f8 fe36 	bl	85bc <_ZN7android22QualcommCameraHardware26receiveJpegPictureFragmentEPhj+0x114>
    f950:	f884 6090 	strb.w	r6, [r4, #144]
    f954:	f104 0098 	add.w	r0, r4, #152	; 0x98
    f958:	f8df 80a8 	ldr.w	r8, [pc, #168]	; fa04 <_ZN7android22QualcommCameraHardware17runSnapshotThreadEPv+0x120>
    f95c:	f7f8 e80a 	blx	7974 <_ZN7android22QualcommCameraHardware18filterPictureSizesEv-0x378>
    f960:	4638      	mov	r0, r7
    f962:	f7f7 ef54 	blx	780c <_ZN7android22QualcommCameraHardware18filterPictureSizesEv-0x4e0>
    f966:	f104 0788 	add.w	r7, r4, #136	; 0x88
    f96a:	f8c4 609c 	str.w	r6, [r4, #156]
    f96e:	4638      	mov	r0, r7
    f970:	4e25      	ldr	r6, [pc, #148]	(fa08 <_ZN7android22QualcommCameraHardware17runSnapshotThreadEPv+0x124>)
    f972:	f7f8 fe23 	bl	85bc <_ZN7android22QualcommCameraHardware26receiveJpegPictureFragmentEPhj+0x114>
    f976:	f104 0a8c 	add.w	sl, r4, #140	; 0x8c
    f97a:	44f9      	add	r9, pc
    f97c:	447e      	add	r6, pc
    f97e:	44f8      	add	r8, pc
    f980:	e00d      	b.n	f99e <_ZN7android22QualcommCameraHardware17runSnapshotThreadEPv+0xba>
    f982:	464a      	mov	r2, r9
    f984:	4631      	mov	r1, r6
    f986:	2002      	movs	r0, #2
    f988:	f7f7 ef22 	blx	77d0 <_ZN7android22QualcommCameraHardware18filterPictureSizesEv-0x51c>
    f98c:	4639      	mov	r1, r7
    f98e:	4650      	mov	r0, sl
    f990:	f7f8 e80e 	blx	79b0 <_ZN7android22QualcommCameraHardware18filterPictureSizesEv-0x33c>
    f994:	2002      	movs	r0, #2
    f996:	4631      	mov	r1, r6
    f998:	4642      	mov	r2, r8
    f99a:	f7f7 ef1a 	blx	77d0 <_ZN7android22QualcommCameraHardware18filterPictureSizesEv-0x51c>
    f99e:	f894 b084 	ldrb.w	fp, [r4, #132]
    f9a2:	f1bb 0f00 	cmp.w	fp, #0	; 0x0
    f9a6:	d1ec      	bne.n	f982 <_ZN7android22QualcommCameraHardware17runSnapshotThreadEPv+0x9e>
    f9a8:	4638      	mov	r0, r7
    f9aa:	f7f7 ef30 	blx	780c <_ZN7android22QualcommCameraHardware18filterPictureSizesEv-0x4e0>
    f9ae:	4917      	ldr	r1, [pc, #92]	(fa0c <_ZN7android22QualcommCameraHardware17runSnapshotThreadEPv+0x128>)
    f9b0:	5868      	ldr	r0, [r5, r1]
    f9b2:	f104 0578 	add.w	r5, r4, #120	; 0x78
    f9b6:	6803      	ldr	r3, [r0, #0]
    f9b8:	4798      	blx	r3
    f9ba:	4620      	mov	r0, r4
    f9bc:	f7f8 fcd0 	bl	8360 <_ZN7android22QualcommCameraHardware9deinitRawEv>
    f9c0:	4628      	mov	r0, r5
    f9c2:	f7f8 fdfb 	bl	85bc <_ZN7android22QualcommCameraHardware26receiveJpegPictureFragmentEPhj+0x114>
    f9c6:	f884 b074 	strb.w	fp, [r4, #116]
    f9ca:	f104 007c 	add.w	r0, r4, #124	; 0x7c
    f9ce:	f7f7 efd2 	blx	7974 <_ZN7android22QualcommCameraHardware18filterPictureSizesEv-0x378>
    f9d2:	4628      	mov	r0, r5
    f9d4:	f7f7 ef1a 	blx	780c <_ZN7android22QualcommCameraHardware18filterPictureSizesEv-0x4e0>
    f9d8:	490d      	ldr	r1, [pc, #52]	(fa10 <_ZN7android22QualcommCameraHardware17runSnapshotThreadEPv+0x12c>)
    f9da:	4a0e      	ldr	r2, [pc, #56]	(fa14 <_ZN7android22QualcommCameraHardware17runSnapshotThreadEPv+0x130>)
    f9dc:	2002      	movs	r0, #2
    f9de:	4479      	add	r1, pc
    f9e0:	447a      	add	r2, pc
    f9e2:	f7f7 eef6 	blx	77d0 <_ZN7android22QualcommCameraHardware18filterPictureSizesEv-0x51c>
    f9e6:	e8bd 8ff8 	ldmia.w	sp!, {r3, r4, r5, r6, r7, r8, r9, sl, fp, pc}
    f9ea:	bf00      	nop
    f9ec:	0aa1      	lsrs	r1, r4, #10
    f9ee:	0000      	lsls	r0, r0, #0
    f9f0:	3ad0      	subs	r2, #208
    f9f2:	0000      	lsls	r0, r0, #0
    f9f4:	4df2      	ldr	r5, [pc, #968]	(fdc0 <_ZN7android22QualcommCameraHardware10setOverlayERKNS_2spINS_7OverlayEEE+0x5c>)
    f9f6:	0000      	lsls	r0, r0, #0
    f9f8:	3abc      	subs	r2, #188
    f9fa:	0000      	lsls	r0, r0, #0
    f9fc:	3ac4      	subs	r2, #196
    f9fe:	0000      	lsls	r0, r0, #0
    fa00:	3aa8      	subs	r2, #168
    fa02:	0000      	lsls	r0, r0, #0
    fa04:	3adc      	subs	r2, #220
    fa06:	0000      	lsls	r0, r0, #0
    fa08:	0a13      	lsrs	r3, r2, #8
    fa0a:	0000      	lsls	r0, r0, #0
    fa0c:	ff20 ffff 	undefined
    fa10:	09b1      	lsrs	r1, r6, #6
    fa12:	0000      	lsls	r0, r0, #0
    fa14:	3aa4      	subs	r2, #164
	...

0000fa18 <_ZN7android15snapshot_threadEPv>:
    fa18:	b537      	push	{r0, r1, r2, r4, r5, lr}
    fa1a:	4c12      	ldr	r4, [pc, #72]	(fa64 <_ZN7android15snapshot_threadEPv+0x4c>)
    fa1c:	4a12      	ldr	r2, [pc, #72]	(fa68 <_ZN7android15snapshot_threadEPv+0x50>)
    fa1e:	4605      	mov	r5, r0
    fa20:	447c      	add	r4, pc
    fa22:	2003      	movs	r0, #3
    fa24:	447a      	add	r2, pc
    fa26:	4621      	mov	r1, r4
    fa28:	f7f7 eed2 	blx	77d0 <_ZN7android22QualcommCameraHardware18filterPictureSizesEv-0x51c>
    fa2c:	a801      	add	r0, sp, #4
    fa2e:	f7fc fdbd 	bl	c5ac <_ZN7android22QualcommCameraHardware11getInstanceEv>
    fa32:	9801      	ldr	r0, [sp, #4]
    fa34:	b118      	cbz	r0, fa3e <_ZN7android15snapshot_threadEPv+0x26>
    fa36:	4629      	mov	r1, r5
    fa38:	f7ff ff54 	bl	f8e4 <_ZN7android22QualcommCameraHardware17runSnapshotThreadEPv>
    fa3c:	e005      	b.n	fa4a <_ZN7android15snapshot_threadEPv+0x32>
    fa3e:	4a0b      	ldr	r2, [pc, #44]	(fa6c <_ZN7android15snapshot_threadEPv+0x54>)
    fa40:	2005      	movs	r0, #5
    fa42:	4621      	mov	r1, r4
    fa44:	447a      	add	r2, pc
    fa46:	f7f7 eec4 	blx	77d0 <_ZN7android22QualcommCameraHardware18filterPictureSizesEv-0x51c>
    fa4a:	4909      	ldr	r1, [pc, #36]	(fa70 <_ZN7android15snapshot_threadEPv+0x58>)
    fa4c:	2003      	movs	r0, #3
    fa4e:	4a09      	ldr	r2, [pc, #36]	(fa74 <_ZN7android15snapshot_threadEPv+0x5c>)
    fa50:	4479      	add	r1, pc
    fa52:	447a      	add	r2, pc
    fa54:	f7f7 eebc 	blx	77d0 <_ZN7android22QualcommCameraHardware18filterPictureSizesEv-0x51c>
    fa58:	a801      	add	r0, sp, #4
    fa5a:	f7f8 fcc9 	bl	83f0 <_ZN7android2spINS_22QualcommCameraHardwareEED1Ev>
    fa5e:	2000      	movs	r0, #0
    fa60:	bd3e      	pop	{r1, r2, r3, r4, r5, pc}
    fa62:	bf00      	nop
    fa64:	096f      	lsrs	r7, r5, #5
    fa66:	0000      	lsls	r0, r0, #0
    fa68:	3a74      	subs	r2, #116
    fa6a:	0000      	lsls	r0, r0, #0
    fa6c:	3a66      	subs	r2, #102
    fa6e:	0000      	lsls	r0, r0, #0
    fa70:	093f      	lsrs	r7, r7, #4
    fa72:	0000      	lsls	r0, r0, #0
    fa74:	3a8c      	subs	r2, #140
    fa76:	0000      	lsls	r0, r0, #0
    fa78:	b510      	push	{r4, lr}
    fa7a:	6803      	ldr	r3, [r0, #0]
    fa7c:	4604      	mov	r4, r0
    fa7e:	b133      	cbz	r3, fa8e <_ZN7android15snapshot_threadEPv+0x76>
    fa80:	681a      	ldr	r2, [r3, #0]
    fa82:	4621      	mov	r1, r4
    fa84:	f852 0c0c 	ldr.w	r0, [r2, #-12]
    fa88:	1818      	adds	r0, r3, r0
    fa8a:	f7f7 eeae 	blx	77e8 <_ZN7android22QualcommCameraHardware18filterPictureSizesEv-0x504>
    fa8e:	2300      	movs	r3, #0
    fa90:	4620      	mov	r0, r4
    fa92:	6023      	str	r3, [r4, #0]
    fa94:	bd10      	pop	{r4, pc}
    fa96:	bf00      	nop

0000fa98 <_ZN7android22QualcommCameraHardware20startPreviewInternalEv>:
    fa98:	e92d 41f0 	stmdb	sp!, {r4, r5, r6, r7, r8, lr}
    fa9c:	4d48      	ldr	r5, [pc, #288]	(fbc0 <_ZN7android22QualcommCameraHardware20startPreviewInternalEv+0x128>)
    fa9e:	4a49      	ldr	r2, [pc, #292]	(fbc4 <_ZN7android22QualcommCameraHardware20startPreviewInternalEv+0x12c>)
    faa0:	4604      	mov	r4, r0
    faa2:	447d      	add	r5, pc
    faa4:	2002      	movs	r0, #2
    faa6:	447a      	add	r2, pc
    faa8:	4629      	mov	r1, r5
    faaa:	f7f7 ee92 	blx	77d0 <_ZN7android22QualcommCameraHardware18filterPictureSizesEv-0x51c>
    faae:	f894 3024 	ldrb.w	r3, [r4, #36]
    fab2:	b123      	cbz	r3, fabe <_ZN7android22QualcommCameraHardware20startPreviewInternalEv+0x26>
    fab4:	4a44      	ldr	r2, [pc, #272]	(fbc8 <_ZN7android22QualcommCameraHardware20startPreviewInternalEv+0x130>)
    fab6:	2002      	movs	r0, #2
    fab8:	4629      	mov	r1, r5
    faba:	447a      	add	r2, pc
    fabc:	e07b      	b.n	fbb6 <_ZN7android22QualcommCameraHardware20startPreviewInternalEv+0x11e>
    fabe:	f894 202c 	ldrb.w	r2, [r4, #44]
    fac2:	b96a      	cbnz	r2, fae0 <_ZN7android22QualcommCameraHardware20startPreviewInternalEv+0x48>
    fac4:	4841      	ldr	r0, [pc, #260]	(fbcc <_ZN7android22QualcommCameraHardware20startPreviewInternalEv+0x134>)
    fac6:	4478      	add	r0, pc
    fac8:	60c2      	str	r2, [r0, #12]
    faca:	4620      	mov	r0, r4
    facc:	f7fc f814 	bl	baf8 <_ZN7android22QualcommCameraHardware11initPreviewEv>
    fad0:	f884 002c 	strb.w	r0, [r4, #44]
    fad4:	b920      	cbnz	r0, fae0 <_ZN7android22QualcommCameraHardware20startPreviewInternalEv+0x48>
    fad6:	4a3e      	ldr	r2, [pc, #248]	(fbd0 <_ZN7android22QualcommCameraHardware20startPreviewInternalEv+0x138>)
    fad8:	3006      	adds	r0, #6
    fada:	4629      	mov	r1, r5
    fadc:	447a      	add	r2, pc
    fade:	e029      	b.n	fb34 <_ZN7android22QualcommCameraHardware20startPreviewInternalEv+0x9c>
    fae0:	f104 0028 	add.w	r0, r4, #40	; 0x28
    fae4:	f7f8 fd6a 	bl	85bc <_ZN7android22QualcommCameraHardware26receiveJpegPictureFragmentEPhj+0x114>
    fae8:	4a3a      	ldr	r2, [pc, #232]	(fbd4 <_ZN7android22QualcommCameraHardware20startPreviewInternalEv+0x13c>)
    faea:	447a      	add	r2, pc
    faec:	6812      	ldr	r2, [r2, #0]
    faee:	1e91      	subs	r1, r2, #2
    faf0:	2901      	cmp	r1, #1
    faf2:	d904      	bls.n	fafe <_ZN7android22QualcommCameraHardware20startPreviewInternalEv+0x66>
    faf4:	f8d4 00dc 	ldr.w	r0, [r4, #220]
    faf8:	f7f9 fd2e 	bl	9558 <_ZN7android22QualcommCameraHardware13cancelPictureEv+0x254>
    fafc:	e003      	b.n	fb06 <_ZN7android22QualcommCameraHardware20startPreviewInternalEv+0x6e>
    fafe:	f8d4 00dc 	ldr.w	r0, [r4, #220]
    fb02:	f7f9 f9a9 	bl	8e58 <_ZN7android22QualcommCameraHardware17native_zoom_imageEiiiP13common_crop_t+0x190>
    fb06:	f884 0024 	strb.w	r0, [r4, #36]
    fb0a:	f104 0028 	add.w	r0, r4, #40	; 0x28
    fb0e:	f7f7 ee7e 	blx	780c <_ZN7android22QualcommCameraHardware18filterPictureSizesEv-0x4e0>
    fb12:	f894 5024 	ldrb.w	r5, [r4, #36]
    fb16:	b995      	cbnz	r5, fb3e <_ZN7android22QualcommCameraHardware20startPreviewInternalEv+0xa6>
    fb18:	4620      	mov	r0, r4
    fb1a:	f7f8 fa2d 	bl	7f78 <_ZN7android22QualcommCameraHardware13deinitPreviewEv>
    fb1e:	f884 502c 	strb.w	r5, [r4, #44]
    fb22:	f504 70f2 	add.w	r0, r4, #484	; 0x1e4
    fb26:	f7ff ffa7 	bl	fa78 <_ZN7android15snapshot_threadEPv+0x60>
    fb2a:	492b      	ldr	r1, [pc, #172]	(fbd8 <_ZN7android22QualcommCameraHardware20startPreviewInternalEv+0x140>)
    fb2c:	4a2b      	ldr	r2, [pc, #172]	(fbdc <_ZN7android22QualcommCameraHardware20startPreviewInternalEv+0x144>)
    fb2e:	2006      	movs	r0, #6
    fb30:	4479      	add	r1, pc
    fb32:	447a      	add	r2, pc
    fb34:	f7f7 ee4c 	blx	77d0 <_ZN7android22QualcommCameraHardware18filterPictureSizesEv-0x51c>
    fb38:	f04f 4000 	mov.w	r0, #2147483648	; 0x80000000
    fb3c:	e03e      	b.n	fbbc <_ZN7android22QualcommCameraHardware20startPreviewInternalEv+0x124>
    fb3e:	4e28      	ldr	r6, [pc, #160]	(fbe0 <_ZN7android22QualcommCameraHardware20startPreviewInternalEv+0x148>)
    fb40:	2500      	movs	r5, #0
    fb42:	447e      	add	r6, pc
    fb44:	f8c6 5174 	str.w	r5, [r6, #372]
    fb48:	f104 0508 	add.w	r5, r4, #8	; 0x8
    fb4c:	f8d4 00dc 	ldr.w	r0, [r4, #220]
    fb50:	f7ff fa8e 	bl	f070 <_ZN7android22QualcommCameraHardware21initDefaultParametersEv+0x720>
    fb54:	4607      	mov	r7, r0
    fb56:	b178      	cbz	r0, fb78 <_ZN7android22QualcommCameraHardware20startPreviewInternalEv+0xe0>
    fb58:	4922      	ldr	r1, [pc, #136]	(fbe4 <_ZN7android22QualcommCameraHardware20startPreviewInternalEv+0x14c>)
    fb5a:	2003      	movs	r0, #3
    fb5c:	4a22      	ldr	r2, [pc, #136]	(fbe8 <_ZN7android22QualcommCameraHardware20startPreviewInternalEv+0x150>)
    fb5e:	4479      	add	r1, pc
    fb60:	6f73      	ldr	r3, [r6, #116]
    fb62:	447a      	add	r2, pc
    fb64:	f7f7 ee34 	blx	77d0 <_ZN7android22QualcommCameraHardware18filterPictureSizesEv-0x51c>
    fb68:	4920      	ldr	r1, [pc, #128]	(fbec <_ZN7android22QualcommCameraHardware20startPreviewInternalEv+0x154>)
    fb6a:	4a21      	ldr	r2, [pc, #132]	(fbf0 <_ZN7android22QualcommCameraHardware20startPreviewInternalEv+0x158>)
    fb6c:	4628      	mov	r0, r5
    fb6e:	4479      	add	r1, pc
    fb70:	447a      	add	r2, pc
    fb72:	f7f7 eeca 	blx	7908 <_ZN7android22QualcommCameraHardware18filterPictureSizesEv-0x3e4>
    fb76:	e00e      	b.n	fb96 <_ZN7android22QualcommCameraHardware20startPreviewInternalEv+0xfe>
    fb78:	491e      	ldr	r1, [pc, #120]	(fbf4 <_ZN7android22QualcommCameraHardware20startPreviewInternalEv+0x15c>)
    fb7a:	2006      	movs	r0, #6
    fb7c:	4a1e      	ldr	r2, [pc, #120]	(fbf8 <_ZN7android22QualcommCameraHardware20startPreviewInternalEv+0x160>)
    fb7e:	4479      	add	r1, pc
    fb80:	447a      	add	r2, pc
    fb82:	f7f7 ee26 	blx	77d0 <_ZN7android22QualcommCameraHardware18filterPictureSizesEv-0x51c>
    fb86:	491d      	ldr	r1, [pc, #116]	(fbfc <_ZN7android22QualcommCameraHardware20startPreviewInternalEv+0x164>)
    fb88:	4a1d      	ldr	r2, [pc, #116]	(fc00 <_ZN7android22QualcommCameraHardware20startPreviewInternalEv+0x168>)
    fb8a:	4628      	mov	r0, r5
    fb8c:	4479      	add	r1, pc
    fb8e:	447a      	add	r2, pc
    fb90:	f7f7 eeba 	blx	7908 <_ZN7android22QualcommCameraHardware18filterPictureSizesEv-0x3e4>
    fb94:	6777      	str	r7, [r6, #116]
    fb96:	f8df c06c 	ldr.w	ip, [pc, #108]	; fc04 <_ZN7android22QualcommCameraHardware20startPreviewInternalEv+0x16c>
    fb9a:	f104 0008 	add.w	r0, r4, #8	; 0x8
    fb9e:	491a      	ldr	r1, [pc, #104]	(fc08 <_ZN7android22QualcommCameraHardware20startPreviewInternalEv+0x170>)
    fba0:	44fc      	add	ip, pc
    fba2:	4479      	add	r1, pc
    fba4:	f8dc 2074 	ldr.w	r2, [ip, #116]
    fba8:	f7f7 eeba 	blx	7920 <_ZN7android22QualcommCameraHardware18filterPictureSizesEv-0x3cc>
    fbac:	4917      	ldr	r1, [pc, #92]	(fc0c <_ZN7android22QualcommCameraHardware20startPreviewInternalEv+0x174>)
    fbae:	4a18      	ldr	r2, [pc, #96]	(fc10 <_ZN7android22QualcommCameraHardware20startPreviewInternalEv+0x178>)
    fbb0:	2002      	movs	r0, #2
    fbb2:	4479      	add	r1, pc
    fbb4:	447a      	add	r2, pc
    fbb6:	f7f7 ee0c 	blx	77d0 <_ZN7android22QualcommCameraHardware18filterPictureSizesEv-0x51c>
    fbba:	2000      	movs	r0, #0
    fbbc:	e8bd 81f0 	ldmia.w	sp!, {r4, r5, r6, r7, r8, pc}
    fbc0:	08ed      	lsrs	r5, r5, #3
    fbc2:	0000      	lsls	r0, r0, #0
    fbc4:	3a4a      	subs	r2, #74
    fbc6:	0000      	lsls	r0, r0, #0
    fbc8:	3a52      	subs	r2, #82
    fbca:	0000      	lsls	r0, r0, #0
    fbcc:	4e96      	ldr	r6, [pc, #600]	(fe28 <_ZN7android22QualcommCameraHardware14createInstanceEv+0x20>)
    fbce:	0000      	lsls	r0, r0, #0
    fbd0:	3a59      	subs	r2, #89
    fbd2:	0000      	lsls	r0, r0, #0
    fbd4:	4dda      	ldr	r5, [pc, #872]	(ff40 <_ZN7android22QualcommCameraHardware14createInstanceEv+0x138>)
    fbd6:	0000      	lsls	r0, r0, #0
    fbd8:	085f      	lsrs	r7, r3, #1
    fbda:	0000      	lsls	r0, r0, #0
    fbdc:	3a3d      	subs	r2, #61
    fbde:	0000      	lsls	r0, r0, #0
    fbe0:	4e1a      	ldr	r6, [pc, #104]	(fc4c <_ZN7android22QualcommCameraHardware14startRecordingEv+0x38>)
    fbe2:	0000      	lsls	r0, r0, #0
    fbe4:	0831      	lsrs	r1, r6, #32
    fbe6:	0000      	lsls	r0, r0, #0
    fbe8:	3a3a      	subs	r2, #58
    fbea:	0000      	lsls	r0, r0, #0
    fbec:	34c5      	adds	r4, #197
    fbee:	0000      	lsls	r0, r0, #0
    fbf0:	34d2      	adds	r4, #210
    fbf2:	0000      	lsls	r0, r0, #0
    fbf4:	0811      	lsrs	r1, r2, #32
    fbf6:	0000      	lsls	r0, r0, #0
    fbf8:	3a35      	subs	r2, #53
    fbfa:	0000      	lsls	r0, r0, #0
    fbfc:	34a7      	adds	r4, #167
    fbfe:	0000      	lsls	r0, r0, #0
    fc00:	3a63      	subs	r2, #99
    fc02:	0000      	lsls	r0, r0, #0
    fc04:	4dbc      	ldr	r5, [pc, #752]	(fef8 <_ZN7android22QualcommCameraHardware14createInstanceEv+0xf0>)
    fc06:	0000      	lsls	r0, r0, #0
    fc08:	34cd      	adds	r4, #205
    fc0a:	0000      	lsls	r0, r0, #0
    fc0c:	07dd      	lsls	r5, r3, #31
    fc0e:	0000      	lsls	r0, r0, #0
    fc10:	3a43      	subs	r2, #67
	...

0000fc14 <_ZN7android22QualcommCameraHardware14startRecordingEv>:
    fc14:	e92d 43f0 	stmdb	sp!, {r4, r5, r6, r7, r8, r9, lr}
    fc18:	f8df 80e4 	ldr.w	r8, [pc, #228]	; fd00 <_ZN7android22QualcommCameraHardware14startRecordingEv+0xec>
    fc1c:	4a39      	ldr	r2, [pc, #228]	(fd04 <_ZN7android22QualcommCameraHardware14startRecordingEv+0xf0>)
    fc1e:	4604      	mov	r4, r0
    fc20:	44f8      	add	r8, pc
    fc22:	b087      	sub	sp, #28
    fc24:	447a      	add	r2, pc
    fc26:	4641      	mov	r1, r8
    fc28:	2002      	movs	r0, #2
    fc2a:	4d37      	ldr	r5, [pc, #220]	(fd08 <_ZN7android22QualcommCameraHardware14startRecordingEv+0xf4>)
    fc2c:	f7f7 edd0 	blx	77d0 <_ZN7android22QualcommCameraHardware18filterPictureSizesEv-0x51c>
    fc30:	f104 00a0 	add.w	r0, r4, #160	; 0xa0
    fc34:	f7f8 fcc2 	bl	85bc <_ZN7android22QualcommCameraHardware26receiveJpegPictureFragmentEPhj+0x114>
    fc38:	2300      	movs	r3, #0
    fc3a:	4620      	mov	r0, r4
    fc3c:	f884 30a9 	strb.w	r3, [r4, #169]
    fc40:	f7ff ff2a 	bl	fa98 <_ZN7android22QualcommCameraHardware20startPreviewInternalEv>
    fc44:	447d      	add	r5, pc
    fc46:	4607      	mov	r7, r0
    fc48:	2800      	cmp	r0, #0
    fc4a:	d151      	bne.n	fcf0 <_ZN7android22QualcommCameraHardware14startRecordingEv+0xdc>
    fc4c:	492f      	ldr	r1, [pc, #188]	(fd0c <_ZN7android22QualcommCameraHardware14startRecordingEv+0xf8>)
    fc4e:	4479      	add	r1, pc
    fc50:	6809      	ldr	r1, [r1, #0]
    fc52:	1e88      	subs	r0, r1, #2
    fc54:	2801      	cmp	r0, #1
    fc56:	d84b      	bhi.n	fcf0 <_ZN7android22QualcommCameraHardware14startRecordingEv+0xdc>
    fc58:	4a2d      	ldr	r2, [pc, #180]	(fd10 <_ZN7android22QualcommCameraHardware14startRecordingEv+0xfc>)
    fc5a:	4641      	mov	r1, r8
    fc5c:	4e2d      	ldr	r6, [pc, #180]	(fd14 <_ZN7android22QualcommCameraHardware14startRecordingEv+0x100>)
    fc5e:	2002      	movs	r0, #2
    fc60:	447a      	add	r2, pc
    fc62:	447e      	add	r6, pc
    fc64:	f7f7 edb4 	blx	77d0 <_ZN7android22QualcommCameraHardware18filterPictureSizesEv-0x51c>
    fc68:	f8d4 00dc 	ldr.w	r0, [r4, #220]
    fc6c:	f7f8 fffa 	bl	8c64 <_ZN7android22QualcommCameraHardware18filterPreviewSizesEv+0x138>
    fc70:	2201      	movs	r2, #1
    fc72:	f8c6 2100 	str.w	r2, [r6, #256]
    fc76:	4641      	mov	r1, r8
    fc78:	4a27      	ldr	r2, [pc, #156]	(fd18 <_ZN7android22QualcommCameraHardware14startRecordingEv+0x104>)
    fc7a:	2002      	movs	r0, #2
    fc7c:	6ff3      	ldr	r3, [r6, #124]
    fc7e:	447a      	add	r2, pc
    fc80:	f8df 8098 	ldr.w	r8, [pc, #152]	; fd1c <_ZN7android22QualcommCameraHardware14startRecordingEv+0x108>
    fc84:	f7f7 eda4 	blx	77d0 <_ZN7android22QualcommCameraHardware18filterPictureSizesEv-0x51c>
    fc88:	e005      	b.n	fc96 <_ZN7android22QualcommCameraHardware14startRecordingEv+0x82>
    fc8a:	f7fb fda9 	bl	b7e0 <_ZN7android22QualcommCameraHardware9autoFocusEv+0xf0>
    fc8e:	f855 1008 	ldr.w	r1, [r5, r8]
    fc92:	680b      	ldr	r3, [r1, #0]
    fc94:	4798      	blx	r3
    fc96:	6ff3      	ldr	r3, [r6, #124]
    fc98:	2b00      	cmp	r3, #0
    fc9a:	dcf6      	bgt.n	fc8a <_ZN7android22QualcommCameraHardware14startRecordingEv+0x76>
    fc9c:	4920      	ldr	r1, [pc, #128]	(fd20 <_ZN7android22QualcommCameraHardware14startRecordingEv+0x10c>)
    fc9e:	f104 0664 	add.w	r6, r4, #100	; 0x64
    fca2:	4a20      	ldr	r2, [pc, #128]	(fd24 <_ZN7android22QualcommCameraHardware14startRecordingEv+0x110>)
    fca4:	2002      	movs	r0, #2
    fca6:	4479      	add	r1, pc
    fca8:	f04f 0800 	mov.w	r8, #0	; 0x0
    fcac:	447a      	add	r2, pc
    fcae:	46e9      	mov	r9, sp
    fcb0:	f7f7 ed8e 	blx	77d0 <_ZN7android22QualcommCameraHardware18filterPictureSizesEv-0x51c>
    fcb4:	4630      	mov	r0, r6
    fcb6:	f7f8 fc81 	bl	85bc <_ZN7android22QualcommCameraHardware26receiveJpegPictureFragmentEPhj+0x114>
    fcba:	f884 8060 	strb.w	r8, [r4, #96]
    fcbe:	4668      	mov	r0, sp
    fcc0:	f7f7 ee5e 	blx	7980 <_ZN7android22QualcommCameraHardware18filterPictureSizesEv-0x36c>
    fcc4:	2101      	movs	r1, #1
    fcc6:	4668      	mov	r0, sp
    fcc8:	f7f7 ee60 	blx	798c <_ZN7android22QualcommCameraHardware18filterPictureSizesEv-0x360>
    fccc:	4b16      	ldr	r3, [pc, #88]	(fd28 <_ZN7android22QualcommCameraHardware14startRecordingEv+0x114>)
    fcce:	f504 709a 	add.w	r0, r4, #308	; 0x134
    fcd2:	4669      	mov	r1, sp
    fcd4:	58ea      	ldr	r2, [r5, r3]
    fcd6:	4643      	mov	r3, r8
    fcd8:	f7f7 ee5e 	blx	7998 <_ZN7android22QualcommCameraHardware18filterPictureSizesEv-0x354>
    fcdc:	ebb0 0c08 	subs.w	ip, r0, r8
    fce0:	bf18      	it	ne
    fce2:	f04f 0c01 	movne.w	ip, #1	; 0x1
    fce6:	4630      	mov	r0, r6
    fce8:	f884 c061 	strb.w	ip, [r4, #97]
    fcec:	f7f7 ed8e 	blx	780c <_ZN7android22QualcommCameraHardware18filterPictureSizesEv-0x4e0>
    fcf0:	f104 00a0 	add.w	r0, r4, #160	; 0xa0
    fcf4:	f7f7 ed8a 	blx	780c <_ZN7android22QualcommCameraHardware18filterPictureSizesEv-0x4e0>
    fcf8:	4638      	mov	r0, r7
    fcfa:	b007      	add	sp, #28
    fcfc:	e8bd 83f0 	ldmia.w	sp!, {r4, r5, r6, r7, r8, r9, pc}
    fd00:	076f      	lsls	r7, r5, #29
    fd02:	0000      	lsls	r0, r0, #0
    fd04:	39ea      	subs	r1, #234
    fd06:	0000      	lsls	r0, r0, #0
    fd08:	4ab0      	ldr	r2, [pc, #704]	(ffcc <_ZN7android22QualcommCameraHardware14createInstanceEv+0x1c4>)
    fd0a:	0000      	lsls	r0, r0, #0
    fd0c:	4c76      	ldr	r4, [pc, #472]	(fee8 <_ZN7android22QualcommCameraHardware14createInstanceEv+0xe0>)
    fd0e:	0000      	lsls	r0, r0, #0
    fd10:	39bf      	subs	r1, #191
    fd12:	0000      	lsls	r0, r0, #0
    fd14:	4cfa      	ldr	r4, [pc, #1000]	(10100 <openCameraHardware+0x2c>)
    fd16:	0000      	lsls	r0, r0, #0
    fd18:	39d5      	subs	r1, #213
    fd1a:	0000      	lsls	r0, r0, #0
    fd1c:	fefc ffff 	mrc2	15, 7, pc, cr12, cr15, {7}
    fd20:	06e9      	lsls	r1, r5, #27
    fd22:	0000      	lsls	r0, r0, #0
    fd24:	39bd      	subs	r1, #189
    fd26:	0000      	lsls	r0, r0, #0
    fd28:	fffc ffff 	undefined

0000fd2c <_ZN7android22QualcommCameraHardware12startPreviewEv>:
    fd2c:	490b      	ldr	r1, [pc, #44]	(fd5c <_ZN7android22QualcommCameraHardware12startPreviewEv+0x30>)
    fd2e:	4a0c      	ldr	r2, [pc, #48]	(fd60 <_ZN7android22QualcommCameraHardware12startPreviewEv+0x34>)
    fd30:	b570      	push	{r4, r5, r6, lr}
    fd32:	4604      	mov	r4, r0
    fd34:	4479      	add	r1, pc
    fd36:	447a      	add	r2, pc
    fd38:	f104 05a0 	add.w	r5, r4, #160	; 0xa0
    fd3c:	2002      	movs	r0, #2
    fd3e:	f7f7 ed48 	blx	77d0 <_ZN7android22QualcommCameraHardware18filterPictureSizesEv-0x51c>
    fd42:	4628      	mov	r0, r5
    fd44:	f7f8 fc3a 	bl	85bc <_ZN7android22QualcommCameraHardware26receiveJpegPictureFragmentEPhj+0x114>
    fd48:	4620      	mov	r0, r4
    fd4a:	f7ff fea5 	bl	fa98 <_ZN7android22QualcommCameraHardware20startPreviewInternalEv>
    fd4e:	4604      	mov	r4, r0
    fd50:	4628      	mov	r0, r5
    fd52:	f7f7 ed5c 	blx	780c <_ZN7android22QualcommCameraHardware18filterPictureSizesEv-0x4e0>
    fd56:	4620      	mov	r0, r4
    fd58:	bd70      	pop	{r4, r5, r6, pc}
    fd5a:	bf00      	nop
    fd5c:	065b      	lsls	r3, r3, #25
    fd5e:	0000      	lsls	r0, r0, #0
    fd60:	3958      	subs	r1, #88
	...

0000fd64 <_ZN7android22QualcommCameraHardware10setOverlayERKNS_2spINS_7OverlayEEE>:
    fd64:	b570      	push	{r4, r5, r6, lr}
    fd66:	680b      	ldr	r3, [r1, #0]
    fd68:	4606      	mov	r6, r0
    fd6a:	460d      	mov	r5, r1
    fd6c:	f500 74f2 	add.w	r4, r0, #484	; 0x1e4
    fd70:	b19b      	cbz	r3, fd9a <_ZN7android22QualcommCameraHardware10setOverlayERKNS_2spINS_7OverlayEEE+0x36>
    fd72:	4910      	ldr	r1, [pc, #64]	(fdb4 <_ZN7android22QualcommCameraHardware10setOverlayERKNS_2spINS_7OverlayEEE+0x50>)
    fd74:	36b0      	adds	r6, #176
    fd76:	4a10      	ldr	r2, [pc, #64]	(fdb8 <_ZN7android22QualcommCameraHardware10setOverlayERKNS_2spINS_7OverlayEEE+0x54>)
    fd78:	2002      	movs	r0, #2
    fd7a:	4479      	add	r1, pc
    fd7c:	447a      	add	r2, pc
    fd7e:	f7f7 ed28 	blx	77d0 <_ZN7android22QualcommCameraHardware18filterPictureSizesEv-0x51c>
    fd82:	4630      	mov	r0, r6
    fd84:	f7f8 fc1a 	bl	85bc <_ZN7android22QualcommCameraHardware26receiveJpegPictureFragmentEPhj+0x114>
    fd88:	4629      	mov	r1, r5
    fd8a:	4620      	mov	r0, r4
    fd8c:	f7f8 f9bc 	bl	8108 <_ZN7android2spINS_7OverlayEEaSERKS2_>
    fd90:	4630      	mov	r0, r6
    fd92:	f7f7 ed3c 	blx	780c <_ZN7android22QualcommCameraHardware18filterPictureSizesEv-0x4e0>
    fd96:	2000      	movs	r0, #0
    fd98:	e00b      	b.n	fdb2 <_ZN7android22QualcommCameraHardware10setOverlayERKNS_2spINS_7OverlayEEE+0x4e>
    fd9a:	4908      	ldr	r1, [pc, #32]	(fdbc <_ZN7android22QualcommCameraHardware10setOverlayERKNS_2spINS_7OverlayEEE+0x58>)
    fd9c:	2002      	movs	r0, #2
    fd9e:	4a08      	ldr	r2, [pc, #32]	(fdc0 <_ZN7android22QualcommCameraHardware10setOverlayERKNS_2spINS_7OverlayEEE+0x5c>)
    fda0:	4479      	add	r1, pc
    fda2:	447a      	add	r2, pc
    fda4:	f7f7 ed14 	blx	77d0 <_ZN7android22QualcommCameraHardware18filterPictureSizesEv-0x51c>
    fda8:	4620      	mov	r0, r4
    fdaa:	f7ff fe65 	bl	fa78 <_ZN7android15snapshot_threadEPv+0x60>
    fdae:	f04f 4000 	mov.w	r0, #2147483648	; 0x80000000
    fdb2:	bd70      	pop	{r4, r5, r6, pc}
    fdb4:	0615      	lsls	r5, r2, #24
    fdb6:	0000      	lsls	r0, r0, #0
    fdb8:	3921      	subs	r1, #33
    fdba:	0000      	lsls	r0, r0, #0
    fdbc:	05ef      	lsls	r7, r5, #23
    fdbe:	0000      	lsls	r0, r0, #0
    fdc0:	3912      	subs	r1, #18
    fdc2:	0000      	lsls	r0, r0, #0
    fdc4:	b570      	push	{r4, r5, r6, lr}
    fdc6:	4c0e      	ldr	r4, [pc, #56]	(fe00 <_ZN7android22QualcommCameraHardware10setOverlayERKNS_2spINS_7OverlayEEE+0x9c>)
    fdc8:	6805      	ldr	r5, [r0, #0]
    fdca:	4606      	mov	r6, r0
    fdcc:	447c      	add	r4, pc
    fdce:	b145      	cbz	r5, fde2 <_ZN7android22QualcommCameraHardware10setOverlayERKNS_2spINS_7OverlayEEE+0x7e>
    fdd0:	6829      	ldr	r1, [r5, #0]
    fdd2:	4b0c      	ldr	r3, [pc, #48]	(fe04 <_ZN7android22QualcommCameraHardware10setOverlayERKNS_2spINS_7OverlayEEE+0xa0>)
    fdd4:	f851 0c0c 	ldr.w	r0, [r1, #-12]
    fdd8:	58e1      	ldr	r1, [r4, r3]
    fdda:	1828      	adds	r0, r5, r0
    fddc:	f7f7 eed2 	blx	7b84 <_ZN7android22QualcommCameraHardware18filterPictureSizesEv-0x168>
    fde0:	4605      	mov	r5, r0
    fde2:	f8df c020 	ldr.w	ip, [pc, #32]	; fe04 <_ZN7android22QualcommCameraHardware10setOverlayERKNS_2spINS_7OverlayEEE+0xa0>
    fde6:	6836      	ldr	r6, [r6, #0]
    fde8:	f854 100c 	ldr.w	r1, [r4, ip]
    fdec:	680a      	ldr	r2, [r1, #0]
    fdee:	b112      	cbz	r2, fdf6 <_ZN7android22QualcommCameraHardware10setOverlayERKNS_2spINS_7OverlayEEE+0x92>
    fdf0:	6848      	ldr	r0, [r1, #4]
    fdf2:	f7f7 ecdc 	blx	77ac <_ZN7android22QualcommCameraHardware18filterPictureSizesEv-0x540>
    fdf6:	4b03      	ldr	r3, [pc, #12]	(fe04 <_ZN7android22QualcommCameraHardware10setOverlayERKNS_2spINS_7OverlayEEE+0xa0>)
    fdf8:	58e0      	ldr	r0, [r4, r3]
    fdfa:	6006      	str	r6, [r0, #0]
    fdfc:	6045      	str	r5, [r0, #4]
    fdfe:	bd70      	pop	{r4, r5, r6, pc}
    fe00:	4928      	ldr	r1, [pc, #160]	(fea4 <_ZN7android22QualcommCameraHardware14createInstanceEv+0x9c>)
    fe02:	0000      	lsls	r0, r0, #0
    fe04:	ff0c ffff 	undefined

0000fe08 <_ZN7android22QualcommCameraHardware14createInstanceEv>:
    fe08:	e92d 47f0 	stmdb	sp!, {r4, r5, r6, r7, r8, r9, sl, lr}
    fe0c:	498d      	ldr	r1, [pc, #564]	(10044 <_ZN7android22QualcommCameraHardware14createInstanceEv+0x23c>)
    fe0e:	4a8e      	ldr	r2, [pc, #568]	(10048 <_ZN7android22QualcommCameraHardware14createInstanceEv+0x240>)
    fe10:	b0a2      	sub	sp, #136
    fe12:	4d8e      	ldr	r5, [pc, #568]	(1004c <_ZN7android22QualcommCameraHardware14createInstanceEv+0x244>)
    fe14:	4479      	add	r1, pc
    fe16:	447a      	add	r2, pc
    fe18:	f8df a234 	ldr.w	sl, [pc, #564]	; 10050 <_ZN7android22QualcommCameraHardware14createInstanceEv+0x248>
    fe1c:	4604      	mov	r4, r0
    fe1e:	447d      	add	r5, pc
    fe20:	2003      	movs	r0, #3
    fe22:	4e8c      	ldr	r6, [pc, #560]	(10054 <_ZN7android22QualcommCameraHardware14createInstanceEv+0x24c>)
    fe24:	f8df 9230 	ldr.w	r9, [pc, #560]	; 10058 <_ZN7android22QualcommCameraHardware14createInstanceEv+0x250>
    fe28:	f7f7 ecd2 	blx	77d0 <_ZN7android22QualcommCameraHardware18filterPictureSizesEv-0x51c>
    fe2c:	f8df 822c 	ldr.w	r8, [pc, #556]	; 1005c <_ZN7android22QualcommCameraHardware14createInstanceEv+0x254>
    fe30:	f505 7084 	add.w	r0, r5, #264	; 0x108
    fe34:	4f8a      	ldr	r7, [pc, #552]	(10060 <_ZN7android22QualcommCameraHardware14createInstanceEv+0x258>)
    fe36:	44fa      	add	sl, pc
    fe38:	f7f8 fbc0 	bl	85bc <_ZN7android22QualcommCameraHardware26receiveJpegPictureFragmentEPhj+0x114>
    fe3c:	447e      	add	r6, pc
    fe3e:	44f9      	add	r9, pc
    fe40:	44f8      	add	r8, pc
    fe42:	447f      	add	r7, pc
    fe44:	e03b      	b.n	febe <_ZN7android22QualcommCameraHardware14createInstanceEv+0xb6>
    fe46:	f8d5 2110 	ldr.w	r2, [r5, #272]
    fe4a:	f8d5 3114 	ldr.w	r3, [r5, #276]
    fe4e:	4313      	orrs	r3, r2
    fe50:	f000 80e2 	beq.w	10018 <_ZN7android22QualcommCameraHardware14createInstanceEv+0x210>
    fe54:	2001      	movs	r0, #1
    fe56:	f7f7 edb2 	blx	79bc <_ZN7android22QualcommCameraHardware18filterPictureSizesEv-0x330>
    fe5a:	e9d5 2344 	ldrd	r2, r3, [r5, #272]
    fe5e:	1a80      	subs	r0, r0, r2
    fe60:	eb61 0103 	sbc.w	r1, r1, r3
    fe64:	f8d5 3164 	ldr.w	r3, [r5, #356]
    fe68:	428b      	cmp	r3, r1
    fe6a:	db06      	blt.n	fe7a <_ZN7android22QualcommCameraHardware14createInstanceEv+0x72>
    fe6c:	f040 80d4 	bne.w	10018 <_ZN7android22QualcommCameraHardware14createInstanceEv+0x210>
    fe70:	f8d5 1160 	ldr.w	r1, [r5, #352]
    fe74:	4281      	cmp	r1, r0
    fe76:	f080 80cf 	bcs.w	10018 <_ZN7android22QualcommCameraHardware14createInstanceEv+0x210>
    fe7a:	2001      	movs	r0, #1
    fe7c:	4d79      	ldr	r5, [pc, #484]	(10064 <_ZN7android22QualcommCameraHardware14createInstanceEv+0x25c>)
    fe7e:	f7f7 ed9e 	blx	79bc <_ZN7android22QualcommCameraHardware18filterPictureSizesEv-0x330>
    fe82:	4e79      	ldr	r6, [pc, #484]	(10068 <_ZN7android22QualcommCameraHardware14createInstanceEv+0x260>)
    fe84:	447d      	add	r5, pc
    fe86:	4a79      	ldr	r2, [pc, #484]	(1006c <_ZN7android22QualcommCameraHardware14createInstanceEv+0x264>)
    fe88:	447e      	add	r6, pc
    fe8a:	447a      	add	r2, pc
    fe8c:	e9cd 0100 	strd	r0, r1, [sp]
    fe90:	e9d5 0144 	ldrd	r0, r1, [r5, #272]
    fe94:	e9cd 0102 	strd	r0, r1, [sp, #8]
    fe98:	e9d5 0158 	ldrd	r0, r1, [r5, #352]
    fe9c:	e9cd 0104 	strd	r0, r1, [sp, #16]
    fea0:	4631      	mov	r1, r6
    fea2:	2002      	movs	r0, #2
    fea4:	f7f7 ec94 	blx	77d0 <_ZN7android22QualcommCameraHardware18filterPictureSizesEv-0x51c>
    fea8:	f505 7084 	add.w	r0, r5, #264	; 0x108
    feac:	f7f7 ecae 	blx	780c <_ZN7android22QualcommCameraHardware18filterPictureSizesEv-0x4e0>
    feb0:	4a6f      	ldr	r2, [pc, #444]	(10070 <_ZN7android22QualcommCameraHardware14createInstanceEv+0x268>)
    feb2:	2006      	movs	r0, #6
    feb4:	4631      	mov	r1, r6
    feb6:	447a      	add	r2, pc
    feb8:	f7f7 ec8a 	blx	77d0 <_ZN7android22QualcommCameraHardware18filterPictureSizesEv-0x51c>
    febc:	e05d      	b.n	ff7a <_ZN7android22QualcommCameraHardware14createInstanceEv+0x172>
    febe:	f895 210c 	ldrb.w	r2, [r5, #268]
    fec2:	2a00      	cmp	r2, #0
    fec4:	d1bf      	bne.n	fe46 <_ZN7android22QualcommCameraHardware14createInstanceEv+0x3e>
    fec6:	4d6b      	ldr	r5, [pc, #428]	(10074 <_ZN7android22QualcommCameraHardware14createInstanceEv+0x26c>)
    fec8:	f85a 3005 	ldr.w	r3, [sl, r5]
    fecc:	681d      	ldr	r5, [r3, #0]
    fece:	2d00      	cmp	r5, #0
    fed0:	d039      	beq.n	ff46 <_ZN7android22QualcommCameraHardware14createInstanceEv+0x13e>
    fed2:	6858      	ldr	r0, [r3, #4]
    fed4:	a921      	add	r1, sp, #132
    fed6:	f7f7 ed84 	blx	79e0 <_ZN7android22QualcommCameraHardware18filterPictureSizesEv-0x30c>
    feda:	2800      	cmp	r0, #0
    fedc:	bf08      	it	eq
    fede:	2500      	moveq	r5, #0
    fee0:	9521      	str	r5, [sp, #132]
    fee2:	9506      	str	r5, [sp, #24]
    fee4:	b135      	cbz	r5, fef4 <_ZN7android22QualcommCameraHardware14createInstanceEv+0xec>
    fee6:	682b      	ldr	r3, [r5, #0]
    fee8:	f853 1c0c 	ldr.w	r1, [r3, #-12]
    feec:	1868      	adds	r0, r5, r1
    feee:	a906      	add	r1, sp, #24
    fef0:	f7f7 ec74 	blx	77dc <_ZN7android22QualcommCameraHardware18filterPictureSizesEv-0x510>
    fef4:	a821      	add	r0, sp, #132
    fef6:	f7f8 fa7b 	bl	83f0 <_ZN7android2spINS_22QualcommCameraHardwareEED1Ev>
    fefa:	9b06      	ldr	r3, [sp, #24]
    fefc:	b31b      	cbz	r3, ff46 <_ZN7android22QualcommCameraHardware14createInstanceEv+0x13e>
    fefe:	495e      	ldr	r1, [pc, #376]	(10078 <_ZN7android22QualcommCameraHardware14createInstanceEv+0x270>)
    ff00:	2003      	movs	r0, #3
    ff02:	4a5e      	ldr	r2, [pc, #376]	(1007c <_ZN7android22QualcommCameraHardware14createInstanceEv+0x274>)
    ff04:	4479      	add	r1, pc
    ff06:	447a      	add	r2, pc
    ff08:	f7f7 ec62 	blx	77d0 <_ZN7android22QualcommCameraHardware18filterPictureSizesEv-0x51c>
    ff0c:	f8df c170 	ldr.w	ip, [pc, #368]	; 10080 <_ZN7android22QualcommCameraHardware14createInstanceEv+0x278>
    ff10:	44fc      	add	ip, pc
    ff12:	f50c 7084 	add.w	r0, ip, #264	; 0x108
    ff16:	f7f7 ec7a 	blx	780c <_ZN7android22QualcommCameraHardware18filterPictureSizesEv-0x4e0>
    ff1a:	9b06      	ldr	r3, [sp, #24]
    ff1c:	6023      	str	r3, [r4, #0]
    ff1e:	b133      	cbz	r3, ff2e <_ZN7android22QualcommCameraHardware14createInstanceEv+0x126>
    ff20:	681a      	ldr	r2, [r3, #0]
    ff22:	4621      	mov	r1, r4
    ff24:	f852 0c0c 	ldr.w	r0, [r2, #-12]
    ff28:	1818      	adds	r0, r3, r0
    ff2a:	f7f7 ec58 	blx	77dc <_ZN7android22QualcommCameraHardware18filterPictureSizesEv-0x510>
    ff2e:	9b06      	ldr	r3, [sp, #24]
    ff30:	2b00      	cmp	r3, #0
    ff32:	f000 8082 	beq.w	1003a <_ZN7android22QualcommCameraHardware14createInstanceEv+0x232>
    ff36:	6818      	ldr	r0, [r3, #0]
    ff38:	f850 1c0c 	ldr.w	r1, [r0, #-12]
    ff3c:	1858      	adds	r0, r3, r1
    ff3e:	a906      	add	r1, sp, #24
    ff40:	f7f7 ec52 	blx	77e8 <_ZN7android22QualcommCameraHardware18filterPictureSizesEv-0x504>
    ff44:	e079      	b.n	1003a <_ZN7android22QualcommCameraHardware14createInstanceEv+0x232>
    ff46:	484f      	ldr	r0, [pc, #316]	(10084 <_ZN7android22QualcommCameraHardware14createInstanceEv+0x27c>)
    ff48:	a906      	add	r1, sp, #24
    ff4a:	4478      	add	r0, pc
    ff4c:	f7f7 ee20 	blx	7b90 <_ZN7android22QualcommCameraHardware18filterPictureSizesEv-0x15c>
    ff50:	2800      	cmp	r0, #0
    ff52:	da15      	bge.n	ff80 <_ZN7android22QualcommCameraHardware14createInstanceEv+0x178>
    ff54:	f7f7 ec90 	blx	7878 <_ZN7android22QualcommCameraHardware18filterPictureSizesEv-0x474>
    ff58:	6800      	ldr	r0, [r0, #0]
    ff5a:	f7f7 ec94 	blx	7884 <_ZN7android22QualcommCameraHardware18filterPictureSizesEv-0x468>
    ff5e:	494a      	ldr	r1, [pc, #296]	(10088 <_ZN7android22QualcommCameraHardware14createInstanceEv+0x280>)
    ff60:	4a4a      	ldr	r2, [pc, #296]	(1008c <_ZN7android22QualcommCameraHardware14createInstanceEv+0x284>)
    ff62:	4479      	add	r1, pc
    ff64:	447a      	add	r2, pc
    ff66:	4603      	mov	r3, r0
    ff68:	2003      	movs	r0, #3
    ff6a:	f7f7 ec32 	blx	77d0 <_ZN7android22QualcommCameraHardware18filterPictureSizesEv-0x51c>
    ff6e:	4b48      	ldr	r3, [pc, #288]	(10090 <_ZN7android22QualcommCameraHardware14createInstanceEv+0x288>)
    ff70:	447b      	add	r3, pc
    ff72:	f503 7084 	add.w	r0, r3, #264	; 0x108
    ff76:	f7f7 ec4a 	blx	780c <_ZN7android22QualcommCameraHardware18filterPictureSizesEv-0x4e0>
    ff7a:	2200      	movs	r2, #0
    ff7c:	6022      	str	r2, [r4, #0]
    ff7e:	e05c      	b.n	1003a <_ZN7android22QualcommCameraHardware14createInstanceEv+0x232>
    ff80:	f44f 7005 	mov.w	r0, #532	; 0x214
    ff84:	f7f7 ec90 	blx	78a8 <_ZN7android22QualcommCameraHardware18filterPictureSizesEv-0x444>
    ff88:	4606      	mov	r6, r0
    ff8a:	f7fe f927 	bl	e1dc <_ZN7android22QualcommCameraHardwareC1Ev>
    ff8e:	9620      	str	r6, [sp, #128]
    ff90:	b136      	cbz	r6, ffa0 <_ZN7android22QualcommCameraHardware14createInstanceEv+0x198>
    ff92:	6831      	ldr	r1, [r6, #0]
    ff94:	f851 5c0c 	ldr.w	r5, [r1, #-12]
    ff98:	a920      	add	r1, sp, #128
    ff9a:	1970      	adds	r0, r6, r5
    ff9c:	f7f7 ec1e 	blx	77dc <_ZN7android22QualcommCameraHardware18filterPictureSizesEv-0x510>
    ffa0:	a820      	add	r0, sp, #128
    ffa2:	f7ff ff0f 	bl	fdc4 <_ZN7android22QualcommCameraHardware10setOverlayERKNS_2spINS_7OverlayEEE+0x60>
    ffa6:	4630      	mov	r0, r6
    ffa8:	f7fd fe5a 	bl	dc60 <_ZN7android22QualcommCameraHardware11startCameraEv>
    ffac:	4605      	mov	r5, r0
    ffae:	b9a0      	cbnz	r0, ffda <_ZN7android22QualcommCameraHardware14createInstanceEv+0x1d2>
    ffb0:	f8df e0e0 	ldr.w	lr, [pc, #224]	; 10094 <_ZN7android22QualcommCameraHardware14createInstanceEv+0x28c>
    ffb4:	2006      	movs	r0, #6
    ffb6:	4938      	ldr	r1, [pc, #224]	(10098 <_ZN7android22QualcommCameraHardware14createInstanceEv+0x290>)
    ffb8:	4a38      	ldr	r2, [pc, #224]	(1009c <_ZN7android22QualcommCameraHardware14createInstanceEv+0x294>)
    ffba:	44fe      	add	lr, pc
    ffbc:	4479      	add	r1, pc
    ffbe:	f50e 73a6 	add.w	r3, lr, #332	; 0x14c
    ffc2:	447a      	add	r2, pc
    ffc4:	f7f7 ec04 	blx	77d0 <_ZN7android22QualcommCameraHardware18filterPictureSizesEv-0x51c>
    ffc8:	f8df c0d4 	ldr.w	ip, [pc, #212]	; 100a0 <_ZN7android22QualcommCameraHardware14createInstanceEv+0x298>
    ffcc:	44fc      	add	ip, pc
    ffce:	f50c 7084 	add.w	r0, ip, #264	; 0x108
    ffd2:	f7f7 ec1c 	blx	780c <_ZN7android22QualcommCameraHardware18filterPictureSizesEv-0x4e0>
    ffd6:	6025      	str	r5, [r4, #0]
    ffd8:	e01a      	b.n	10010 <_ZN7android22QualcommCameraHardware14createInstanceEv+0x208>
    ffda:	4630      	mov	r0, r6
    ffdc:	f7fe fcb8 	bl	e950 <_ZN7android22QualcommCameraHardware21initDefaultParametersEv>
    ffe0:	4930      	ldr	r1, [pc, #192]	(100a4 <_ZN7android22QualcommCameraHardware14createInstanceEv+0x29c>)
    ffe2:	4a31      	ldr	r2, [pc, #196]	(100a8 <_ZN7android22QualcommCameraHardware14createInstanceEv+0x2a0>)
    ffe4:	2003      	movs	r0, #3
    ffe6:	9b20      	ldr	r3, [sp, #128]
    ffe8:	4479      	add	r1, pc
    ffea:	447a      	add	r2, pc
    ffec:	f7f7 ebf0 	blx	77d0 <_ZN7android22QualcommCameraHardware18filterPictureSizesEv-0x51c>
    fff0:	482e      	ldr	r0, [pc, #184]	(100ac <_ZN7android22QualcommCameraHardware14createInstanceEv+0x2a4>)
    fff2:	4478      	add	r0, pc
    fff4:	f500 7084 	add.w	r0, r0, #264	; 0x108
    fff8:	f7f7 ec08 	blx	780c <_ZN7android22QualcommCameraHardware18filterPictureSizesEv-0x4e0>
    fffc:	9b20      	ldr	r3, [sp, #128]
    fffe:	6023      	str	r3, [r4, #0]
   10000:	b133      	cbz	r3, 10010 <_ZN7android22QualcommCameraHardware14createInstanceEv+0x208>
   10002:	681a      	ldr	r2, [r3, #0]
   10004:	f852 1c0c 	ldr.w	r1, [r2, #-12]
   10008:	1858      	adds	r0, r3, r1
   1000a:	4621      	mov	r1, r4
   1000c:	f7f7 ebe6 	blx	77dc <_ZN7android22QualcommCameraHardware18filterPictureSizesEv-0x510>
   10010:	a820      	add	r0, sp, #128
   10012:	f7f8 f9ed 	bl	83f0 <_ZN7android2spINS_22QualcommCameraHardwareEED1Ev>
   10016:	e010      	b.n	1003a <_ZN7android22QualcommCameraHardware14createInstanceEv+0x232>
   10018:	464a      	mov	r2, r9
   1001a:	4631      	mov	r1, r6
   1001c:	2004      	movs	r0, #4
   1001e:	f7f7 ebd8 	blx	77d0 <_ZN7android22QualcommCameraHardware18filterPictureSizesEv-0x51c>
   10022:	edd8 0b5a 	vldr	d16, [r8, #360]
   10026:	ec51 0b30 	vmov	r0, r1, d16
   1002a:	f7fe fc25 	bl	e878 <_ZN7android22QualcommCameraHardwareC2Ev+0x40c>
   1002e:	2004      	movs	r0, #4
   10030:	4631      	mov	r1, r6
   10032:	463a      	mov	r2, r7
   10034:	f7f7 ebcc 	blx	77d0 <_ZN7android22QualcommCameraHardware18filterPictureSizesEv-0x51c>
   10038:	e741      	b.n	febe <_ZN7android22QualcommCameraHardware14createInstanceEv+0xb6>
   1003a:	4620      	mov	r0, r4
   1003c:	b022      	add	sp, #136
   1003e:	e8bd 87f0 	ldmia.w	sp!, {r4, r5, r6, r7, r8, r9, sl, pc}
   10042:	bf00      	nop
   10044:	057b      	lsls	r3, r7, #21
   10046:	0000      	lsls	r0, r0, #0
   10048:	38bf      	subs	r0, #191
   1004a:	0000      	lsls	r0, r0, #0
   1004c:	4b3e      	ldr	r3, [pc, #248]	(10148 <_ZN7android22QualcommCameraHardware13getBufferInfoERNS_2spINS_7IMemoryEEEPj+0x30>)
   1004e:	0000      	lsls	r0, r0, #0
   10050:	48be      	ldr	r0, [pc, #760]	(1034c <_ZTv0_n12_N7android22QualcommCameraHardwareD1Ev+0x12c>)
   10052:	0000      	lsls	r0, r0, #0
   10054:	0553      	lsls	r3, r2, #21
   10056:	0000      	lsls	r0, r0, #0
   10058:	39c3      	subs	r1, #195
   1005a:	0000      	lsls	r0, r0, #0
   1005c:	4b1c      	ldr	r3, [pc, #112]	(100d0 <HAL_openCameraHardware+0x20>)
   1005e:	0000      	lsls	r0, r0, #0
   10060:	39da      	subs	r1, #218
   10062:	0000      	lsls	r0, r0, #0
   10064:	4ad8      	ldr	r2, [pc, #864]	(103c8 <_ZTv0_n12_N7android22QualcommCameraHardwareD1Ev+0x1a8>)
   10066:	0000      	lsls	r0, r0, #0
   10068:	0507      	lsls	r7, r0, #20
   1006a:	0000      	lsls	r0, r0, #0
   1006c:	385d      	subs	r0, #93
   1006e:	0000      	lsls	r0, r0, #0
   10070:	3862      	subs	r0, #98
   10072:	0000      	lsls	r0, r0, #0
   10074:	ff0c ffff 	undefined
   10078:	048b      	lsls	r3, r1, #18
   1007a:	0000      	lsls	r0, r0, #0
   1007c:	3853      	subs	r0, #83
   1007e:	0000      	lsls	r0, r0, #0
   10080:	4a4c      	ldr	r2, [pc, #304]	(101b4 <_ZN7android22QualcommCameraHardware13getBufferInfoERNS_2spINS_7IMemoryEEEPj+0x9c>)
   10082:	0000      	lsls	r0, r0, #0
   10084:	383d      	subs	r0, #61
   10086:	0000      	lsls	r0, r0, #0
   10088:	042d      	lsls	r5, r5, #16
   1008a:	0000      	lsls	r0, r0, #0
   1008c:	382f      	subs	r0, #47
   1008e:	0000      	lsls	r0, r0, #0
   10090:	49ec      	ldr	r1, [pc, #944]	(10444 <_ZTv0_n12_N7android22QualcommCameraHardwareD1Ev+0x224>)
   10092:	0000      	lsls	r0, r0, #0
   10094:	0272      	lsls	r2, r6, #9
   10096:	0000      	lsls	r0, r0, #0
   10098:	03d3      	lsls	r3, r2, #15
   1009a:	0000      	lsls	r0, r0, #0
   1009c:	3801      	subs	r0, #1
   1009e:	0000      	lsls	r0, r0, #0
   100a0:	4990      	ldr	r1, [pc, #576]	(102e4 <_ZTv0_n12_N7android22QualcommCameraHardwareD1Ev+0xc4>)
   100a2:	0000      	lsls	r0, r0, #0
   100a4:	03a7      	lsls	r7, r4, #14
   100a6:	0000      	lsls	r0, r0, #0
   100a8:	37f1      	adds	r7, #241
   100aa:	0000      	lsls	r0, r0, #0
   100ac:	496a      	ldr	r1, [pc, #424]	(10258 <_ZTv0_n12_N7android22QualcommCameraHardwareD1Ev+0x38>)
	...

000100b0 <HAL_openCameraHardware>:
   100b0:	4906      	ldr	r1, [pc, #24]	(100cc <HAL_openCameraHardware+0x1c>)
   100b2:	4a07      	ldr	r2, [pc, #28]	(100d0 <HAL_openCameraHardware+0x20>)
   100b4:	b510      	push	{r4, lr}
   100b6:	4479      	add	r1, pc
   100b8:	4604      	mov	r4, r0
   100ba:	447a      	add	r2, pc
   100bc:	2002      	movs	r0, #2
   100be:	f7f7 eb88 	blx	77d0 <_ZN7android22QualcommCameraHardware18filterPictureSizesEv-0x51c>
   100c2:	4620      	mov	r0, r4
   100c4:	f7ff fea0 	bl	fe08 <_ZN7android22QualcommCameraHardware14createInstanceEv>
   100c8:	4620      	mov	r0, r4
   100ca:	bd10      	pop	{r4, pc}
   100cc:	02d9      	lsls	r1, r3, #11
   100ce:	0000      	lsls	r0, r0, #0
   100d0:	3784      	adds	r7, #132
	...

000100d4 <openCameraHardware>:
   100d4:	4906      	ldr	r1, [pc, #24]	(100f0 <openCameraHardware+0x1c>)
   100d6:	4a07      	ldr	r2, [pc, #28]	(100f4 <openCameraHardware+0x20>)
   100d8:	b510      	push	{r4, lr}
   100da:	4479      	add	r1, pc
   100dc:	4604      	mov	r4, r0
   100de:	447a      	add	r2, pc
   100e0:	2002      	movs	r0, #2
   100e2:	f7f7 eb76 	blx	77d0 <_ZN7android22QualcommCameraHardware18filterPictureSizesEv-0x51c>
   100e6:	4620      	mov	r0, r4
   100e8:	f7ff fe8e 	bl	fe08 <_ZN7android22QualcommCameraHardware14createInstanceEv>
   100ec:	4620      	mov	r0, r4
   100ee:	bd10      	pop	{r4, pc}
   100f0:	02b5      	lsls	r5, r6, #10
   100f2:	0000      	lsls	r0, r0, #0
   100f4:	3760      	adds	r7, #96
   100f6:	0000      	lsls	r0, r0, #0
   100f8:	b510      	push	{r4, lr}
   100fa:	6803      	ldr	r3, [r0, #0]
   100fc:	4604      	mov	r4, r0
   100fe:	b133      	cbz	r3, 1010e <openCameraHardware+0x3a>
   10100:	681a      	ldr	r2, [r3, #0]
   10102:	4621      	mov	r1, r4
   10104:	f852 0c0c 	ldr.w	r0, [r2, #-12]
   10108:	1818      	adds	r0, r3, r0
   1010a:	f7f7 eb6e 	blx	77e8 <_ZN7android22QualcommCameraHardware18filterPictureSizesEv-0x504>
   1010e:	2300      	movs	r3, #0
   10110:	4620      	mov	r0, r4
   10112:	6023      	str	r3, [r4, #0]
   10114:	bd10      	pop	{r4, pc}
   10116:	bf00      	nop

00010118 <_ZN7android22QualcommCameraHardware13getBufferInfoERNS_2spINS_7IMemoryEEEPj>:
   10118:	e92d 41f0 	stmdb	sp!, {r4, r5, r6, r7, r8, lr}
   1011c:	4c2f      	ldr	r4, [pc, #188]	(101dc <_ZN7android22QualcommCameraHardware13getBufferInfoERNS_2spINS_7IMemoryEEEPj+0xc4>)
   1011e:	4617      	mov	r7, r2
   10120:	4a2f      	ldr	r2, [pc, #188]	(101e0 <_ZN7android22QualcommCameraHardware13getBufferInfoERNS_2spINS_7IMemoryEEEPj+0xc8>)
   10122:	447c      	add	r4, pc
   10124:	4605      	mov	r5, r0
   10126:	460e      	mov	r6, r1
   10128:	2002      	movs	r0, #2
   1012a:	447a      	add	r2, pc
   1012c:	4621      	mov	r1, r4
   1012e:	f7f7 eb50 	blx	77d0 <_ZN7android22QualcommCameraHardware18filterPictureSizesEv-0x51c>
   10132:	482c      	ldr	r0, [pc, #176]	(101e4 <_ZN7android22QualcommCameraHardware13getBufferInfoERNS_2spINS_7IMemoryEEEPj+0xcc>)
   10134:	4478      	add	r0, pc
   10136:	6800      	ldr	r0, [r0, #0]
   10138:	1e83      	subs	r3, r0, #2
   1013a:	2b01      	cmp	r3, #1
   1013c:	d819      	bhi.n	10172 <_ZN7android22QualcommCameraHardware13getBufferInfoERNS_2spINS_7IMemoryEEEPj+0x5a>
   1013e:	6b69      	ldr	r1, [r5, #52]
   10140:	b1a1      	cbz	r1, 1016c <_ZN7android22QualcommCameraHardware13getBufferInfoERNS_2spINS_7IMemoryEEEPj+0x54>
   10142:	4a29      	ldr	r2, [pc, #164]	(101e8 <_ZN7android22QualcommCameraHardware13getBufferInfoERNS_2spINS_7IMemoryEEEPj+0xd0>)
   10144:	4621      	mov	r1, r4
   10146:	2002      	movs	r0, #2
   10148:	447a      	add	r2, pc
   1014a:	f7f7 eb42 	blx	77d0 <_ZN7android22QualcommCameraHardware18filterPictureSizesEv-0x51c>
   1014e:	6b6a      	ldr	r2, [r5, #52]
   10150:	4630      	mov	r0, r6
   10152:	69d1      	ldr	r1, [r2, #28]
   10154:	f7f7 ffc0 	bl	80d8 <_ZN7android2spINS_7IMemoryEEaSINS_10MemoryBaseEEERS2_RKNS0_IT_EE>
   10158:	b12f      	cbz	r7, 10166 <_ZN7android22QualcommCameraHardware13getBufferInfoERNS_2spINS_7IMemoryEEEPj+0x4e>
   1015a:	6b6b      	ldr	r3, [r5, #52]
   1015c:	4a23      	ldr	r2, [pc, #140]	(101ec <_ZN7android22QualcommCameraHardware13getBufferInfoERNS_2spINS_7IMemoryEEEPj+0xd4>)
   1015e:	68db      	ldr	r3, [r3, #12]
   10160:	447a      	add	r2, pc
   10162:	603b      	str	r3, [r7, #0]
   10164:	e018      	b.n	10198 <_ZN7android22QualcommCameraHardware13getBufferInfoERNS_2spINS_7IMemoryEEEPj+0x80>
   10166:	4a22      	ldr	r2, [pc, #136]	(101f0 <_ZN7android22QualcommCameraHardware13getBufferInfoERNS_2spINS_7IMemoryEEEPj+0xd8>)
   10168:	447a      	add	r2, pc
   1016a:	e01d      	b.n	101a8 <_ZN7android22QualcommCameraHardware13getBufferInfoERNS_2spINS_7IMemoryEEEPj+0x90>
   1016c:	4a21      	ldr	r2, [pc, #132]	(101f4 <_ZN7android22QualcommCameraHardware13getBufferInfoERNS_2spINS_7IMemoryEEEPj+0xdc>)
   1016e:	447a      	add	r2, pc
   10170:	e021      	b.n	101b6 <_ZN7android22QualcommCameraHardware13getBufferInfoERNS_2spINS_7IMemoryEEEPj+0x9e>
   10172:	6b28      	ldr	r0, [r5, #48]
   10174:	b1e8      	cbz	r0, 101b2 <_ZN7android22QualcommCameraHardware13getBufferInfoERNS_2spINS_7IMemoryEEEPj+0x9a>
   10176:	4a20      	ldr	r2, [pc, #128]	(101f8 <_ZN7android22QualcommCameraHardware13getBufferInfoERNS_2spINS_7IMemoryEEEPj+0xe0>)
   10178:	4621      	mov	r1, r4
   1017a:	2002      	movs	r0, #2
   1017c:	447a      	add	r2, pc
   1017e:	f7f7 eb28 	blx	77d0 <_ZN7android22QualcommCameraHardware18filterPictureSizesEv-0x51c>
   10182:	6b2a      	ldr	r2, [r5, #48]
   10184:	4630      	mov	r0, r6
   10186:	69d1      	ldr	r1, [r2, #28]
   10188:	f7f7 ffa6 	bl	80d8 <_ZN7android2spINS_7IMemoryEEaSINS_10MemoryBaseEEERS2_RKNS0_IT_EE>
   1018c:	b157      	cbz	r7, 101a4 <_ZN7android22QualcommCameraHardware13getBufferInfoERNS_2spINS_7IMemoryEEEPj+0x8c>
   1018e:	6b29      	ldr	r1, [r5, #48]
   10190:	4a1a      	ldr	r2, [pc, #104]	(101fc <_ZN7android22QualcommCameraHardware13getBufferInfoERNS_2spINS_7IMemoryEEEPj+0xe4>)
   10192:	68cb      	ldr	r3, [r1, #12]
   10194:	447a      	add	r2, pc
   10196:	603b      	str	r3, [r7, #0]
   10198:	4621      	mov	r1, r4
   1019a:	2002      	movs	r0, #2
   1019c:	f7f7 eb18 	blx	77d0 <_ZN7android22QualcommCameraHardware18filterPictureSizesEv-0x51c>
   101a0:	2400      	movs	r4, #0
   101a2:	e011      	b.n	101c8 <_ZN7android22QualcommCameraHardware13getBufferInfoERNS_2spINS_7IMemoryEEEPj+0xb0>
   101a4:	4a16      	ldr	r2, [pc, #88]	(10200 <_ZN7android22QualcommCameraHardware13getBufferInfoERNS_2spINS_7IMemoryEEEPj+0xe8>)
   101a6:	447a      	add	r2, pc
   101a8:	2006      	movs	r0, #6
   101aa:	4621      	mov	r1, r4
   101ac:	f7f7 eb10 	blx	77d0 <_ZN7android22QualcommCameraHardware18filterPictureSizesEv-0x51c>
   101b0:	e008      	b.n	101c4 <_ZN7android22QualcommCameraHardware13getBufferInfoERNS_2spINS_7IMemoryEEEPj+0xac>
   101b2:	4a14      	ldr	r2, [pc, #80]	(10204 <_ZN7android22QualcommCameraHardware13getBufferInfoERNS_2spINS_7IMemoryEEEPj+0xec>)
   101b4:	447a      	add	r2, pc
   101b6:	2006      	movs	r0, #6
   101b8:	4621      	mov	r1, r4
   101ba:	f7f7 eb0a 	blx	77d0 <_ZN7android22QualcommCameraHardware18filterPictureSizesEv-0x51c>
   101be:	4630      	mov	r0, r6
   101c0:	f7ff ff9a 	bl	100f8 <openCameraHardware+0x24>
   101c4:	f04f 4400 	mov.w	r4, #2147483648	; 0x80000000
   101c8:	490f      	ldr	r1, [pc, #60]	(10208 <_ZN7android22QualcommCameraHardware13getBufferInfoERNS_2spINS_7IMemoryEEEPj+0xf0>)
   101ca:	2002      	movs	r0, #2
   101cc:	4a0f      	ldr	r2, [pc, #60]	(1020c <_ZN7android22QualcommCameraHardware13getBufferInfoERNS_2spINS_7IMemoryEEEPj+0xf4>)
   101ce:	4479      	add	r1, pc
   101d0:	447a      	add	r2, pc
   101d2:	f7f7 eafe 	blx	77d0 <_ZN7android22QualcommCameraHardware18filterPictureSizesEv-0x51c>
   101d6:	4620      	mov	r0, r4
   101d8:	e8bd 81f0 	ldmia.w	sp!, {r4, r5, r6, r7, r8, pc}
   101dc:	026d      	lsls	r5, r5, #9
   101de:	0000      	lsls	r0, r0, #0
   101e0:	373c      	adds	r7, #60
   101e2:	0000      	lsls	r0, r0, #0
   101e4:	4790      	blx	r2
   101e6:	0000      	lsls	r0, r0, #0
   101e8:	3732      	adds	r7, #50
   101ea:	0000      	lsls	r0, r0, #0
   101ec:	373d      	adds	r7, #61
   101ee:	0000      	lsls	r0, r0, #0
   101f0:	374e      	adds	r7, #78
   101f2:	0000      	lsls	r0, r0, #0
   101f4:	377f      	adds	r7, #127
   101f6:	0000      	lsls	r0, r0, #0
   101f8:	36fe      	adds	r6, #254
   101fa:	0000      	lsls	r0, r0, #0
   101fc:	3709      	adds	r7, #9
   101fe:	0000      	lsls	r0, r0, #0
   10200:	3710      	adds	r7, #16
   10202:	0000      	lsls	r0, r0, #0
   10204:	3772      	adds	r7, #114
   10206:	0000      	lsls	r0, r0, #0
   10208:	01c1      	lsls	r1, r0, #7
   1020a:	0000      	lsls	r0, r0, #0
   1020c:	3790      	adds	r7, #144
	...

00010210 <_ZTv0_n12_N7android22QualcommCameraHardwareD0Ev>:
   10210:	b510      	push	{r4, lr}
   10212:	6801      	ldr	r1, [r0, #0]
   10214:	f851 3c0c 	ldr.w	r3, [r1, #-12]
   10218:	18c0      	adds	r0, r0, r3
   1021a:	f7fd fa4b 	bl	d6b4 <_ZN7android22QualcommCameraHardwareD0Ev>
   1021e:	bd10      	pop	{r4, pc}

00010220 <_ZTv0_n12_N7android22QualcommCameraHardwareD1Ev>:
   10220:	b510      	push	{r4, lr}
   10222:	6801      	ldr	r1, [r0, #0]
   10224:	f851 3c0c 	ldr.w	r3, [r1, #-12]
   10228:	18c0      	adds	r0, r0, r3
   1022a:	f7fd f939 	bl	d4a0 <_ZN7android22QualcommCameraHardwareD1Ev>
   1022e:	bd10      	pop	{r4, pc}
